
node1.elf:     file format elf32-avr

Sections:
Idx Name          Size      VMA       LMA       File off  Algn
  0 .data         00000022  00800100  00005566  000055fa  2**0
                  CONTENTS, ALLOC, LOAD, DATA
  1 .text         00005566  00000000  00000000  00000094  2**1
                  CONTENTS, ALLOC, LOAD, READONLY, CODE
  2 .bss          00000796  00800122  00800122  0000561c  2**0
                  ALLOC
  3 .stab         00001638  00000000  00000000  0000561c  2**2
                  CONTENTS, READONLY, DEBUGGING
  4 .stabstr      000000f2  00000000  00000000  00006c54  2**0
                  CONTENTS, READONLY, DEBUGGING
  5 .debug_aranges 00000160  00000000  00000000  00006d46  2**0
                  CONTENTS, READONLY, DEBUGGING
  6 .debug_pubnames 0000054c  00000000  00000000  00006ea6  2**0
                  CONTENTS, READONLY, DEBUGGING
  7 .debug_info   00003d16  00000000  00000000  000073f2  2**0
                  CONTENTS, READONLY, DEBUGGING
  8 .debug_abbrev 00001038  00000000  00000000  0000b108  2**0
                  CONTENTS, READONLY, DEBUGGING
  9 .debug_line   00002ebb  00000000  00000000  0000c140  2**0
                  CONTENTS, READONLY, DEBUGGING
 10 .debug_frame  000004d0  00000000  00000000  0000effc  2**2
                  CONTENTS, READONLY, DEBUGGING
 11 .debug_str    00000b76  00000000  00000000  0000f4cc  2**0
                  CONTENTS, READONLY, DEBUGGING
 12 .debug_loc    00003863  00000000  00000000  00010042  2**0
                  CONTENTS, READONLY, DEBUGGING
 13 .debug_ranges 00000150  00000000  00000000  000138a5  2**0
                  CONTENTS, READONLY, DEBUGGING

Disassembly of section .text:

00000000 <__vectors>:
       0:	0c 94 aa 00 	jmp	0x154	; 0x154 <__ctors_end>
       4:	0c 94 c9 00 	jmp	0x192	; 0x192 <__bad_interrupt>
       8:	0c 94 c9 00 	jmp	0x192	; 0x192 <__bad_interrupt>
       c:	0c 94 c9 00 	jmp	0x192	; 0x192 <__bad_interrupt>
      10:	0c 94 c9 00 	jmp	0x192	; 0x192 <__bad_interrupt>
      14:	0c 94 c9 00 	jmp	0x192	; 0x192 <__bad_interrupt>
      18:	0c 94 c9 00 	jmp	0x192	; 0x192 <__bad_interrupt>
      1c:	0c 94 c9 00 	jmp	0x192	; 0x192 <__bad_interrupt>
      20:	0c 94 c9 00 	jmp	0x192	; 0x192 <__bad_interrupt>
      24:	0c 94 5c 02 	jmp	0x4b8	; 0x4b8 <__vector_9>
      28:	0c 94 c9 00 	jmp	0x192	; 0x192 <__bad_interrupt>
      2c:	0c 94 c9 00 	jmp	0x192	; 0x192 <__bad_interrupt>
      30:	0c 94 c9 00 	jmp	0x192	; 0x192 <__bad_interrupt>
      34:	0c 94 c9 00 	jmp	0x192	; 0x192 <__bad_interrupt>
      38:	0c 94 c9 00 	jmp	0x192	; 0x192 <__bad_interrupt>
      3c:	0c 94 c9 00 	jmp	0x192	; 0x192 <__bad_interrupt>
      40:	0c 94 d9 22 	jmp	0x45b2	; 0x45b2 <__vector_16>
      44:	0c 94 c9 00 	jmp	0x192	; 0x192 <__bad_interrupt>
      48:	0c 94 c9 00 	jmp	0x192	; 0x192 <__bad_interrupt>
      4c:	0c 94 c9 00 	jmp	0x192	; 0x192 <__bad_interrupt>
      50:	0c 94 c9 00 	jmp	0x192	; 0x192 <__bad_interrupt>
      54:	0c 94 ae 22 	jmp	0x455c	; 0x455c <__vector_21>
      58:	0c 94 c9 00 	jmp	0x192	; 0x192 <__bad_interrupt>
      5c:	0c 94 c9 00 	jmp	0x192	; 0x192 <__bad_interrupt>
      60:	0c 94 c9 00 	jmp	0x192	; 0x192 <__bad_interrupt>
      64:	0c 94 c9 00 	jmp	0x192	; 0x192 <__bad_interrupt>
      68:	0c 94 c9 00 	jmp	0x192	; 0x192 <__bad_interrupt>
      6c:	0c 94 c9 00 	jmp	0x192	; 0x192 <__bad_interrupt>
      70:	0c 94 c9 00 	jmp	0x192	; 0x192 <__bad_interrupt>
      74:	0c 94 c9 00 	jmp	0x192	; 0x192 <__bad_interrupt>
      78:	0c 94 c9 00 	jmp	0x192	; 0x192 <__bad_interrupt>
      7c:	0c 94 c9 00 	jmp	0x192	; 0x192 <__bad_interrupt>
      80:	0c 94 c9 00 	jmp	0x192	; 0x192 <__bad_interrupt>
      84:	0c 94 c9 00 	jmp	0x192	; 0x192 <__bad_interrupt>
      88:	0c 94 c9 00 	jmp	0x192	; 0x192 <__bad_interrupt>
      8c:	0c 94 c9 00 	jmp	0x192	; 0x192 <__bad_interrupt>
      90:	0c 94 c9 00 	jmp	0x192	; 0x192 <__bad_interrupt>
      94:	4f 19       	sub	r20, r15
      96:	5c 19       	sub	r21, r12
      98:	bd 19       	sub	r27, r13
      9a:	c3 19       	sub	r28, r3
      9c:	4c 19       	sub	r20, r12
      9e:	4c 19       	sub	r20, r12
      a0:	4c 19       	sub	r20, r12
      a2:	4c 19       	sub	r20, r12
      a4:	4c 19       	sub	r20, r12
      a6:	4c 19       	sub	r20, r12
      a8:	56 1a       	sub	r5, r22
      aa:	5b 1a       	sub	r5, r27
      ac:	5d 1a       	sub	r5, r29
      ae:	6a 1a       	sub	r6, r26
      b0:	83 1a       	sub	r8, r19
      b2:	7e 1d       	adc	r23, r14
      b4:	ee 1d       	adc	r30, r14
      b6:	64 1e       	adc	r6, r20
      b8:	b6 1e       	adc	r11, r22
      ba:	f1 1e       	adc	r15, r17
      bc:	31 1f       	adc	r19, r17
      be:	78 1f       	adc	r23, r24
      c0:	0d 20       	and	r0, r13
      c2:	9c 20       	and	r9, r12
      c4:	7a 1d       	adc	r23, r10
      c6:	86 21       	and	r24, r6

000000c8 <__c.2033>:
      c8:	57 72 69 74 65 20 65 72 72 6f 72 0d 0a 00           Write error...

000000d6 <__c.2028>:
      d6:	42 20 25 64 00                                      B %d.

000000db <__c.2020>:
      db:	42 75 66 66 65 72 20 66 75 6c 6c 20 65 72 72 6f     Buffer full erro
      eb:	72 0a 00                                            r..

000000ee <__c.2006>:
      ee:	72 63 3d 25 64 0a 00                                rc=%d..

000000f5 <__c.2004>:
      f5:	4f 70 65 6e 69 6e 67 20 66 69 6c 65 20 68 65 6a     Opening file hej
     105:	0a 00                                               ..

00000107 <__c.2002>:
     107:	72 63 3d 25 64 0a 00                                rc=%d..

0000010e <__c.2000>:
     10e:	49 6e 69 74 69 61 6c 69 7a 65 20 6c 6f 67 69 63     Initialize logic
     11e:	61 6c 20 64 72 69 63 65 20 30 0a 00                 al drice 0..

0000012a <__c.1998>:
     12a:	72 63 3d 25 64 0a 00                                rc=%d..

00000131 <__c.1996>:
     131:	49 6e 69 74 69 61 6c 69 7a 65 20 64 69 73 6b 20     Initialize disk 
     141:	30 0a 00                                            0..

00000144 <__c.1994>:
     144:	53 79 73 74 65 6d 20 73 74 61 72 74 65 74 0a 00     System startet..

00000154 <__ctors_end>:
     154:	11 24       	eor	r1, r1
     156:	1f be       	out	0x3f, r1	; 63
     158:	cf ef       	ldi	r28, 0xFF	; 255
     15a:	d0 e1       	ldi	r29, 0x10	; 16
     15c:	de bf       	out	0x3e, r29	; 62
     15e:	cd bf       	out	0x3d, r28	; 61

00000160 <__do_copy_data>:
     160:	11 e0       	ldi	r17, 0x01	; 1
     162:	a0 e0       	ldi	r26, 0x00	; 0
     164:	b1 e0       	ldi	r27, 0x01	; 1
     166:	e6 e6       	ldi	r30, 0x66	; 102
     168:	f5 e5       	ldi	r31, 0x55	; 85
     16a:	00 e0       	ldi	r16, 0x00	; 0
     16c:	0b bf       	out	0x3b, r16	; 59
     16e:	02 c0       	rjmp	.+4      	; 0x174 <__do_copy_data+0x14>
     170:	07 90       	elpm	r0, Z+
     172:	0d 92       	st	X+, r0
     174:	a2 32       	cpi	r26, 0x22	; 34
     176:	b1 07       	cpc	r27, r17
     178:	d9 f7       	brne	.-10     	; 0x170 <__do_copy_data+0x10>

0000017a <__do_clear_bss>:
     17a:	18 e0       	ldi	r17, 0x08	; 8
     17c:	a2 e2       	ldi	r26, 0x22	; 34
     17e:	b1 e0       	ldi	r27, 0x01	; 1
     180:	01 c0       	rjmp	.+2      	; 0x184 <.do_clear_bss_start>

00000182 <.do_clear_bss_loop>:
     182:	1d 92       	st	X+, r1

00000184 <.do_clear_bss_start>:
     184:	a8 3b       	cpi	r26, 0xB8	; 184
     186:	b1 07       	cpc	r27, r17
     188:	e1 f7       	brne	.-8      	; 0x182 <.do_clear_bss_loop>
     18a:	0e 94 59 01 	call	0x2b2	; 0x2b2 <main>
     18e:	0c 94 b1 2a 	jmp	0x5562	; 0x5562 <_exit>

00000192 <__bad_interrupt>:
     192:	0c 94 00 00 	jmp	0	; 0x0 <__vectors>

00000196 <can>:
}


/* eksempel kode til at vise hvordan end besked modtaget fra can skrives til sdcard */
void can(FIL *file)
{
     196:	a0 e0       	ldi	r26, 0x00	; 0
     198:	b0 e0       	ldi	r27, 0x00	; 0
     19a:	e1 ed       	ldi	r30, 0xD1	; 209
     19c:	f0 e0       	ldi	r31, 0x00	; 0
     19e:	0c 94 56 2a 	jmp	0x54ac	; 0x54ac <__prologue_saves__+0x10>
     1a2:	6c 01       	movw	r12, r24
     1a4:	4e e9       	ldi	r20, 0x9E	; 158
     1a6:	e4 2e       	mov	r14, r20
     1a8:	48 e0       	ldi	r20, 0x08	; 8
     1aa:	f4 2e       	mov	r15, r20
     1ac:	0a e7       	ldi	r16, 0x7A	; 122
     1ae:	18 e0       	ldi	r17, 0x08	; 8
     1b0:	c0 e0       	ldi	r28, 0x00	; 0
     1b2:	d0 e0       	ldi	r29, 0x00	; 0
    char e;

    for (j=0; j<num_of_response_mobs; j++){
        if (can_get_status(&response_msg[j]) == CAN_STATUS_COMPLETED){
            if (bufferindex >= data_buffer_num){
                xprintf(PSTR("Buffer full error\n"));
     1b4:	3b ed       	ldi	r19, 0xDB	; 219
     1b6:	a3 2e       	mov	r10, r19
     1b8:	30 e0       	ldi	r19, 0x00	; 0
     1ba:	b3 2e       	mov	r11, r19
{
    U8 i,j;
    char e;

    for (j=0; j<num_of_response_mobs; j++){
        if (can_get_status(&response_msg[j]) == CAN_STATUS_COMPLETED){
     1bc:	c7 01       	movw	r24, r14
     1be:	0e 94 a0 1c 	call	0x3940	; 0x3940 <can_get_status>
     1c2:	88 23       	and	r24, r24
     1c4:	69 f5       	brne	.+90     	; 0x220 <can+0x8a>
            if (bufferindex >= data_buffer_num){
     1c6:	90 91 2a 01 	lds	r25, 0x012A
     1ca:	92 30       	cpi	r25, 0x02	; 2
     1cc:	60 f0       	brcs	.+24     	; 0x1e6 <can+0x50>
                xprintf(PSTR("Buffer full error\n"));
     1ce:	00 d0       	rcall	.+0      	; 0x1d0 <can+0x3a>
     1d0:	ad b7       	in	r26, 0x3d	; 61
     1d2:	be b7       	in	r27, 0x3e	; 62
     1d4:	12 96       	adiw	r26, 0x02	; 2
     1d6:	bc 92       	st	X, r11
     1d8:	ae 92       	st	-X, r10
     1da:	11 97       	sbiw	r26, 0x01	; 1
     1dc:	0e 94 63 24 	call	0x48c6	; 0x48c6 <xprintf>
     1e0:	0f 90       	pop	r0
     1e2:	0f 90       	pop	r0
     1e4:	1a c0       	rjmp	.+52     	; 0x21a <can+0x84>
     1e6:	de 01       	movw	r26, r28
     1e8:	23 e0       	ldi	r18, 0x03	; 3
     1ea:	aa 0f       	add	r26, r26
     1ec:	bb 1f       	adc	r27, r27
     1ee:	2a 95       	dec	r18
     1f0:	e1 f7       	brne	.-8      	; 0x1ea <can+0x54>
     1f2:	af 58       	subi	r26, 0x8F	; 143
     1f4:	b7 4f       	sbci	r27, 0xF7	; 247
     1f6:	e9 2f       	mov	r30, r25
     1f8:	f0 e0       	ldi	r31, 0x00	; 0
     1fa:	83 e0       	ldi	r24, 0x03	; 3
     1fc:	ee 0f       	add	r30, r30
     1fe:	ff 1f       	adc	r31, r31
     200:	8a 95       	dec	r24
     202:	e1 f7       	brne	.-8      	; 0x1fc <can+0x66>
     204:	e2 57       	subi	r30, 0x72	; 114
     206:	f7 4f       	sbci	r31, 0xF7	; 247
            } else {
                for (i=0; i<9; i++) {
                        databuffer[bufferindex][i] = response_buffer[j][i];
     208:	8c 91       	ld	r24, X
     20a:	81 93       	st	Z+, r24
                        response_buffer[j][i] = 0;
     20c:	1d 92       	st	X+, r1
    for (j=0; j<num_of_response_mobs; j++){
        if (can_get_status(&response_msg[j]) == CAN_STATUS_COMPLETED){
            if (bufferindex >= data_buffer_num){
                xprintf(PSTR("Buffer full error\n"));
            } else {
                for (i=0; i<9; i++) {
     20e:	a0 17       	cp	r26, r16
     210:	b1 07       	cpc	r27, r17
     212:	d1 f7       	brne	.-12     	; 0x208 <can+0x72>
                        databuffer[bufferindex][i] = response_buffer[j][i];
                        response_buffer[j][i] = 0;
                }
                bufferindex++;
     214:	9f 5f       	subi	r25, 0xFF	; 255
     216:	90 93 2a 01 	sts	0x012A, r25
            }
            can_data_mob_setup(i);
     21a:	89 e0       	ldi	r24, 0x09	; 9
     21c:	0e 94 65 22 	call	0x44ca	; 0x44ca <can_data_mob_setup>
     220:	21 96       	adiw	r28, 0x01	; 1
     222:	ed e0       	ldi	r30, 0x0D	; 13
     224:	f0 e0       	ldi	r31, 0x00	; 0
     226:	ee 0e       	add	r14, r30
     228:	ff 1e       	adc	r15, r31
     22a:	08 5f       	subi	r16, 0xF8	; 248
     22c:	1f 4f       	sbci	r17, 0xFF	; 255
void can(FIL *file)
{
    U8 i,j;
    char e;

    for (j=0; j<num_of_response_mobs; j++){
     22e:	c2 30       	cpi	r28, 0x02	; 2
     230:	d1 05       	cpc	r29, r1
     232:	21 f6       	brne	.-120    	; 0x1bc <can+0x26>
     234:	10 e0       	ldi	r17, 0x00	; 0
            can_data_mob_setup(i);
        }
    }

    for (i=0; i<bufferindex; i++) {         
        xprintf(PSTR("B %d"), i); 
     236:	c6 ed       	ldi	r28, 0xD6	; 214
     238:	d0 e0       	ldi	r29, 0x00	; 0
     23a:	14 c0       	rjmp	.+40     	; 0x264 <can+0xce>
     23c:	00 d0       	rcall	.+0      	; 0x23e <can+0xa8>
     23e:	00 d0       	rcall	.+0      	; 0x240 <can+0xaa>
     240:	ed b7       	in	r30, 0x3d	; 61
     242:	fe b7       	in	r31, 0x3e	; 62
     244:	31 96       	adiw	r30, 0x01	; 1
     246:	ad b7       	in	r26, 0x3d	; 61
     248:	be b7       	in	r27, 0x3e	; 62
     24a:	12 96       	adiw	r26, 0x02	; 2
     24c:	dc 93       	st	X, r29
     24e:	ce 93       	st	-X, r28
     250:	11 97       	sbiw	r26, 0x01	; 1
     252:	12 83       	std	Z+2, r17	; 0x02
     254:	13 82       	std	Z+3, r1	; 0x03
     256:	0e 94 63 24 	call	0x48c6	; 0x48c6 <xprintf>
            }
            can_data_mob_setup(i);
        }
    }

    for (i=0; i<bufferindex; i++) {         
     25a:	1f 5f       	subi	r17, 0xFF	; 255
     25c:	0f 90       	pop	r0
     25e:	0f 90       	pop	r0
     260:	0f 90       	pop	r0
     262:	0f 90       	pop	r0
     264:	80 91 2a 01 	lds	r24, 0x012A
     268:	18 17       	cp	r17, r24
     26a:	40 f3       	brcs	.-48     	; 0x23c <can+0xa6>
        xprintf(PSTR(", Data6: %03d"), databuffer[i][5]);
	    xprintf(PSTR(", Data7: %03d"), databuffer[i][6]);                
    	xprintf(PSTR(", Data8: %03d"), databuffer[i][7]);
	    xprintf(PSTR("\r\n"));*/
    }
    if (f_write(file, databuffer, 9*bufferindex, e) != 0)
     26c:	49 e0       	ldi	r20, 0x09	; 9
     26e:	84 9f       	mul	r24, r20
     270:	a0 01       	movw	r20, r0
     272:	11 24       	eor	r1, r1
     274:	c6 01       	movw	r24, r12
     276:	6e e8       	ldi	r22, 0x8E	; 142
     278:	78 e0       	ldi	r23, 0x08	; 8
     27a:	20 e0       	ldi	r18, 0x00	; 0
     27c:	30 e0       	ldi	r19, 0x00	; 0
     27e:	0e 94 28 0d 	call	0x1a50	; 0x1a50 <f_write>
     282:	89 2b       	or	r24, r25
     284:	59 f0       	breq	.+22     	; 0x29c <can+0x106>
            xprintf(PSTR("Write error\r\n"));
     286:	00 d0       	rcall	.+0      	; 0x288 <can+0xf2>
     288:	88 ec       	ldi	r24, 0xC8	; 200
     28a:	90 e0       	ldi	r25, 0x00	; 0
     28c:	ed b7       	in	r30, 0x3d	; 61
     28e:	fe b7       	in	r31, 0x3e	; 62
     290:	92 83       	std	Z+2, r25	; 0x02
     292:	81 83       	std	Z+1, r24	; 0x01
     294:	0e 94 63 24 	call	0x48c6	; 0x48c6 <xprintf>
     298:	0f 90       	pop	r0
     29a:	0f 90       	pop	r0
    milliseconds can be achieved.
 */
void
_delay_loop_2(uint16_t __count)
{
	__asm__ volatile (
     29c:	8c e5       	ldi	r24, 0x5C	; 92
     29e:	92 e1       	ldi	r25, 0x12	; 18
     2a0:	01 97       	sbiw	r24, 0x01	; 1
     2a2:	f1 f7       	brne	.-4      	; 0x2a0 <can+0x10a>
    _delay_us(1700);
    bufferindex = 0;
     2a4:	10 92 2a 01 	sts	0x012A, r1
}
     2a8:	cd b7       	in	r28, 0x3d	; 61
     2aa:	de b7       	in	r29, 0x3e	; 62
     2ac:	ea e0       	ldi	r30, 0x0A	; 10
     2ae:	0c 94 72 2a 	jmp	0x54e4	; 0x54e4 <__epilogue_restores__+0x10>

000002b2 <main>:
}

/*-----------------------------------------------------------------------*/
/* Main                                                                  */
int main (void)
{
     2b2:	a0 e2       	ldi	r26, 0x20	; 32
     2b4:	b0 e0       	ldi	r27, 0x00	; 0
     2b6:	ef e5       	ldi	r30, 0x5F	; 95
     2b8:	f1 e0       	ldi	r31, 0x01	; 1
     2ba:	0c 94 5e 2a 	jmp	0x54bc	; 0x54bc <__prologue_saves__+0x20>
//	OCR2A = 90-1;      // Timer2: 100Hz interval (OC2)
//	TCCR2A = 0b00001101;
//	TIMSK2 = 0b00000010;   // Enable TC2.oc interrupt

	/* Timer 0 bruges til at sende data req til ECU */
	OCR0A = 100;			// Sæt start værdi
     2be:	84 e6       	ldi	r24, 0x64	; 100
     2c0:	87 bd       	out	0x27, r24	; 39
	TCCR0A |= 1<<CS02 | 1<<CS00;    // prescaler til 1024
     2c2:	84 b5       	in	r24, 0x24	; 36
     2c4:	85 60       	ori	r24, 0x05	; 5
     2c6:	84 bd       	out	0x24, r24	; 36
	TIMSK0 |= 1<<OCIE0A; 		// Slår timer compare match interrupt til
     2c8:	80 91 6e 00 	lds	r24, 0x006E
     2cc:	82 60       	ori	r24, 0x02	; 2
     2ce:	80 93 6e 00 	sts	0x006E, r24

	rtc_init();         // Initialize RTC
     2d2:	0e 94 d0 1a 	call	0x35a0	; 0x35a0 <rtc_init>
	can_init(0);
     2d6:	80 e0       	ldi	r24, 0x00	; 0
     2d8:	0e 94 36 22 	call	0x446c	; 0x446c <can_init>
	uart_init();
     2dc:	0e 94 14 03 	call	0x628	; 0x628 <uart_init>
	FATFS *fs;
	FIL file1;			/* File object */
	IoInit();

	/* Join xitoa module to uart module */
	xfunc_out = (void (*)(char))uart_put;
     2e0:	83 e4       	ldi	r24, 0x43	; 67
     2e2:	93 e0       	ldi	r25, 0x03	; 3
     2e4:	90 93 32 01 	sts	0x0132, r25
     2e8:	80 93 31 01 	sts	0x0131, r24


	xprintf(PSTR("System startet\n"));
     2ec:	00 d0       	rcall	.+0      	; 0x2ee <main+0x3c>
     2ee:	84 e4       	ldi	r24, 0x44	; 68
     2f0:	91 e0       	ldi	r25, 0x01	; 1
     2f2:	ad b7       	in	r26, 0x3d	; 61
     2f4:	be b7       	in	r27, 0x3e	; 62
     2f6:	12 96       	adiw	r26, 0x02	; 2
     2f8:	9c 93       	st	X, r25
     2fa:	8e 93       	st	-X, r24
     2fc:	11 97       	sbiw	r26, 0x01	; 1
     2fe:	0e 94 63 24 	call	0x48c6	; 0x48c6 <xprintf>
	xprintf(PSTR("Initialize disk 0\n"));    
     302:	81 e3       	ldi	r24, 0x31	; 49
     304:	91 e0       	ldi	r25, 0x01	; 1
     306:	ed b7       	in	r30, 0x3d	; 61
     308:	fe b7       	in	r31, 0x3e	; 62
     30a:	92 83       	std	Z+2, r25	; 0x02
     30c:	81 83       	std	Z+1, r24	; 0x01
     30e:	0e 94 63 24 	call	0x48c6	; 0x48c6 <xprintf>
	xprintf(PSTR("rc=%d\n"), (WORD)disk_initialize(0));
     312:	0f 90       	pop	r0
     314:	0f 90       	pop	r0
     316:	80 e0       	ldi	r24, 0x00	; 0
     318:	0e 94 71 17 	call	0x2ee2	; 0x2ee2 <disk_initialize>
     31c:	00 d0       	rcall	.+0      	; 0x31e <main+0x6c>
     31e:	00 d0       	rcall	.+0      	; 0x320 <main+0x6e>
     320:	ed b7       	in	r30, 0x3d	; 61
     322:	fe b7       	in	r31, 0x3e	; 62
     324:	31 96       	adiw	r30, 0x01	; 1
     326:	2a e2       	ldi	r18, 0x2A	; 42
     328:	31 e0       	ldi	r19, 0x01	; 1
     32a:	ad b7       	in	r26, 0x3d	; 61
     32c:	be b7       	in	r27, 0x3e	; 62
     32e:	12 96       	adiw	r26, 0x02	; 2
     330:	3c 93       	st	X, r19
     332:	2e 93       	st	-X, r18
     334:	11 97       	sbiw	r26, 0x01	; 1
     336:	82 83       	std	Z+2, r24	; 0x02
     338:	13 82       	std	Z+3, r1	; 0x03
     33a:	0e 94 63 24 	call	0x48c6	; 0x48c6 <xprintf>
	xprintf(PSTR("Initialize logical drice 0\n"));
     33e:	0f 90       	pop	r0
     340:	0f 90       	pop	r0
     342:	8e e0       	ldi	r24, 0x0E	; 14
     344:	91 e0       	ldi	r25, 0x01	; 1
     346:	ed b7       	in	r30, 0x3d	; 61
     348:	fe b7       	in	r31, 0x3e	; 62
     34a:	92 83       	std	Z+2, r25	; 0x02
     34c:	81 83       	std	Z+1, r24	; 0x01
     34e:	0e 94 63 24 	call	0x48c6	; 0x48c6 <xprintf>
	xprintf(PSTR("rc=%d\n"), (WORD)f_mount(0, &Fatfs[0]));	
     352:	0f 90       	pop	r0
     354:	0f 90       	pop	r0
     356:	80 e0       	ldi	r24, 0x00	; 0
     358:	63 e3       	ldi	r22, 0x33	; 51
     35a:	71 e0       	ldi	r23, 0x01	; 1
     35c:	0e 94 a8 03 	call	0x750	; 0x750 <f_mount>
     360:	00 d0       	rcall	.+0      	; 0x362 <main+0xb0>
     362:	00 d0       	rcall	.+0      	; 0x364 <main+0xb2>
     364:	27 e0       	ldi	r18, 0x07	; 7
     366:	31 e0       	ldi	r19, 0x01	; 1
     368:	ad b7       	in	r26, 0x3d	; 61
     36a:	be b7       	in	r27, 0x3e	; 62
     36c:	12 96       	adiw	r26, 0x02	; 2
     36e:	3c 93       	st	X, r19
     370:	2e 93       	st	-X, r18
     372:	11 97       	sbiw	r26, 0x01	; 1
     374:	14 96       	adiw	r26, 0x04	; 4
     376:	9c 93       	st	X, r25
     378:	8e 93       	st	-X, r24
     37a:	13 97       	sbiw	r26, 0x03	; 3
     37c:	0e 94 63 24 	call	0x48c6	; 0x48c6 <xprintf>
	xprintf(PSTR("Opening file hej\n"));
     380:	0f 90       	pop	r0
     382:	0f 90       	pop	r0
     384:	85 ef       	ldi	r24, 0xF5	; 245
     386:	90 e0       	ldi	r25, 0x00	; 0
     388:	ed b7       	in	r30, 0x3d	; 61
     38a:	fe b7       	in	r31, 0x3e	; 62
     38c:	92 83       	std	Z+2, r25	; 0x02
     38e:	81 83       	std	Z+1, r24	; 0x01
     390:	0e 94 63 24 	call	0x48c6	; 0x48c6 <xprintf>
	xprintf(PSTR("rc=%d\n"), (WORD)f_open(&file1, "hej",FA_WRITE)); 
     394:	0f 90       	pop	r0
     396:	0f 90       	pop	r0
     398:	ce 01       	movw	r24, r28
     39a:	01 96       	adiw	r24, 0x01	; 1
     39c:	60 e0       	ldi	r22, 0x00	; 0
     39e:	71 e0       	ldi	r23, 0x01	; 1
     3a0:	42 e0       	ldi	r20, 0x02	; 2
     3a2:	0e 94 6d 14 	call	0x28da	; 0x28da <f_open>
     3a6:	00 d0       	rcall	.+0      	; 0x3a8 <main+0xf6>
     3a8:	00 d0       	rcall	.+0      	; 0x3aa <main+0xf8>
     3aa:	2e ee       	ldi	r18, 0xEE	; 238
     3ac:	30 e0       	ldi	r19, 0x00	; 0
     3ae:	ad b7       	in	r26, 0x3d	; 61
     3b0:	be b7       	in	r27, 0x3e	; 62
     3b2:	12 96       	adiw	r26, 0x02	; 2
     3b4:	3c 93       	st	X, r19
     3b6:	2e 93       	st	-X, r18
     3b8:	11 97       	sbiw	r26, 0x01	; 1
     3ba:	14 96       	adiw	r26, 0x04	; 4
     3bc:	9c 93       	st	X, r25
     3be:	8e 93       	st	-X, r24
     3c0:	13 97       	sbiw	r26, 0x03	; 3
     3c2:	0e 94 63 24 	call	0x48c6	; 0x48c6 <xprintf>
     3c6:	20 e1       	ldi	r18, 0x10	; 16
     3c8:	37 e2       	ldi	r19, 0x27	; 39
     3ca:	0f 90       	pop	r0
     3cc:	0f 90       	pop	r0
     3ce:	0f 90       	pop	r0
     3d0:	0f 90       	pop	r0
     3d2:	44 e1       	ldi	r20, 0x14	; 20
     3d4:	51 e0       	ldi	r21, 0x01	; 1
     3d6:	ca 01       	movw	r24, r20
     3d8:	01 97       	sbiw	r24, 0x01	; 1
     3da:	f1 f7       	brne	.-4      	; 0x3d8 <main+0x126>
		__ticks = (uint16_t) (__ms * 10.0);
		while(__ticks)
		{
			// wait 1/10 ms
			_delay_loop_2(((F_CPU) / 4e3) / 10);
			__ticks --;
     3dc:	21 50       	subi	r18, 0x01	; 1
     3de:	30 40       	sbci	r19, 0x00	; 0
		__ticks = 1;
	else if (__tmp > 65535)
	{
		//	__ticks = requested delay in 1/10 ms
		__ticks = (uint16_t) (__ms * 10.0);
		while(__ticks)
     3e0:	d1 f7       	brne	.-12     	; 0x3d6 <main+0x124>

    	_delay_ms(1000);
	sei();
     3e2:	78 94       	sei
     3e4:	84 ef       	ldi	r24, 0xF4	; 244
     3e6:	91 e0       	ldi	r25, 0x01	; 1
     3e8:	24 e1       	ldi	r18, 0x14	; 20
     3ea:	31 e0       	ldi	r19, 0x01	; 1
     3ec:	f9 01       	movw	r30, r18
     3ee:	31 97       	sbiw	r30, 0x01	; 1
     3f0:	f1 f7       	brne	.-4      	; 0x3ee <main+0x13c>
		{
			// wait 1/10 ms
			_delay_loop_2(((F_CPU) / 4e3) / 10);
			__ticks --;
     3f2:	01 97       	sbiw	r24, 0x01	; 1
		__ticks = 1;
	else if (__tmp > 65535)
	{
		//	__ticks = requested delay in 1/10 ms
		__ticks = (uint16_t) (__ms * 10.0);
		while(__ticks)
     3f4:	d9 f7       	brne	.-10     	; 0x3ec <main+0x13a>
     3f6:	84 ef       	ldi	r24, 0xF4	; 244
     3f8:	91 e0       	ldi	r25, 0x01	; 1
     3fa:	f8 cf       	rjmp	.-16     	; 0x3ec <main+0x13a>

000003fc <get_fattime>:
/* FatFs module. Any valid time must be returned even if   */
/* the system does not support a real time clock.          */
/* This is not required in read-only configuration.        */

DWORD get_fattime ()
{
     3fc:	a8 e0       	ldi	r26, 0x08	; 8
     3fe:	b0 e0       	ldi	r27, 0x00	; 0
     400:	e4 e0       	ldi	r30, 0x04	; 4
     402:	f2 e0       	ldi	r31, 0x02	; 2
     404:	0c 94 5e 2a 	jmp	0x54bc	; 0x54bc <__prologue_saves__+0x20>
	RTC rtc;

	/* Get local time */
	rtc_gettime(&rtc);
     408:	ce 01       	movw	r24, r28
     40a:	01 96       	adiw	r24, 0x01	; 1
     40c:	0e 94 bb 1a 	call	0x3576	; 0x3576 <rtc_gettime>
     410:	2c 81       	ldd	r18, Y+4	; 0x04
     412:	30 e0       	ldi	r19, 0x00	; 0
     414:	40 e0       	ldi	r20, 0x00	; 0
     416:	50 e0       	ldi	r21, 0x00	; 0
     418:	a9 01       	movw	r20, r18
     41a:	33 27       	eor	r19, r19
     41c:	22 27       	eor	r18, r18
     41e:	8b 81       	ldd	r24, Y+3	; 0x03
     420:	90 e0       	ldi	r25, 0x00	; 0
     422:	a0 e0       	ldi	r26, 0x00	; 0
     424:	b0 e0       	ldi	r27, 0x00	; 0
     426:	f5 e1       	ldi	r31, 0x15	; 21
     428:	88 0f       	add	r24, r24
     42a:	99 1f       	adc	r25, r25
     42c:	aa 1f       	adc	r26, r26
     42e:	bb 1f       	adc	r27, r27
     430:	fa 95       	dec	r31
     432:	d1 f7       	brne	.-12     	; 0x428 <get_fattime+0x2c>
     434:	28 2b       	or	r18, r24
     436:	39 2b       	or	r19, r25
     438:	4a 2b       	or	r20, r26
     43a:	5b 2b       	or	r21, r27
     43c:	8e 81       	ldd	r24, Y+6	; 0x06
     43e:	90 e0       	ldi	r25, 0x00	; 0
     440:	a0 e0       	ldi	r26, 0x00	; 0
     442:	b0 e0       	ldi	r27, 0x00	; 0
     444:	eb e0       	ldi	r30, 0x0B	; 11
     446:	88 0f       	add	r24, r24
     448:	99 1f       	adc	r25, r25
     44a:	aa 1f       	adc	r26, r26
     44c:	bb 1f       	adc	r27, r27
     44e:	ea 95       	dec	r30
     450:	d1 f7       	brne	.-12     	; 0x446 <get_fattime+0x4a>
     452:	28 2b       	or	r18, r24
     454:	39 2b       	or	r19, r25
     456:	4a 2b       	or	r20, r26
     458:	5b 2b       	or	r21, r27
     45a:	8f 81       	ldd	r24, Y+7	; 0x07
     45c:	90 e0       	ldi	r25, 0x00	; 0
     45e:	a0 e0       	ldi	r26, 0x00	; 0
     460:	b0 e0       	ldi	r27, 0x00	; 0
     462:	75 e0       	ldi	r23, 0x05	; 5
     464:	88 0f       	add	r24, r24
     466:	99 1f       	adc	r25, r25
     468:	aa 1f       	adc	r26, r26
     46a:	bb 1f       	adc	r27, r27
     46c:	7a 95       	dec	r23
     46e:	d1 f7       	brne	.-12     	; 0x464 <get_fattime+0x68>
     470:	28 2b       	or	r18, r24
     472:	39 2b       	or	r19, r25
     474:	4a 2b       	or	r20, r26
     476:	5b 2b       	or	r21, r27
     478:	88 85       	ldd	r24, Y+8	; 0x08
     47a:	86 95       	lsr	r24
     47c:	90 e0       	ldi	r25, 0x00	; 0
     47e:	a0 e0       	ldi	r26, 0x00	; 0
     480:	b0 e0       	ldi	r27, 0x00	; 0
     482:	28 2b       	or	r18, r24
     484:	39 2b       	or	r19, r25
     486:	4a 2b       	or	r20, r26
     488:	5b 2b       	or	r21, r27
     48a:	89 81       	ldd	r24, Y+1	; 0x01
     48c:	9a 81       	ldd	r25, Y+2	; 0x02
     48e:	8c 5b       	subi	r24, 0xBC	; 188
     490:	97 40       	sbci	r25, 0x07	; 7
     492:	a0 e0       	ldi	r26, 0x00	; 0
     494:	b0 e0       	ldi	r27, 0x00	; 0
     496:	69 e1       	ldi	r22, 0x19	; 25
     498:	88 0f       	add	r24, r24
     49a:	99 1f       	adc	r25, r25
     49c:	aa 1f       	adc	r26, r26
     49e:	bb 1f       	adc	r27, r27
     4a0:	6a 95       	dec	r22
     4a2:	d1 f7       	brne	.-12     	; 0x498 <get_fattime+0x9c>
     4a4:	28 2b       	or	r18, r24
     4a6:	39 2b       	or	r19, r25
     4a8:	4a 2b       	or	r20, r26
     4aa:	5b 2b       	or	r21, r27
			| ((DWORD)rtc.month << 21)
			| ((DWORD)rtc.mday << 16)
			| ((DWORD)rtc.hour << 11)
			| ((DWORD)rtc.min << 5)
			| ((DWORD)rtc.sec >> 1);
}
     4ac:	b9 01       	movw	r22, r18
     4ae:	ca 01       	movw	r24, r20
     4b0:	28 96       	adiw	r28, 0x08	; 8
     4b2:	e2 e0       	ldi	r30, 0x02	; 2
     4b4:	0c 94 7a 2a 	jmp	0x54f4	; 0x54f4 <__epilogue_restores__+0x20>

000004b8 <__vector_9>:
/*---------------------------------------------------------*/
/* 100Hz timer interrupt generated by OC2                  */
/*---------------------------------------------------------*/

ISR(TIMER2_COMP_vect)
{
     4b8:	1f 92       	push	r1
     4ba:	0f 92       	push	r0
     4bc:	0f b6       	in	r0, 0x3f	; 63
     4be:	0f 92       	push	r0
     4c0:	0b b6       	in	r0, 0x3b	; 59
     4c2:	0f 92       	push	r0
     4c4:	11 24       	eor	r1, r1
     4c6:	2f 93       	push	r18
     4c8:	3f 93       	push	r19
     4ca:	4f 93       	push	r20
     4cc:	5f 93       	push	r21
     4ce:	6f 93       	push	r22
     4d0:	7f 93       	push	r23
     4d2:	8f 93       	push	r24
     4d4:	9f 93       	push	r25
     4d6:	af 93       	push	r26
     4d8:	bf 93       	push	r27
     4da:	ef 93       	push	r30
     4dc:	ff 93       	push	r31
	Timer++;			/* Performance counter for this module */
     4de:	80 91 7f 03 	lds	r24, 0x037F
     4e2:	90 91 80 03 	lds	r25, 0x0380
     4e6:	01 96       	adiw	r24, 0x01	; 1
     4e8:	90 93 80 03 	sts	0x0380, r25
     4ec:	80 93 7f 03 	sts	0x037F, r24
	disk_timerproc();	/* Drive timer procedure of low level disk I/O module */
     4f0:	0e 94 ac 1a 	call	0x3558	; 0x3558 <disk_timerproc>
}
     4f4:	ff 91       	pop	r31
     4f6:	ef 91       	pop	r30
     4f8:	bf 91       	pop	r27
     4fa:	af 91       	pop	r26
     4fc:	9f 91       	pop	r25
     4fe:	8f 91       	pop	r24
     500:	7f 91       	pop	r23
     502:	6f 91       	pop	r22
     504:	5f 91       	pop	r21
     506:	4f 91       	pop	r20
     508:	3f 91       	pop	r19
     50a:	2f 91       	pop	r18
     50c:	0f 90       	pop	r0
     50e:	0b be       	out	0x3b, r0	; 59
     510:	0f 90       	pop	r0
     512:	0f be       	out	0x3f, r0	; 63
     514:	0f 90       	pop	r0
     516:	1f 90       	pop	r1
     518:	18 95       	reti

0000051a <USART0_Transmit>:
#include <avr/interrupt.h>
#include "config.h"
#include "uart.h"

void USART0_Transmit( unsigned char txData )
{
     51a:	98 2f       	mov	r25, r24
   /* Wait for empty transmit buffer */
   while ( !( UCSR0A & (1<<UDRE0)) );
     51c:	80 91 c0 00 	lds	r24, 0x00C0
     520:	85 ff       	sbrs	r24, 5
     522:	fc cf       	rjmp	.-8      	; 0x51c <USART0_Transmit+0x2>
   /* Put data into buffer, sends the data */
   UDR0 = txData;
     524:	90 93 c6 00 	sts	0x00C6, r25
}
     528:	08 95       	ret

0000052a <USART1_Transmit>:

void USART1_Transmit( unsigned char txData )
{
     52a:	98 2f       	mov	r25, r24
   /* Wait for empty transmit buffer */
   while ( !( UCSR1A & (1<<UDRE1)) );
     52c:	80 91 c8 00 	lds	r24, 0x00C8
     530:	85 ff       	sbrs	r24, 5
     532:	fc cf       	rjmp	.-8      	; 0x52c <USART1_Transmit+0x2>
   /* Put data into buffer, sends the data */
   UDR1 = txData;
     534:	90 93 ce 00 	sts	0x00CE, r25
}
     538:	08 95       	ret

0000053a <USART_set_baud_rate>:

void USART_set_baud_rate(double baudrate0, double baudrate1)
{
     53a:	6f 92       	push	r6
     53c:	7f 92       	push	r7
     53e:	8f 92       	push	r8
     540:	9f 92       	push	r9
     542:	af 92       	push	r10
     544:	bf 92       	push	r11
     546:	cf 92       	push	r12
     548:	df 92       	push	r13
     54a:	ef 92       	push	r14
     54c:	ff 92       	push	r15
     54e:	0f 93       	push	r16
     550:	1f 93       	push	r17
     552:	5b 01       	movw	r10, r22
     554:	6c 01       	movw	r12, r24
     556:	39 01       	movw	r6, r18
     558:	4a 01       	movw	r8, r20
   // calculate division factor for requested baud rate, and set it
   int bauddiv0 = ((F_CPU+(baudrate0*8L))/(baudrate0*16L)-1);
     55a:	20 e0       	ldi	r18, 0x00	; 0
     55c:	30 e0       	ldi	r19, 0x00	; 0
     55e:	40 e0       	ldi	r20, 0x00	; 0
     560:	51 e4       	ldi	r21, 0x41	; 65
     562:	0e 94 c6 26 	call	0x4d8c	; 0x4d8c <__mulsf3>
     566:	20 e0       	ldi	r18, 0x00	; 0
     568:	30 ec       	ldi	r19, 0xC0	; 192
     56a:	48 e2       	ldi	r20, 0x28	; 40
     56c:	5b e4       	ldi	r21, 0x4B	; 75
     56e:	0e 94 99 26 	call	0x4d32	; 0x4d32 <__addsf3>
     572:	7b 01       	movw	r14, r22
     574:	8c 01       	movw	r16, r24
     576:	c6 01       	movw	r24, r12
     578:	b5 01       	movw	r22, r10
     57a:	20 e0       	ldi	r18, 0x00	; 0
     57c:	30 e0       	ldi	r19, 0x00	; 0
     57e:	40 e8       	ldi	r20, 0x80	; 128
     580:	51 e4       	ldi	r21, 0x41	; 65
     582:	0e 94 c6 26 	call	0x4d8c	; 0x4d8c <__mulsf3>
     586:	9b 01       	movw	r18, r22
     588:	ac 01       	movw	r20, r24
     58a:	c8 01       	movw	r24, r16
     58c:	b7 01       	movw	r22, r14
     58e:	0e 94 c0 27 	call	0x4f80	; 0x4f80 <__divsf3>
     592:	20 e0       	ldi	r18, 0x00	; 0
     594:	30 e0       	ldi	r19, 0x00	; 0
     596:	40 e8       	ldi	r20, 0x80	; 128
     598:	5f e3       	ldi	r21, 0x3F	; 63
     59a:	0e 94 68 26 	call	0x4cd0	; 0x4cd0 <__subsf3>
     59e:	0e 94 6c 28 	call	0x50d8	; 0x50d8 <__fixsfsi>
     5a2:	7b 01       	movw	r14, r22
     5a4:	8c 01       	movw	r16, r24
   int bauddiv1 = ((F_CPU+(baudrate1*8L))/(baudrate1*16L)-1);
     5a6:	c4 01       	movw	r24, r8
     5a8:	b3 01       	movw	r22, r6
     5aa:	20 e0       	ldi	r18, 0x00	; 0
     5ac:	30 e0       	ldi	r19, 0x00	; 0
     5ae:	40 e0       	ldi	r20, 0x00	; 0
     5b0:	51 e4       	ldi	r21, 0x41	; 65
     5b2:	0e 94 c6 26 	call	0x4d8c	; 0x4d8c <__mulsf3>
     5b6:	20 e0       	ldi	r18, 0x00	; 0
     5b8:	30 ec       	ldi	r19, 0xC0	; 192
     5ba:	48 e2       	ldi	r20, 0x28	; 40
     5bc:	5b e4       	ldi	r21, 0x4B	; 75
     5be:	0e 94 99 26 	call	0x4d32	; 0x4d32 <__addsf3>
     5c2:	5b 01       	movw	r10, r22
     5c4:	6c 01       	movw	r12, r24
     5c6:	c4 01       	movw	r24, r8
     5c8:	b3 01       	movw	r22, r6
     5ca:	20 e0       	ldi	r18, 0x00	; 0
     5cc:	30 e0       	ldi	r19, 0x00	; 0
     5ce:	40 e8       	ldi	r20, 0x80	; 128
     5d0:	51 e4       	ldi	r21, 0x41	; 65
     5d2:	0e 94 c6 26 	call	0x4d8c	; 0x4d8c <__mulsf3>
     5d6:	9b 01       	movw	r18, r22
     5d8:	ac 01       	movw	r20, r24
     5da:	c6 01       	movw	r24, r12
     5dc:	b5 01       	movw	r22, r10
     5de:	0e 94 c0 27 	call	0x4f80	; 0x4f80 <__divsf3>
     5e2:	20 e0       	ldi	r18, 0x00	; 0
     5e4:	30 e0       	ldi	r19, 0x00	; 0
     5e6:	40 e8       	ldi	r20, 0x80	; 128
     5e8:	5f e3       	ldi	r21, 0x3F	; 63
     5ea:	0e 94 68 26 	call	0x4cd0	; 0x4cd0 <__subsf3>
     5ee:	0e 94 6c 28 	call	0x50d8	; 0x50d8 <__fixsfsi>
   UBRR0L= bauddiv0;
     5f2:	e0 92 c4 00 	sts	0x00C4, r14
#ifdef UBRR0H
   UBRR0H= (bauddiv0>>8);
     5f6:	ef 2c       	mov	r14, r15
     5f8:	ff 0c       	add	r15, r15
     5fa:	ff 08       	sbc	r15, r15
     5fc:	e0 92 c5 00 	sts	0x00C5, r14
#endif

   UBRR1L= bauddiv1;
     600:	60 93 cc 00 	sts	0x00CC, r22
#ifdef UBRR1H
   UBRR1H= (bauddiv1>>8);
     604:	67 2f       	mov	r22, r23
     606:	77 0f       	add	r23, r23
     608:	77 0b       	sbc	r23, r23
     60a:	60 93 cd 00 	sts	0x00CD, r22
#endif
}
     60e:	1f 91       	pop	r17
     610:	0f 91       	pop	r16
     612:	ff 90       	pop	r15
     614:	ef 90       	pop	r14
     616:	df 90       	pop	r13
     618:	cf 90       	pop	r12
     61a:	bf 90       	pop	r11
     61c:	af 90       	pop	r10
     61e:	9f 90       	pop	r9
     620:	8f 90       	pop	r8
     622:	7f 90       	pop	r7
     624:	6f 90       	pop	r6
     626:	08 95       	ret

00000628 <uart_init>:

/* Initialize UART */
void uart_init()
{
	UCSR0B = (1<<RXEN0)|(1<<TXEN0) | (1<<RXCIE0);  // Turn on U(S)ART port og sæt rec interrupt
     628:	88 e9       	ldi	r24, 0x98	; 152
     62a:	80 93 c1 00 	sts	0x00C1, r24
	UCSR0C = (1<<UCSZ01)|(1<<UCSZ00);   // Set frame format: 8 data bits, 1 stop bit, no parity
     62e:	96 e0       	ldi	r25, 0x06	; 6
     630:	90 93 c2 00 	sts	0x00C2, r25

	UCSR1B = (1<<RXEN0)|(1<<TXEN0);      // Turn on U(S)ART port
     634:	88 e1       	ldi	r24, 0x18	; 24
     636:	80 93 c9 00 	sts	0x00C9, r24
	UCSR1C = (1<<UCSZ01)|(1<<UCSZ00);   // Set frame format: 8 data bits, 1 stop bit, no parity
     63a:	90 93 ca 00 	sts	0x00CA, r25
   
	USART_set_baud_rate(BAUD0, BAUD1); //Set baud rate
     63e:	60 e0       	ldi	r22, 0x00	; 0
     640:	70 e0       	ldi	r23, 0x00	; 0
     642:	86 e9       	ldi	r24, 0x96	; 150
     644:	96 e4       	ldi	r25, 0x46	; 70
     646:	20 e0       	ldi	r18, 0x00	; 0
     648:	30 e0       	ldi	r19, 0x00	; 0
     64a:	41 ee       	ldi	r20, 0xE1	; 225
     64c:	57 e4       	ldi	r21, 0x47	; 71
     64e:	0e 94 9d 02 	call	0x53a	; 0x53a <USART_set_baud_rate>
}
     652:	08 95       	ret

00000654 <uart_get>:

/* Get a received character */
uint8_t uart_get ()
{
   unsigned char d;
   while ((UCSR0A & (1 << RXC0)) == 0) {}; // Do nothing until data have been recieved and is ready to be read from UDR
     654:	80 91 c0 00 	lds	r24, 0x00C0
     658:	87 ff       	sbrs	r24, 7
     65a:	fc cf       	rjmp	.-8      	; 0x654 <uart_get>
   d=UDR0;
     65c:	80 91 c6 00 	lds	r24, 0x00C6
   return d;
}
     660:	08 95       	ret

00000662 <uart_put_test>:

/* Transmit a character */
void uart_put_test( uint8_t device, uint8_t d)
{
	switch (device) {
     662:	88 23       	and	r24, r24
     664:	49 f0       	breq	.+18     	; 0x678 <uart_put_test+0x16>
     666:	81 30       	cpi	r24, 0x01	; 1
     668:	69 f4       	brne	.+26     	; 0x684 <uart_put_test+0x22>
}

void USART1_Transmit( unsigned char txData )
{
   /* Wait for empty transmit buffer */
   while ( !( UCSR1A & (1<<UDRE1)) );
     66a:	80 91 c8 00 	lds	r24, 0x00C8
     66e:	85 ff       	sbrs	r24, 5
     670:	fc cf       	rjmp	.-8      	; 0x66a <uart_put_test+0x8>
   /* Put data into buffer, sends the data */
   UDR1 = txData;
     672:	60 93 ce 00 	sts	0x00CE, r22
     676:	08 95       	ret
#include "uart.h"

void USART0_Transmit( unsigned char txData )
{
   /* Wait for empty transmit buffer */
   while ( !( UCSR0A & (1<<UDRE0)) );
     678:	80 91 c0 00 	lds	r24, 0x00C0
     67c:	85 ff       	sbrs	r24, 5
     67e:	fc cf       	rjmp	.-8      	; 0x678 <uart_put_test+0x16>
   /* Put data into buffer, sends the data */
   UDR0 = txData;
     680:	60 93 c6 00 	sts	0x00C6, r22
     684:	08 95       	ret

00000686 <uart_put>:
	}
}

/* Transmit a character */
void uart_put(uint8_t d)
{
     686:	98 2f       	mov	r25, r24
}

void USART1_Transmit( unsigned char txData )
{
   /* Wait for empty transmit buffer */
   while ( !( UCSR1A & (1<<UDRE1)) );
     688:	80 91 c8 00 	lds	r24, 0x00C8
     68c:	85 ff       	sbrs	r24, 5
     68e:	fc cf       	rjmp	.-8      	; 0x688 <uart_put+0x2>
   /* Put data into buffer, sends the data */
   UDR1 = txData;
     690:	90 93 ce 00 	sts	0x00CE, r25

/* Transmit a character */
void uart_put(uint8_t d)
{
   USART1_Transmit( d );
}
     694:	08 95       	ret

00000696 <uart_puts>:

/* Transmit a string */
void uart_puts(const char *s)
{
     696:	fc 01       	movw	r30, r24
     698:	07 c0       	rjmp	.+14     	; 0x6a8 <uart_puts+0x12>
#include "uart.h"

void USART0_Transmit( unsigned char txData )
{
   /* Wait for empty transmit buffer */
   while ( !( UCSR0A & (1<<UDRE0)) );
     69a:	80 91 c0 00 	lds	r24, 0x00C0
     69e:	85 ff       	sbrs	r24, 5
     6a0:	fc cf       	rjmp	.-8      	; 0x69a <uart_puts+0x4>

/* Transmit a string */
void uart_puts(const char *s)
{
   while (*s)
      USART0_Transmit( *s++ );
     6a2:	31 96       	adiw	r30, 0x01	; 1
void USART0_Transmit( unsigned char txData )
{
   /* Wait for empty transmit buffer */
   while ( !( UCSR0A & (1<<UDRE0)) );
   /* Put data into buffer, sends the data */
   UDR0 = txData;
     6a4:	90 93 c6 00 	sts	0x00C6, r25
}

/* Transmit a string */
void uart_puts(const char *s)
{
   while (*s)
     6a8:	90 81       	ld	r25, Z
     6aa:	99 23       	and	r25, r25
     6ac:	b1 f7       	brne	.-20     	; 0x69a <uart_puts+0x4>
      USART0_Transmit( *s++ );
}
     6ae:	08 95       	ret

000006b0 <uart1_put>:

void uart1_put(uint8_t d)
{
     6b0:	98 2f       	mov	r25, r24
}

void USART1_Transmit( unsigned char txData )
{
   /* Wait for empty transmit buffer */
   while ( !( UCSR1A & (1<<UDRE1)) );
     6b2:	80 91 c8 00 	lds	r24, 0x00C8
     6b6:	85 ff       	sbrs	r24, 5
     6b8:	fc cf       	rjmp	.-8      	; 0x6b2 <uart1_put+0x2>
   /* Put data into buffer, sends the data */
   UDR1 = txData;
     6ba:	90 93 ce 00 	sts	0x00CE, r25
}

void uart1_put(uint8_t d)
{
        USART1_Transmit(d);
}
     6be:	08 95       	ret

000006c0 <uart1_puts>:

void uart1_puts(const char *s)
{
     6c0:	fc 01       	movw	r30, r24
     6c2:	07 c0       	rjmp	.+14     	; 0x6d2 <uart1_puts+0x12>
}

void USART1_Transmit( unsigned char txData )
{
   /* Wait for empty transmit buffer */
   while ( !( UCSR1A & (1<<UDRE1)) );
     6c4:	80 91 c8 00 	lds	r24, 0x00C8
     6c8:	85 ff       	sbrs	r24, 5
     6ca:	fc cf       	rjmp	.-8      	; 0x6c4 <uart1_puts+0x4>
}

void uart1_puts(const char *s)
{
    while (*s)
            USART1_Transmit(*s++);
     6cc:	31 96       	adiw	r30, 0x01	; 1
void USART1_Transmit( unsigned char txData )
{
   /* Wait for empty transmit buffer */
   while ( !( UCSR1A & (1<<UDRE1)) );
   /* Put data into buffer, sends the data */
   UDR1 = txData;
     6ce:	90 93 ce 00 	sts	0x00CE, r25
        USART1_Transmit(d);
}

void uart1_puts(const char *s)
{
    while (*s)
     6d2:	90 81       	ld	r25, Z
     6d4:	99 23       	and	r25, r25
     6d6:	b1 f7       	brne	.-20     	; 0x6c4 <uart1_puts+0x4>
            USART1_Transmit(*s++);
}
     6d8:	08 95       	ret

000006da <clust2sect>:
     6da:	ef 92       	push	r14
     6dc:	ff 92       	push	r15
     6de:	0f 93       	push	r16
     6e0:	1f 93       	push	r17
     6e2:	cf 93       	push	r28
     6e4:	df 93       	push	r29
     6e6:	ec 01       	movw	r28, r24
     6e8:	7a 01       	movw	r14, r20
     6ea:	8b 01       	movw	r16, r22
     6ec:	8e ef       	ldi	r24, 0xFE	; 254
     6ee:	9f ef       	ldi	r25, 0xFF	; 255
     6f0:	af ef       	ldi	r26, 0xFF	; 255
     6f2:	bf ef       	ldi	r27, 0xFF	; 255
     6f4:	e8 0e       	add	r14, r24
     6f6:	f9 1e       	adc	r15, r25
     6f8:	0a 1f       	adc	r16, r26
     6fa:	1b 1f       	adc	r17, r27
     6fc:	8e 8d       	ldd	r24, Y+30	; 0x1e
     6fe:	9f 8d       	ldd	r25, Y+31	; 0x1f
     700:	a8 a1       	ldd	r26, Y+32	; 0x20
     702:	b9 a1       	ldd	r27, Y+33	; 0x21
     704:	02 97       	sbiw	r24, 0x02	; 2
     706:	a1 09       	sbc	r26, r1
     708:	b1 09       	sbc	r27, r1
     70a:	e8 16       	cp	r14, r24
     70c:	f9 06       	cpc	r15, r25
     70e:	0a 07       	cpc	r16, r26
     710:	1b 07       	cpc	r17, r27
     712:	28 f0       	brcs	.+10     	; 0x71e <clust2sect+0x44>
     714:	20 e0       	ldi	r18, 0x00	; 0
     716:	30 e0       	ldi	r19, 0x00	; 0
     718:	40 e0       	ldi	r20, 0x00	; 0
     71a:	50 e0       	ldi	r21, 0x00	; 0
     71c:	12 c0       	rjmp	.+36     	; 0x742 <clust2sect+0x68>
     71e:	2a 81       	ldd	r18, Y+2	; 0x02
     720:	30 e0       	ldi	r19, 0x00	; 0
     722:	40 e0       	ldi	r20, 0x00	; 0
     724:	50 e0       	ldi	r21, 0x00	; 0
     726:	c8 01       	movw	r24, r16
     728:	b7 01       	movw	r22, r14
     72a:	0e 94 0d 2a 	call	0x541a	; 0x541a <__mulsi3>
     72e:	9b 01       	movw	r18, r22
     730:	ac 01       	movw	r20, r24
     732:	8a a5       	ldd	r24, Y+42	; 0x2a
     734:	9b a5       	ldd	r25, Y+43	; 0x2b
     736:	ac a5       	ldd	r26, Y+44	; 0x2c
     738:	bd a5       	ldd	r27, Y+45	; 0x2d
     73a:	28 0f       	add	r18, r24
     73c:	39 1f       	adc	r19, r25
     73e:	4a 1f       	adc	r20, r26
     740:	5b 1f       	adc	r21, r27
     742:	b9 01       	movw	r22, r18
     744:	ca 01       	movw	r24, r20
     746:	cd b7       	in	r28, 0x3d	; 61
     748:	de b7       	in	r29, 0x3e	; 62
     74a:	e6 e0       	ldi	r30, 0x06	; 6
     74c:	0c 94 76 2a 	jmp	0x54ec	; 0x54ec <__epilogue_restores__+0x18>

00000750 <f_mount>:
     750:	db 01       	movw	r26, r22
     752:	88 23       	and	r24, r24
     754:	19 f0       	breq	.+6      	; 0x75c <f_mount+0xc>
     756:	2b e0       	ldi	r18, 0x0B	; 11
     758:	30 e0       	ldi	r19, 0x00	; 0
     75a:	10 c0       	rjmp	.+32     	; 0x77c <f_mount+0x2c>
     75c:	e0 91 22 01 	lds	r30, 0x0122
     760:	f0 91 23 01 	lds	r31, 0x0123
     764:	30 97       	sbiw	r30, 0x00	; 0
     766:	09 f0       	breq	.+2      	; 0x76a <f_mount+0x1a>
     768:	10 82       	st	Z, r1
     76a:	10 97       	sbiw	r26, 0x00	; 0
     76c:	09 f0       	breq	.+2      	; 0x770 <f_mount+0x20>
     76e:	1c 92       	st	X, r1
     770:	b0 93 23 01 	sts	0x0123, r27
     774:	a0 93 22 01 	sts	0x0122, r26
     778:	20 e0       	ldi	r18, 0x00	; 0
     77a:	30 e0       	ldi	r19, 0x00	; 0
     77c:	c9 01       	movw	r24, r18
     77e:	08 95       	ret

00000780 <f_chdrive>:
     780:	88 23       	and	r24, r24
     782:	19 f0       	breq	.+6      	; 0x78a <f_chdrive+0xa>
     784:	2b e0       	ldi	r18, 0x0B	; 11
     786:	30 e0       	ldi	r19, 0x00	; 0
     788:	04 c0       	rjmp	.+8      	; 0x792 <f_chdrive+0x12>
     78a:	10 92 26 01 	sts	0x0126, r1
     78e:	20 e0       	ldi	r18, 0x00	; 0
     790:	30 e0       	ldi	r19, 0x00	; 0
     792:	c9 01       	movw	r24, r18
     794:	08 95       	ret

00000796 <validate>:
     796:	fc 01       	movw	r30, r24
     798:	00 97       	sbiw	r24, 0x00	; 0
     79a:	99 f0       	breq	.+38     	; 0x7c2 <validate+0x2c>
     79c:	80 81       	ld	r24, Z
     79e:	88 23       	and	r24, r24
     7a0:	81 f0       	breq	.+32     	; 0x7c2 <validate+0x2c>
     7a2:	86 81       	ldd	r24, Z+6	; 0x06
     7a4:	97 81       	ldd	r25, Z+7	; 0x07
     7a6:	86 17       	cp	r24, r22
     7a8:	97 07       	cpc	r25, r23
     7aa:	59 f4       	brne	.+22     	; 0x7c2 <validate+0x2c>
     7ac:	81 81       	ldd	r24, Z+1	; 0x01
     7ae:	0e 94 34 18 	call	0x3068	; 0x3068 <disk_status>
     7b2:	80 fd       	sbrc	r24, 0
     7b4:	03 c0       	rjmp	.+6      	; 0x7bc <validate+0x26>
     7b6:	20 e0       	ldi	r18, 0x00	; 0
     7b8:	30 e0       	ldi	r19, 0x00	; 0
     7ba:	05 c0       	rjmp	.+10     	; 0x7c6 <validate+0x30>
     7bc:	23 e0       	ldi	r18, 0x03	; 3
     7be:	30 e0       	ldi	r19, 0x00	; 0
     7c0:	02 c0       	rjmp	.+4      	; 0x7c6 <validate+0x30>
     7c2:	29 e0       	ldi	r18, 0x09	; 9
     7c4:	30 e0       	ldi	r19, 0x00	; 0
     7c6:	c9 01       	movw	r24, r18
     7c8:	08 95       	ret

000007ca <move_window>:
     7ca:	a0 e0       	ldi	r26, 0x00	; 0
     7cc:	b0 e0       	ldi	r27, 0x00	; 0
     7ce:	eb ee       	ldi	r30, 0xEB	; 235
     7d0:	f3 e0       	ldi	r31, 0x03	; 3
     7d2:	0c 94 52 2a 	jmp	0x54a4	; 0x54a4 <__prologue_saves__+0x8>
     7d6:	ec 01       	movw	r28, r24
     7d8:	4a 01       	movw	r8, r20
     7da:	5b 01       	movw	r10, r22
     7dc:	ce a4       	ldd	r12, Y+46	; 0x2e
     7de:	df a4       	ldd	r13, Y+47	; 0x2f
     7e0:	e8 a8       	ldd	r14, Y+48	; 0x30
     7e2:	f9 a8       	ldd	r15, Y+49	; 0x31
     7e4:	c4 16       	cp	r12, r20
     7e6:	d5 06       	cpc	r13, r21
     7e8:	e6 06       	cpc	r14, r22
     7ea:	f7 06       	cpc	r15, r23
     7ec:	09 f4       	brne	.+2      	; 0x7f0 <move_window+0x26>
     7ee:	4f c0       	rjmp	.+158    	; 0x88e <move_window+0xc4>
     7f0:	8c 81       	ldd	r24, Y+4	; 0x04
     7f2:	88 23       	and	r24, r24
     7f4:	a1 f1       	breq	.+104    	; 0x85e <move_window+0x94>
     7f6:	82 e3       	ldi	r24, 0x32	; 50
     7f8:	68 2e       	mov	r6, r24
     7fa:	71 2c       	mov	r7, r1
     7fc:	6c 0e       	add	r6, r28
     7fe:	7d 1e       	adc	r7, r29
     800:	89 81       	ldd	r24, Y+1	; 0x01
     802:	b3 01       	movw	r22, r6
     804:	a7 01       	movw	r20, r14
     806:	96 01       	movw	r18, r12
     808:	01 e0       	ldi	r16, 0x01	; 1
     80a:	0e 94 99 18 	call	0x3132	; 0x3132 <disk_write>
     80e:	89 2b       	or	r24, r25
     810:	d9 f5       	brne	.+118    	; 0x888 <move_window+0xbe>
     812:	1c 82       	std	Y+4, r1	; 0x04
     814:	8a 8d       	ldd	r24, Y+26	; 0x1a
     816:	9b 8d       	ldd	r25, Y+27	; 0x1b
     818:	ac 8d       	ldd	r26, Y+28	; 0x1c
     81a:	bd 8d       	ldd	r27, Y+29	; 0x1d
     81c:	2a a1       	ldd	r18, Y+34	; 0x22
     81e:	3b a1       	ldd	r19, Y+35	; 0x23
     820:	4c a1       	ldd	r20, Y+36	; 0x24
     822:	5d a1       	ldd	r21, Y+37	; 0x25
     824:	82 0f       	add	r24, r18
     826:	93 1f       	adc	r25, r19
     828:	a4 1f       	adc	r26, r20
     82a:	b5 1f       	adc	r27, r21
     82c:	c8 16       	cp	r12, r24
     82e:	d9 06       	cpc	r13, r25
     830:	ea 06       	cpc	r14, r26
     832:	fb 06       	cpc	r15, r27
     834:	a0 f4       	brcc	.+40     	; 0x85e <move_window+0x94>
     836:	1b 81       	ldd	r17, Y+3	; 0x03
     838:	10 c0       	rjmp	.+32     	; 0x85a <move_window+0x90>
     83a:	8a 8d       	ldd	r24, Y+26	; 0x1a
     83c:	9b 8d       	ldd	r25, Y+27	; 0x1b
     83e:	ac 8d       	ldd	r26, Y+28	; 0x1c
     840:	bd 8d       	ldd	r27, Y+29	; 0x1d
     842:	c8 0e       	add	r12, r24
     844:	d9 1e       	adc	r13, r25
     846:	ea 1e       	adc	r14, r26
     848:	fb 1e       	adc	r15, r27
     84a:	89 81       	ldd	r24, Y+1	; 0x01
     84c:	b3 01       	movw	r22, r6
     84e:	a7 01       	movw	r20, r14
     850:	96 01       	movw	r18, r12
     852:	01 e0       	ldi	r16, 0x01	; 1
     854:	0e 94 99 18 	call	0x3132	; 0x3132 <disk_write>
     858:	11 50       	subi	r17, 0x01	; 1
     85a:	12 30       	cpi	r17, 0x02	; 2
     85c:	70 f7       	brcc	.-36     	; 0x83a <move_window+0x70>
     85e:	81 14       	cp	r8, r1
     860:	91 04       	cpc	r9, r1
     862:	a1 04       	cpc	r10, r1
     864:	b1 04       	cpc	r11, r1
     866:	99 f0       	breq	.+38     	; 0x88e <move_window+0xc4>
     868:	be 01       	movw	r22, r28
     86a:	6e 5c       	subi	r22, 0xCE	; 206
     86c:	7f 4f       	sbci	r23, 0xFF	; 255
     86e:	89 81       	ldd	r24, Y+1	; 0x01
     870:	a5 01       	movw	r20, r10
     872:	94 01       	movw	r18, r8
     874:	01 e0       	ldi	r16, 0x01	; 1
     876:	0e 94 3b 18 	call	0x3076	; 0x3076 <disk_read>
     87a:	89 2b       	or	r24, r25
     87c:	29 f4       	brne	.+10     	; 0x888 <move_window+0xbe>
     87e:	8e a6       	std	Y+46, r8	; 0x2e
     880:	9f a6       	std	Y+47, r9	; 0x2f
     882:	a8 aa       	std	Y+48, r10	; 0x30
     884:	b9 aa       	std	Y+49, r11	; 0x31
     886:	03 c0       	rjmp	.+6      	; 0x88e <move_window+0xc4>
     888:	21 e0       	ldi	r18, 0x01	; 1
     88a:	30 e0       	ldi	r19, 0x00	; 0
     88c:	02 c0       	rjmp	.+4      	; 0x892 <move_window+0xc8>
     88e:	20 e0       	ldi	r18, 0x00	; 0
     890:	30 e0       	ldi	r19, 0x00	; 0
     892:	c9 01       	movw	r24, r18
     894:	cd b7       	in	r28, 0x3d	; 61
     896:	de b7       	in	r29, 0x3e	; 62
     898:	ee e0       	ldi	r30, 0x0E	; 14
     89a:	0c 94 6e 2a 	jmp	0x54dc	; 0x54dc <__epilogue_restores__+0x8>

0000089e <put_fat>:
     89e:	a0 e0       	ldi	r26, 0x00	; 0
     8a0:	b0 e0       	ldi	r27, 0x00	; 0
     8a2:	e5 e5       	ldi	r30, 0x55	; 85
     8a4:	f4 e0       	ldi	r31, 0x04	; 4
     8a6:	0c 94 4e 2a 	jmp	0x549c	; 0x549c <__prologue_saves__>
     8aa:	5c 01       	movw	r10, r24
     8ac:	6a 01       	movw	r12, r20
     8ae:	7b 01       	movw	r14, r22
     8b0:	38 01       	movw	r6, r16
     8b2:	49 01       	movw	r8, r18
     8b4:	42 30       	cpi	r20, 0x02	; 2
     8b6:	51 05       	cpc	r21, r1
     8b8:	61 05       	cpc	r22, r1
     8ba:	71 05       	cpc	r23, r1
     8bc:	08 f4       	brcc	.+2      	; 0x8c0 <put_fat+0x22>
     8be:	b1 c0       	rjmp	.+354    	; 0xa22 <put_fat+0x184>
     8c0:	f5 01       	movw	r30, r10
     8c2:	86 8d       	ldd	r24, Z+30	; 0x1e
     8c4:	97 8d       	ldd	r25, Z+31	; 0x1f
     8c6:	a0 a1       	ldd	r26, Z+32	; 0x20
     8c8:	b1 a1       	ldd	r27, Z+33	; 0x21
     8ca:	48 17       	cp	r20, r24
     8cc:	59 07       	cpc	r21, r25
     8ce:	6a 07       	cpc	r22, r26
     8d0:	7b 07       	cpc	r23, r27
     8d2:	08 f0       	brcs	.+2      	; 0x8d6 <put_fat+0x38>
     8d4:	a6 c0       	rjmp	.+332    	; 0xa22 <put_fat+0x184>
     8d6:	22 a0       	ldd	r2, Z+34	; 0x22
     8d8:	33 a0       	ldd	r3, Z+35	; 0x23
     8da:	44 a0       	ldd	r4, Z+36	; 0x24
     8dc:	55 a0       	ldd	r5, Z+37	; 0x25
     8de:	80 81       	ld	r24, Z
     8e0:	82 30       	cpi	r24, 0x02	; 2
     8e2:	09 f4       	brne	.+2      	; 0x8e6 <put_fat+0x48>
     8e4:	66 c0       	rjmp	.+204    	; 0x9b2 <put_fat+0x114>
     8e6:	83 30       	cpi	r24, 0x03	; 3
     8e8:	09 f4       	brne	.+2      	; 0x8ec <put_fat+0x4e>
     8ea:	7a c0       	rjmp	.+244    	; 0x9e0 <put_fat+0x142>
     8ec:	81 30       	cpi	r24, 0x01	; 1
     8ee:	19 f0       	breq	.+6      	; 0x8f6 <put_fat+0x58>
     8f0:	42 e0       	ldi	r20, 0x02	; 2
     8f2:	50 e0       	ldi	r21, 0x00	; 0
     8f4:	92 c0       	rjmp	.+292    	; 0xa1a <put_fat+0x17c>
     8f6:	ea 01       	movw	r28, r20
     8f8:	d6 95       	lsr	r29
     8fa:	c7 95       	ror	r28
     8fc:	c4 0f       	add	r28, r20
     8fe:	d5 1f       	adc	r29, r21
     900:	ae 01       	movw	r20, r28
     902:	45 2f       	mov	r20, r21
     904:	55 27       	eor	r21, r21
     906:	46 95       	lsr	r20
     908:	60 e0       	ldi	r22, 0x00	; 0
     90a:	70 e0       	ldi	r23, 0x00	; 0
     90c:	42 0d       	add	r20, r2
     90e:	53 1d       	adc	r21, r3
     910:	64 1d       	adc	r22, r4
     912:	75 1d       	adc	r23, r5
     914:	c5 01       	movw	r24, r10
     916:	0e 94 e5 03 	call	0x7ca	; 0x7ca <move_window>
     91a:	ac 01       	movw	r20, r24
     91c:	00 97       	sbiw	r24, 0x00	; 0
     91e:	09 f0       	breq	.+2      	; 0x922 <put_fat+0x84>
     920:	7c c0       	rjmp	.+248    	; 0xa1a <put_fat+0x17c>
     922:	de 01       	movw	r26, r28
     924:	b1 70       	andi	r27, 0x01	; 1
     926:	86 01       	movw	r16, r12
     928:	01 70       	andi	r16, 0x01	; 1
     92a:	10 70       	andi	r17, 0x00	; 0
     92c:	01 15       	cp	r16, r1
     92e:	11 05       	cpc	r17, r1
     930:	51 f0       	breq	.+20     	; 0x946 <put_fat+0xa8>
     932:	f5 01       	movw	r30, r10
     934:	ea 0f       	add	r30, r26
     936:	fb 1f       	adc	r31, r27
     938:	82 a9       	ldd	r24, Z+50	; 0x32
     93a:	8f 70       	andi	r24, 0x0F	; 15
     93c:	96 2d       	mov	r25, r6
     93e:	92 95       	swap	r25
     940:	90 7f       	andi	r25, 0xF0	; 240
     942:	98 2b       	or	r25, r24
     944:	01 c0       	rjmp	.+2      	; 0x948 <put_fat+0xaa>
     946:	96 2d       	mov	r25, r6
     948:	aa 0d       	add	r26, r10
     94a:	bb 1d       	adc	r27, r11
     94c:	d2 96       	adiw	r26, 0x32	; 50
     94e:	9c 93       	st	X, r25
     950:	21 96       	adiw	r28, 0x01	; 1
     952:	81 e0       	ldi	r24, 0x01	; 1
     954:	f5 01       	movw	r30, r10
     956:	84 83       	std	Z+4, r24	; 0x04
     958:	ae 01       	movw	r20, r28
     95a:	45 2f       	mov	r20, r21
     95c:	55 27       	eor	r21, r21
     95e:	46 95       	lsr	r20
     960:	60 e0       	ldi	r22, 0x00	; 0
     962:	70 e0       	ldi	r23, 0x00	; 0
     964:	42 0d       	add	r20, r2
     966:	53 1d       	adc	r21, r3
     968:	64 1d       	adc	r22, r4
     96a:	75 1d       	adc	r23, r5
     96c:	c5 01       	movw	r24, r10
     96e:	0e 94 e5 03 	call	0x7ca	; 0x7ca <move_window>
     972:	ac 01       	movw	r20, r24
     974:	00 97       	sbiw	r24, 0x00	; 0
     976:	09 f0       	breq	.+2      	; 0x97a <put_fat+0xdc>
     978:	50 c0       	rjmp	.+160    	; 0xa1a <put_fat+0x17c>
     97a:	d1 70       	andi	r29, 0x01	; 1
     97c:	01 15       	cp	r16, r1
     97e:	11 05       	cpc	r17, r1
     980:	49 f0       	breq	.+18     	; 0x994 <put_fat+0xf6>
     982:	e4 e0       	ldi	r30, 0x04	; 4
     984:	96 94       	lsr	r9
     986:	87 94       	ror	r8
     988:	77 94       	ror	r7
     98a:	67 94       	ror	r6
     98c:	ea 95       	dec	r30
     98e:	d1 f7       	brne	.-12     	; 0x984 <put_fat+0xe6>
     990:	66 2d       	mov	r22, r6
     992:	0b c0       	rjmp	.+22     	; 0x9aa <put_fat+0x10c>
     994:	f5 01       	movw	r30, r10
     996:	ec 0f       	add	r30, r28
     998:	fd 1f       	adc	r31, r29
     99a:	62 a9       	ldd	r22, Z+50	; 0x32
     99c:	60 7f       	andi	r22, 0xF0	; 240
     99e:	bb 27       	eor	r27, r27
     9a0:	a9 2d       	mov	r26, r9
     9a2:	98 2d       	mov	r25, r8
     9a4:	87 2d       	mov	r24, r7
     9a6:	8f 70       	andi	r24, 0x0F	; 15
     9a8:	68 2b       	or	r22, r24
     9aa:	ca 0d       	add	r28, r10
     9ac:	db 1d       	adc	r29, r11
     9ae:	6a ab       	std	Y+50, r22	; 0x32
     9b0:	34 c0       	rjmp	.+104    	; 0xa1a <put_fat+0x17c>
     9b2:	77 27       	eor	r23, r23
     9b4:	6f 2d       	mov	r22, r15
     9b6:	5e 2d       	mov	r21, r14
     9b8:	4d 2d       	mov	r20, r13
     9ba:	42 0d       	add	r20, r2
     9bc:	53 1d       	adc	r21, r3
     9be:	64 1d       	adc	r22, r4
     9c0:	75 1d       	adc	r23, r5
     9c2:	c5 01       	movw	r24, r10
     9c4:	0e 94 e5 03 	call	0x7ca	; 0x7ca <move_window>
     9c8:	ac 01       	movw	r20, r24
     9ca:	00 97       	sbiw	r24, 0x00	; 0
     9cc:	31 f5       	brne	.+76     	; 0xa1a <put_fat+0x17c>
     9ce:	f6 01       	movw	r30, r12
     9d0:	ee 0f       	add	r30, r30
     9d2:	ff 1f       	adc	r31, r31
     9d4:	f1 70       	andi	r31, 0x01	; 1
     9d6:	ea 0d       	add	r30, r10
     9d8:	fb 1d       	adc	r31, r11
     9da:	73 aa       	std	Z+51, r7	; 0x33
     9dc:	62 aa       	std	Z+50, r6	; 0x32
     9de:	1d c0       	rjmp	.+58     	; 0xa1a <put_fat+0x17c>
     9e0:	27 e0       	ldi	r18, 0x07	; 7
     9e2:	76 95       	lsr	r23
     9e4:	67 95       	ror	r22
     9e6:	57 95       	ror	r21
     9e8:	47 95       	ror	r20
     9ea:	2a 95       	dec	r18
     9ec:	d1 f7       	brne	.-12     	; 0x9e2 <put_fat+0x144>
     9ee:	42 0d       	add	r20, r2
     9f0:	53 1d       	adc	r21, r3
     9f2:	64 1d       	adc	r22, r4
     9f4:	75 1d       	adc	r23, r5
     9f6:	c5 01       	movw	r24, r10
     9f8:	0e 94 e5 03 	call	0x7ca	; 0x7ca <move_window>
     9fc:	ac 01       	movw	r20, r24
     9fe:	00 97       	sbiw	r24, 0x00	; 0
     a00:	61 f4       	brne	.+24     	; 0xa1a <put_fat+0x17c>
     a02:	f6 01       	movw	r30, r12
     a04:	ee 0f       	add	r30, r30
     a06:	ff 1f       	adc	r31, r31
     a08:	ee 0f       	add	r30, r30
     a0a:	ff 1f       	adc	r31, r31
     a0c:	f1 70       	andi	r31, 0x01	; 1
     a0e:	ea 0d       	add	r30, r10
     a10:	fb 1d       	adc	r31, r11
     a12:	62 aa       	std	Z+50, r6	; 0x32
     a14:	73 aa       	std	Z+51, r7	; 0x33
     a16:	84 aa       	std	Z+52, r8	; 0x34
     a18:	95 aa       	std	Z+53, r9	; 0x35
     a1a:	81 e0       	ldi	r24, 0x01	; 1
     a1c:	f5 01       	movw	r30, r10
     a1e:	84 83       	std	Z+4, r24	; 0x04
     a20:	02 c0       	rjmp	.+4      	; 0xa26 <put_fat+0x188>
     a22:	42 e0       	ldi	r20, 0x02	; 2
     a24:	50 e0       	ldi	r21, 0x00	; 0
     a26:	ca 01       	movw	r24, r20
     a28:	cd b7       	in	r28, 0x3d	; 61
     a2a:	de b7       	in	r29, 0x3e	; 62
     a2c:	e2 e1       	ldi	r30, 0x12	; 18
     a2e:	0c 94 6a 2a 	jmp	0x54d4	; 0x54d4 <__epilogue_restores__>

00000a32 <get_fat>:
     a32:	a0 e0       	ldi	r26, 0x00	; 0
     a34:	b0 e0       	ldi	r27, 0x00	; 0
     a36:	ef e1       	ldi	r30, 0x1F	; 31
     a38:	f5 e0       	ldi	r31, 0x05	; 5
     a3a:	0c 94 53 2a 	jmp	0x54a6	; 0x54a6 <__prologue_saves__+0xa>
     a3e:	4c 01       	movw	r8, r24
     a40:	7a 01       	movw	r14, r20
     a42:	8b 01       	movw	r16, r22
     a44:	42 30       	cpi	r20, 0x02	; 2
     a46:	51 05       	cpc	r21, r1
     a48:	61 05       	cpc	r22, r1
     a4a:	71 05       	cpc	r23, r1
     a4c:	08 f4       	brcc	.+2      	; 0xa50 <get_fat+0x1e>
     a4e:	97 c0       	rjmp	.+302    	; 0xb7e <get_fat+0x14c>
     a50:	f4 01       	movw	r30, r8
     a52:	86 8d       	ldd	r24, Z+30	; 0x1e
     a54:	97 8d       	ldd	r25, Z+31	; 0x1f
     a56:	a0 a1       	ldd	r26, Z+32	; 0x20
     a58:	b1 a1       	ldd	r27, Z+33	; 0x21
     a5a:	48 17       	cp	r20, r24
     a5c:	59 07       	cpc	r21, r25
     a5e:	6a 07       	cpc	r22, r26
     a60:	7b 07       	cpc	r23, r27
     a62:	08 f0       	brcs	.+2      	; 0xa66 <get_fat+0x34>
     a64:	8c c0       	rjmp	.+280    	; 0xb7e <get_fat+0x14c>
     a66:	a2 a0       	ldd	r10, Z+34	; 0x22
     a68:	b3 a0       	ldd	r11, Z+35	; 0x23
     a6a:	c4 a0       	ldd	r12, Z+36	; 0x24
     a6c:	d5 a0       	ldd	r13, Z+37	; 0x25
     a6e:	80 81       	ld	r24, Z
     a70:	82 30       	cpi	r24, 0x02	; 2
     a72:	09 f4       	brne	.+2      	; 0xa76 <get_fat+0x44>
     a74:	4d c0       	rjmp	.+154    	; 0xb10 <get_fat+0xde>
     a76:	83 30       	cpi	r24, 0x03	; 3
     a78:	09 f4       	brne	.+2      	; 0xa7c <get_fat+0x4a>
     a7a:	63 c0       	rjmp	.+198    	; 0xb42 <get_fat+0x110>
     a7c:	81 30       	cpi	r24, 0x01	; 1
     a7e:	09 f0       	breq	.+2      	; 0xa82 <get_fat+0x50>
     a80:	83 c0       	rjmp	.+262    	; 0xb88 <get_fat+0x156>
     a82:	ea 01       	movw	r28, r20
     a84:	d6 95       	lsr	r29
     a86:	c7 95       	ror	r28
     a88:	c4 0f       	add	r28, r20
     a8a:	d5 1f       	adc	r29, r21
     a8c:	ae 01       	movw	r20, r28
     a8e:	45 2f       	mov	r20, r21
     a90:	55 27       	eor	r21, r21
     a92:	46 95       	lsr	r20
     a94:	60 e0       	ldi	r22, 0x00	; 0
     a96:	70 e0       	ldi	r23, 0x00	; 0
     a98:	4a 0d       	add	r20, r10
     a9a:	5b 1d       	adc	r21, r11
     a9c:	6c 1d       	adc	r22, r12
     a9e:	7d 1d       	adc	r23, r13
     aa0:	c4 01       	movw	r24, r8
     aa2:	0e 94 e5 03 	call	0x7ca	; 0x7ca <move_window>
     aa6:	89 2b       	or	r24, r25
     aa8:	09 f0       	breq	.+2      	; 0xaac <get_fat+0x7a>
     aaa:	6e c0       	rjmp	.+220    	; 0xb88 <get_fat+0x156>
     aac:	fe 01       	movw	r30, r28
     aae:	f1 70       	andi	r31, 0x01	; 1
     ab0:	e8 0d       	add	r30, r8
     ab2:	f9 1d       	adc	r31, r9
     ab4:	72 a8       	ldd	r7, Z+50	; 0x32
     ab6:	21 96       	adiw	r28, 0x01	; 1
     ab8:	ae 01       	movw	r20, r28
     aba:	45 2f       	mov	r20, r21
     abc:	55 27       	eor	r21, r21
     abe:	46 95       	lsr	r20
     ac0:	60 e0       	ldi	r22, 0x00	; 0
     ac2:	70 e0       	ldi	r23, 0x00	; 0
     ac4:	4a 0d       	add	r20, r10
     ac6:	5b 1d       	adc	r21, r11
     ac8:	6c 1d       	adc	r22, r12
     aca:	7d 1d       	adc	r23, r13
     acc:	c4 01       	movw	r24, r8
     ace:	0e 94 e5 03 	call	0x7ca	; 0x7ca <move_window>
     ad2:	89 2b       	or	r24, r25
     ad4:	09 f0       	breq	.+2      	; 0xad8 <get_fat+0xa6>
     ad6:	58 c0       	rjmp	.+176    	; 0xb88 <get_fat+0x156>
     ad8:	67 2d       	mov	r22, r7
     ada:	70 e0       	ldi	r23, 0x00	; 0
     adc:	d1 70       	andi	r29, 0x01	; 1
     ade:	c8 0d       	add	r28, r8
     ae0:	d9 1d       	adc	r29, r9
     ae2:	9a a9       	ldd	r25, Y+50	; 0x32
     ae4:	80 e0       	ldi	r24, 0x00	; 0
     ae6:	68 2b       	or	r22, r24
     ae8:	79 2b       	or	r23, r25
     aea:	c7 01       	movw	r24, r14
     aec:	81 70       	andi	r24, 0x01	; 1
     aee:	90 70       	andi	r25, 0x00	; 0
     af0:	89 2b       	or	r24, r25
     af2:	39 f0       	breq	.+14     	; 0xb02 <get_fat+0xd0>
     af4:	44 e0       	ldi	r20, 0x04	; 4
     af6:	76 95       	lsr	r23
     af8:	67 95       	ror	r22
     afa:	4a 95       	dec	r20
     afc:	e1 f7       	brne	.-8      	; 0xaf6 <get_fat+0xc4>
     afe:	9b 01       	movw	r18, r22
     b00:	1d c0       	rjmp	.+58     	; 0xb3c <get_fat+0x10a>
     b02:	9b 01       	movw	r18, r22
     b04:	40 e0       	ldi	r20, 0x00	; 0
     b06:	50 e0       	ldi	r21, 0x00	; 0
     b08:	3f 70       	andi	r19, 0x0F	; 15
     b0a:	40 70       	andi	r20, 0x00	; 0
     b0c:	50 70       	andi	r21, 0x00	; 0
     b0e:	40 c0       	rjmp	.+128    	; 0xb90 <get_fat+0x15e>
     b10:	45 2f       	mov	r20, r21
     b12:	56 2f       	mov	r21, r22
     b14:	67 2f       	mov	r22, r23
     b16:	77 27       	eor	r23, r23
     b18:	4a 0d       	add	r20, r10
     b1a:	5b 1d       	adc	r21, r11
     b1c:	6c 1d       	adc	r22, r12
     b1e:	7d 1d       	adc	r23, r13
     b20:	c4 01       	movw	r24, r8
     b22:	0e 94 e5 03 	call	0x7ca	; 0x7ca <move_window>
     b26:	89 2b       	or	r24, r25
     b28:	79 f5       	brne	.+94     	; 0xb88 <get_fat+0x156>
     b2a:	f7 01       	movw	r30, r14
     b2c:	ee 0f       	add	r30, r30
     b2e:	ff 1f       	adc	r31, r31
     b30:	f1 70       	andi	r31, 0x01	; 1
     b32:	e8 0d       	add	r30, r8
     b34:	f9 1d       	adc	r31, r9
     b36:	82 a9       	ldd	r24, Z+50	; 0x32
     b38:	93 a9       	ldd	r25, Z+51	; 0x33
     b3a:	9c 01       	movw	r18, r24
     b3c:	40 e0       	ldi	r20, 0x00	; 0
     b3e:	50 e0       	ldi	r21, 0x00	; 0
     b40:	27 c0       	rjmp	.+78     	; 0xb90 <get_fat+0x15e>
     b42:	97 e0       	ldi	r25, 0x07	; 7
     b44:	76 95       	lsr	r23
     b46:	67 95       	ror	r22
     b48:	57 95       	ror	r21
     b4a:	47 95       	ror	r20
     b4c:	9a 95       	dec	r25
     b4e:	d1 f7       	brne	.-12     	; 0xb44 <get_fat+0x112>
     b50:	4a 0d       	add	r20, r10
     b52:	5b 1d       	adc	r21, r11
     b54:	6c 1d       	adc	r22, r12
     b56:	7d 1d       	adc	r23, r13
     b58:	c4 01       	movw	r24, r8
     b5a:	0e 94 e5 03 	call	0x7ca	; 0x7ca <move_window>
     b5e:	89 2b       	or	r24, r25
     b60:	99 f4       	brne	.+38     	; 0xb88 <get_fat+0x156>
     b62:	f7 01       	movw	r30, r14
     b64:	ee 0f       	add	r30, r30
     b66:	ff 1f       	adc	r31, r31
     b68:	ee 0f       	add	r30, r30
     b6a:	ff 1f       	adc	r31, r31
     b6c:	f1 70       	andi	r31, 0x01	; 1
     b6e:	e8 0d       	add	r30, r8
     b70:	f9 1d       	adc	r31, r9
     b72:	22 a9       	ldd	r18, Z+50	; 0x32
     b74:	33 a9       	ldd	r19, Z+51	; 0x33
     b76:	44 a9       	ldd	r20, Z+52	; 0x34
     b78:	55 a9       	ldd	r21, Z+53	; 0x35
     b7a:	5f 70       	andi	r21, 0x0F	; 15
     b7c:	09 c0       	rjmp	.+18     	; 0xb90 <get_fat+0x15e>
     b7e:	21 e0       	ldi	r18, 0x01	; 1
     b80:	30 e0       	ldi	r19, 0x00	; 0
     b82:	40 e0       	ldi	r20, 0x00	; 0
     b84:	50 e0       	ldi	r21, 0x00	; 0
     b86:	04 c0       	rjmp	.+8      	; 0xb90 <get_fat+0x15e>
     b88:	2f ef       	ldi	r18, 0xFF	; 255
     b8a:	3f ef       	ldi	r19, 0xFF	; 255
     b8c:	4f ef       	ldi	r20, 0xFF	; 255
     b8e:	5f ef       	ldi	r21, 0xFF	; 255
     b90:	b9 01       	movw	r22, r18
     b92:	ca 01       	movw	r24, r20
     b94:	cd b7       	in	r28, 0x3d	; 61
     b96:	de b7       	in	r29, 0x3e	; 62
     b98:	ed e0       	ldi	r30, 0x0D	; 13
     b9a:	0c 94 6f 2a 	jmp	0x54de	; 0x54de <__epilogue_restores__+0xa>

00000b9e <dir_seek>:
     b9e:	a0 e0       	ldi	r26, 0x00	; 0
     ba0:	b0 e0       	ldi	r27, 0x00	; 0
     ba2:	e5 ed       	ldi	r30, 0xD5	; 213
     ba4:	f5 e0       	ldi	r31, 0x05	; 5
     ba6:	0c 94 56 2a 	jmp	0x54ac	; 0x54ac <__prologue_saves__+0x10>
     baa:	6c 01       	movw	r12, r24
     bac:	5b 01       	movw	r10, r22
     bae:	dc 01       	movw	r26, r24
     bb0:	15 96       	adiw	r26, 0x05	; 5
     bb2:	7c 93       	st	X, r23
     bb4:	6e 93       	st	-X, r22
     bb6:	14 97       	sbiw	r26, 0x04	; 4
     bb8:	16 96       	adiw	r26, 0x06	; 6
     bba:	4d 91       	ld	r20, X+
     bbc:	5d 91       	ld	r21, X+
     bbe:	6d 91       	ld	r22, X+
     bc0:	7c 91       	ld	r23, X
     bc2:	19 97       	sbiw	r26, 0x09	; 9
     bc4:	41 30       	cpi	r20, 0x01	; 1
     bc6:	51 05       	cpc	r21, r1
     bc8:	61 05       	cpc	r22, r1
     bca:	71 05       	cpc	r23, r1
     bcc:	09 f4       	brne	.+2      	; 0xbd0 <dir_seek+0x32>
     bce:	d0 c0       	rjmp	.+416    	; 0xd70 <dir_seek+0x1d2>
     bd0:	ed 91       	ld	r30, X+
     bd2:	fc 91       	ld	r31, X
     bd4:	86 8d       	ldd	r24, Z+30	; 0x1e
     bd6:	97 8d       	ldd	r25, Z+31	; 0x1f
     bd8:	a0 a1       	ldd	r26, Z+32	; 0x20
     bda:	b1 a1       	ldd	r27, Z+33	; 0x21
     bdc:	48 17       	cp	r20, r24
     bde:	59 07       	cpc	r21, r25
     be0:	6a 07       	cpc	r22, r26
     be2:	7b 07       	cpc	r23, r27
     be4:	08 f0       	brcs	.+2      	; 0xbe8 <dir_seek+0x4a>
     be6:	c4 c0       	rjmp	.+392    	; 0xd70 <dir_seek+0x1d2>
     be8:	41 15       	cp	r20, r1
     bea:	51 05       	cpc	r21, r1
     bec:	61 05       	cpc	r22, r1
     bee:	71 05       	cpc	r23, r1
     bf0:	81 f5       	brne	.+96     	; 0xc52 <dir_seek+0xb4>
     bf2:	80 81       	ld	r24, Z
     bf4:	83 30       	cpi	r24, 0x03	; 3
     bf6:	49 f4       	brne	.+18     	; 0xc0a <dir_seek+0x6c>
     bf8:	46 a1       	ldd	r20, Z+38	; 0x26
     bfa:	57 a1       	ldd	r21, Z+39	; 0x27
     bfc:	60 a5       	ldd	r22, Z+40	; 0x28
     bfe:	71 a5       	ldd	r23, Z+41	; 0x29
     c00:	41 15       	cp	r20, r1
     c02:	51 05       	cpc	r21, r1
     c04:	61 05       	cpc	r22, r1
     c06:	71 05       	cpc	r23, r1
     c08:	21 f5       	brne	.+72     	; 0xc52 <dir_seek+0xb4>
     c0a:	f6 01       	movw	r30, r12
     c0c:	12 86       	std	Z+10, r1	; 0x0a
     c0e:	13 86       	std	Z+11, r1	; 0x0b
     c10:	14 86       	std	Z+12, r1	; 0x0c
     c12:	15 86       	std	Z+13, r1	; 0x0d
     c14:	01 90       	ld	r0, Z+
     c16:	f0 81       	ld	r31, Z
     c18:	e0 2d       	mov	r30, r0
     c1a:	80 85       	ldd	r24, Z+8	; 0x08
     c1c:	91 85       	ldd	r25, Z+9	; 0x09
     c1e:	a8 16       	cp	r10, r24
     c20:	b9 06       	cpc	r11, r25
     c22:	08 f0       	brcs	.+2      	; 0xc26 <dir_seek+0x88>
     c24:	a5 c0       	rjmp	.+330    	; 0xd70 <dir_seek+0x1d2>
     c26:	c5 01       	movw	r24, r10
     c28:	24 e0       	ldi	r18, 0x04	; 4
     c2a:	96 95       	lsr	r25
     c2c:	87 95       	ror	r24
     c2e:	2a 95       	dec	r18
     c30:	e1 f7       	brne	.-8      	; 0xc2a <dir_seek+0x8c>
     c32:	a0 e0       	ldi	r26, 0x00	; 0
     c34:	b0 e0       	ldi	r27, 0x00	; 0
     c36:	26 a1       	ldd	r18, Z+38	; 0x26
     c38:	37 a1       	ldd	r19, Z+39	; 0x27
     c3a:	40 a5       	ldd	r20, Z+40	; 0x28
     c3c:	51 a5       	ldd	r21, Z+41	; 0x29
     c3e:	82 0f       	add	r24, r18
     c40:	93 1f       	adc	r25, r19
     c42:	a4 1f       	adc	r26, r20
     c44:	b5 1f       	adc	r27, r21
     c46:	f6 01       	movw	r30, r12
     c48:	86 87       	std	Z+14, r24	; 0x0e
     c4a:	97 87       	std	Z+15, r25	; 0x0f
     c4c:	a0 8b       	std	Z+16, r26	; 0x10
     c4e:	b1 8b       	std	Z+17, r27	; 0x11
     c50:	7b c0       	rjmp	.+246    	; 0xd48 <dir_seek+0x1aa>
     c52:	82 81       	ldd	r24, Z+2	; 0x02
     c54:	08 2f       	mov	r16, r24
     c56:	10 e0       	ldi	r17, 0x00	; 0
     c58:	84 e0       	ldi	r24, 0x04	; 4
     c5a:	00 0f       	add	r16, r16
     c5c:	11 1f       	adc	r17, r17
     c5e:	8a 95       	dec	r24
     c60:	e1 f7       	brne	.-8      	; 0xc5a <dir_seek+0xbc>
     c62:	25 c0       	rjmp	.+74     	; 0xcae <dir_seek+0x110>
     c64:	ce 01       	movw	r24, r28
     c66:	0e 94 19 05 	call	0xa32	; 0xa32 <get_fat>
     c6a:	ab 01       	movw	r20, r22
     c6c:	bc 01       	movw	r22, r24
     c6e:	4f 3f       	cpi	r20, 0xFF	; 255
     c70:	ff ef       	ldi	r31, 0xFF	; 255
     c72:	5f 07       	cpc	r21, r31
     c74:	ff ef       	ldi	r31, 0xFF	; 255
     c76:	6f 07       	cpc	r22, r31
     c78:	ff ef       	ldi	r31, 0xFF	; 255
     c7a:	7f 07       	cpc	r23, r31
     c7c:	19 f4       	brne	.+6      	; 0xc84 <dir_seek+0xe6>
     c7e:	21 e0       	ldi	r18, 0x01	; 1
     c80:	30 e0       	ldi	r19, 0x00	; 0
     c82:	78 c0       	rjmp	.+240    	; 0xd74 <dir_seek+0x1d6>
     c84:	42 30       	cpi	r20, 0x02	; 2
     c86:	51 05       	cpc	r21, r1
     c88:	61 05       	cpc	r22, r1
     c8a:	71 05       	cpc	r23, r1
     c8c:	08 f4       	brcc	.+2      	; 0xc90 <dir_seek+0xf2>
     c8e:	70 c0       	rjmp	.+224    	; 0xd70 <dir_seek+0x1d2>
     c90:	d6 01       	movw	r26, r12
     c92:	ed 91       	ld	r30, X+
     c94:	fc 91       	ld	r31, X
     c96:	86 8d       	ldd	r24, Z+30	; 0x1e
     c98:	97 8d       	ldd	r25, Z+31	; 0x1f
     c9a:	a0 a1       	ldd	r26, Z+32	; 0x20
     c9c:	b1 a1       	ldd	r27, Z+33	; 0x21
     c9e:	48 17       	cp	r20, r24
     ca0:	59 07       	cpc	r21, r25
     ca2:	6a 07       	cpc	r22, r26
     ca4:	7b 07       	cpc	r23, r27
     ca6:	08 f0       	brcs	.+2      	; 0xcaa <dir_seek+0x10c>
     ca8:	63 c0       	rjmp	.+198    	; 0xd70 <dir_seek+0x1d2>
     caa:	a0 1a       	sub	r10, r16
     cac:	b1 0a       	sbc	r11, r17
     cae:	f6 01       	movw	r30, r12
     cb0:	c0 81       	ld	r28, Z
     cb2:	d1 81       	ldd	r29, Z+1	; 0x01
     cb4:	a0 16       	cp	r10, r16
     cb6:	b1 06       	cpc	r11, r17
     cb8:	a8 f6       	brcc	.-86     	; 0xc64 <dir_seek+0xc6>
     cba:	d6 01       	movw	r26, r12
     cbc:	1a 96       	adiw	r26, 0x0a	; 10
     cbe:	4d 93       	st	X+, r20
     cc0:	5d 93       	st	X+, r21
     cc2:	6d 93       	st	X+, r22
     cc4:	7c 93       	st	X, r23
     cc6:	1d 97       	sbiw	r26, 0x0d	; 13
     cc8:	be ef       	ldi	r27, 0xFE	; 254
     cca:	eb 2e       	mov	r14, r27
     ccc:	bf ef       	ldi	r27, 0xFF	; 255
     cce:	fb 2e       	mov	r15, r27
     cd0:	bf ef       	ldi	r27, 0xFF	; 255
     cd2:	0b 2f       	mov	r16, r27
     cd4:	bf ef       	ldi	r27, 0xFF	; 255
     cd6:	1b 2f       	mov	r17, r27
     cd8:	e4 0e       	add	r14, r20
     cda:	f5 1e       	adc	r15, r21
     cdc:	06 1f       	adc	r16, r22
     cde:	17 1f       	adc	r17, r23
     ce0:	8e 8d       	ldd	r24, Y+30	; 0x1e
     ce2:	9f 8d       	ldd	r25, Y+31	; 0x1f
     ce4:	a8 a1       	ldd	r26, Y+32	; 0x20
     ce6:	b9 a1       	ldd	r27, Y+33	; 0x21
     ce8:	02 97       	sbiw	r24, 0x02	; 2
     cea:	a1 09       	sbc	r26, r1
     cec:	b1 09       	sbc	r27, r1
     cee:	e8 16       	cp	r14, r24
     cf0:	f9 06       	cpc	r15, r25
     cf2:	0a 07       	cpc	r16, r26
     cf4:	1b 07       	cpc	r17, r27
     cf6:	28 f0       	brcs	.+10     	; 0xd02 <dir_seek+0x164>
     cf8:	20 e0       	ldi	r18, 0x00	; 0
     cfa:	30 e0       	ldi	r19, 0x00	; 0
     cfc:	40 e0       	ldi	r20, 0x00	; 0
     cfe:	50 e0       	ldi	r21, 0x00	; 0
     d00:	12 c0       	rjmp	.+36     	; 0xd26 <dir_seek+0x188>
     d02:	2a 81       	ldd	r18, Y+2	; 0x02
     d04:	30 e0       	ldi	r19, 0x00	; 0
     d06:	40 e0       	ldi	r20, 0x00	; 0
     d08:	50 e0       	ldi	r21, 0x00	; 0
     d0a:	c8 01       	movw	r24, r16
     d0c:	b7 01       	movw	r22, r14
     d0e:	0e 94 0d 2a 	call	0x541a	; 0x541a <__mulsi3>
     d12:	9b 01       	movw	r18, r22
     d14:	ac 01       	movw	r20, r24
     d16:	8a a5       	ldd	r24, Y+42	; 0x2a
     d18:	9b a5       	ldd	r25, Y+43	; 0x2b
     d1a:	ac a5       	ldd	r26, Y+44	; 0x2c
     d1c:	bd a5       	ldd	r27, Y+45	; 0x2d
     d1e:	28 0f       	add	r18, r24
     d20:	39 1f       	adc	r19, r25
     d22:	4a 1f       	adc	r20, r26
     d24:	5b 1f       	adc	r21, r27
     d26:	c5 01       	movw	r24, r10
     d28:	a4 e0       	ldi	r26, 0x04	; 4
     d2a:	96 95       	lsr	r25
     d2c:	87 95       	ror	r24
     d2e:	aa 95       	dec	r26
     d30:	e1 f7       	brne	.-8      	; 0xd2a <dir_seek+0x18c>
     d32:	a0 e0       	ldi	r26, 0x00	; 0
     d34:	b0 e0       	ldi	r27, 0x00	; 0
     d36:	28 0f       	add	r18, r24
     d38:	39 1f       	adc	r19, r25
     d3a:	4a 1f       	adc	r20, r26
     d3c:	5b 1f       	adc	r21, r27
     d3e:	f6 01       	movw	r30, r12
     d40:	26 87       	std	Z+14, r18	; 0x0e
     d42:	37 87       	std	Z+15, r19	; 0x0f
     d44:	40 8b       	std	Z+16, r20	; 0x10
     d46:	51 8b       	std	Z+17, r21	; 0x11
     d48:	d6 01       	movw	r26, r12
     d4a:	8d 91       	ld	r24, X+
     d4c:	9c 91       	ld	r25, X
     d4e:	c2 96       	adiw	r24, 0x32	; 50
     d50:	bf e0       	ldi	r27, 0x0F	; 15
     d52:	ab 22       	and	r10, r27
     d54:	bb 24       	eor	r11, r11
     d56:	f5 e0       	ldi	r31, 0x05	; 5
     d58:	aa 0c       	add	r10, r10
     d5a:	bb 1c       	adc	r11, r11
     d5c:	fa 95       	dec	r31
     d5e:	e1 f7       	brne	.-8      	; 0xd58 <dir_seek+0x1ba>
     d60:	8a 0d       	add	r24, r10
     d62:	9b 1d       	adc	r25, r11
     d64:	f6 01       	movw	r30, r12
     d66:	93 8b       	std	Z+19, r25	; 0x13
     d68:	82 8b       	std	Z+18, r24	; 0x12
     d6a:	20 e0       	ldi	r18, 0x00	; 0
     d6c:	30 e0       	ldi	r19, 0x00	; 0
     d6e:	02 c0       	rjmp	.+4      	; 0xd74 <dir_seek+0x1d6>
     d70:	22 e0       	ldi	r18, 0x02	; 2
     d72:	30 e0       	ldi	r19, 0x00	; 0
     d74:	c9 01       	movw	r24, r18
     d76:	cd b7       	in	r28, 0x3d	; 61
     d78:	de b7       	in	r29, 0x3e	; 62
     d7a:	ea e0       	ldi	r30, 0x0A	; 10
     d7c:	0c 94 72 2a 	jmp	0x54e4	; 0x54e4 <__epilogue_restores__+0x10>

00000d80 <create_chain>:
     d80:	a4 e0       	ldi	r26, 0x04	; 4
     d82:	b0 e0       	ldi	r27, 0x00	; 0
     d84:	e6 ec       	ldi	r30, 0xC6	; 198
     d86:	f6 e0       	ldi	r31, 0x06	; 6
     d88:	0c 94 4e 2a 	jmp	0x549c	; 0x549c <__prologue_saves__>
     d8c:	1c 01       	movw	r2, r24
     d8e:	2a 01       	movw	r4, r20
     d90:	3b 01       	movw	r6, r22
     d92:	dc 01       	movw	r26, r24
     d94:	5e 96       	adiw	r26, 0x1e	; 30
     d96:	8d 91       	ld	r24, X+
     d98:	9d 91       	ld	r25, X+
     d9a:	0d 90       	ld	r0, X+
     d9c:	bc 91       	ld	r27, X
     d9e:	a0 2d       	mov	r26, r0
     da0:	89 83       	std	Y+1, r24	; 0x01
     da2:	9a 83       	std	Y+2, r25	; 0x02
     da4:	ab 83       	std	Y+3, r26	; 0x03
     da6:	bc 83       	std	Y+4, r27	; 0x04
     da8:	41 15       	cp	r20, r1
     daa:	51 05       	cpc	r21, r1
     dac:	61 05       	cpc	r22, r1
     dae:	71 05       	cpc	r23, r1
     db0:	81 f4       	brne	.+32     	; 0xdd2 <create_chain+0x52>
     db2:	f1 01       	movw	r30, r2
     db4:	82 84       	ldd	r8, Z+10	; 0x0a
     db6:	93 84       	ldd	r9, Z+11	; 0x0b
     db8:	a4 84       	ldd	r10, Z+12	; 0x0c
     dba:	b5 84       	ldd	r11, Z+13	; 0x0d
     dbc:	81 14       	cp	r8, r1
     dbe:	91 04       	cpc	r9, r1
     dc0:	a1 04       	cpc	r10, r1
     dc2:	b1 04       	cpc	r11, r1
     dc4:	11 f1       	breq	.+68     	; 0xe0a <create_chain+0x8a>
     dc6:	88 16       	cp	r8, r24
     dc8:	99 06       	cpc	r9, r25
     dca:	aa 06       	cpc	r10, r26
     dcc:	bb 06       	cpc	r11, r27
     dce:	e8 f4       	brcc	.+58     	; 0xe0a <create_chain+0x8a>
     dd0:	21 c0       	rjmp	.+66     	; 0xe14 <create_chain+0x94>
     dd2:	c1 01       	movw	r24, r2
     dd4:	0e 94 19 05 	call	0xa32	; 0xa32 <get_fat>
     dd8:	9b 01       	movw	r18, r22
     dda:	ac 01       	movw	r20, r24
     ddc:	62 30       	cpi	r22, 0x02	; 2
     dde:	71 05       	cpc	r23, r1
     de0:	81 05       	cpc	r24, r1
     de2:	91 05       	cpc	r25, r1
     de4:	28 f4       	brcc	.+10     	; 0xdf0 <create_chain+0x70>
     de6:	21 e0       	ldi	r18, 0x01	; 1
     de8:	30 e0       	ldi	r19, 0x00	; 0
     dea:	40 e0       	ldi	r20, 0x00	; 0
     dec:	50 e0       	ldi	r21, 0x00	; 0
     dee:	93 c0       	rjmp	.+294    	; 0xf16 <create_chain+0x196>
     df0:	89 81       	ldd	r24, Y+1	; 0x01
     df2:	9a 81       	ldd	r25, Y+2	; 0x02
     df4:	ab 81       	ldd	r26, Y+3	; 0x03
     df6:	bc 81       	ldd	r27, Y+4	; 0x04
     df8:	28 17       	cp	r18, r24
     dfa:	39 07       	cpc	r19, r25
     dfc:	4a 07       	cpc	r20, r26
     dfe:	5b 07       	cpc	r21, r27
     e00:	08 f4       	brcc	.+2      	; 0xe04 <create_chain+0x84>
     e02:	89 c0       	rjmp	.+274    	; 0xf16 <create_chain+0x196>
     e04:	53 01       	movw	r10, r6
     e06:	42 01       	movw	r8, r4
     e08:	05 c0       	rjmp	.+10     	; 0xe14 <create_chain+0x94>
     e0a:	41 e0       	ldi	r20, 0x01	; 1
     e0c:	84 2e       	mov	r8, r20
     e0e:	91 2c       	mov	r9, r1
     e10:	a1 2c       	mov	r10, r1
     e12:	b1 2c       	mov	r11, r1
     e14:	75 01       	movw	r14, r10
     e16:	64 01       	movw	r12, r8
     e18:	08 94       	sec
     e1a:	c1 1c       	adc	r12, r1
     e1c:	d1 1c       	adc	r13, r1
     e1e:	e1 1c       	adc	r14, r1
     e20:	f1 1c       	adc	r15, r1
     e22:	89 81       	ldd	r24, Y+1	; 0x01
     e24:	9a 81       	ldd	r25, Y+2	; 0x02
     e26:	ab 81       	ldd	r26, Y+3	; 0x03
     e28:	bc 81       	ldd	r27, Y+4	; 0x04
     e2a:	c8 16       	cp	r12, r24
     e2c:	d9 06       	cpc	r13, r25
     e2e:	ea 06       	cpc	r14, r26
     e30:	fb 06       	cpc	r15, r27
     e32:	60 f0       	brcs	.+24     	; 0xe4c <create_chain+0xcc>
     e34:	92 e0       	ldi	r25, 0x02	; 2
     e36:	89 16       	cp	r8, r25
     e38:	91 04       	cpc	r9, r1
     e3a:	a1 04       	cpc	r10, r1
     e3c:	b1 04       	cpc	r11, r1
     e3e:	08 f4       	brcc	.+2      	; 0xe42 <create_chain+0xc2>
     e40:	61 c0       	rjmp	.+194    	; 0xf04 <create_chain+0x184>
     e42:	32 e0       	ldi	r19, 0x02	; 2
     e44:	c3 2e       	mov	r12, r19
     e46:	d1 2c       	mov	r13, r1
     e48:	e1 2c       	mov	r14, r1
     e4a:	f1 2c       	mov	r15, r1
     e4c:	c1 01       	movw	r24, r2
     e4e:	b7 01       	movw	r22, r14
     e50:	a6 01       	movw	r20, r12
     e52:	0e 94 19 05 	call	0xa32	; 0xa32 <get_fat>
     e56:	9b 01       	movw	r18, r22
     e58:	ac 01       	movw	r20, r24
     e5a:	61 15       	cp	r22, r1
     e5c:	71 05       	cpc	r23, r1
     e5e:	81 05       	cpc	r24, r1
     e60:	91 05       	cpc	r25, r1
     e62:	a9 f0       	breq	.+42     	; 0xe8e <create_chain+0x10e>
     e64:	6f 3f       	cpi	r22, 0xFF	; 255
     e66:	af ef       	ldi	r26, 0xFF	; 255
     e68:	7a 07       	cpc	r23, r26
     e6a:	af ef       	ldi	r26, 0xFF	; 255
     e6c:	8a 07       	cpc	r24, r26
     e6e:	af ef       	ldi	r26, 0xFF	; 255
     e70:	9a 07       	cpc	r25, r26
     e72:	09 f4       	brne	.+2      	; 0xe76 <create_chain+0xf6>
     e74:	50 c0       	rjmp	.+160    	; 0xf16 <create_chain+0x196>
     e76:	61 30       	cpi	r22, 0x01	; 1
     e78:	71 05       	cpc	r23, r1
     e7a:	81 05       	cpc	r24, r1
     e7c:	91 05       	cpc	r25, r1
     e7e:	09 f4       	brne	.+2      	; 0xe82 <create_chain+0x102>
     e80:	4a c0       	rjmp	.+148    	; 0xf16 <create_chain+0x196>
     e82:	c8 14       	cp	r12, r8
     e84:	d9 04       	cpc	r13, r9
     e86:	ea 04       	cpc	r14, r10
     e88:	fb 04       	cpc	r15, r11
     e8a:	31 f6       	brne	.-116    	; 0xe18 <create_chain+0x98>
     e8c:	3b c0       	rjmp	.+118    	; 0xf04 <create_chain+0x184>
     e8e:	bc 2c       	mov	r11, r12
     e90:	ad 2c       	mov	r10, r13
     e92:	9e 2c       	mov	r9, r14
     e94:	8f 2c       	mov	r8, r15
     e96:	c1 01       	movw	r24, r2
     e98:	a6 01       	movw	r20, r12
     e9a:	b7 01       	movw	r22, r14
     e9c:	0f ef       	ldi	r16, 0xFF	; 255
     e9e:	1f ef       	ldi	r17, 0xFF	; 255
     ea0:	2f ef       	ldi	r18, 0xFF	; 255
     ea2:	3f e0       	ldi	r19, 0x0F	; 15
     ea4:	0e 94 4f 04 	call	0x89e	; 0x89e <put_fat>
     ea8:	89 2b       	or	r24, r25
     eaa:	89 f5       	brne	.+98     	; 0xf0e <create_chain+0x18e>
     eac:	41 14       	cp	r4, r1
     eae:	51 04       	cpc	r5, r1
     eb0:	61 04       	cpc	r6, r1
     eb2:	71 04       	cpc	r7, r1
     eb4:	49 f0       	breq	.+18     	; 0xec8 <create_chain+0x148>
     eb6:	c1 01       	movw	r24, r2
     eb8:	b3 01       	movw	r22, r6
     eba:	a2 01       	movw	r20, r4
     ebc:	86 01       	movw	r16, r12
     ebe:	97 01       	movw	r18, r14
     ec0:	0e 94 4f 04 	call	0x89e	; 0x89e <put_fat>
     ec4:	89 2b       	or	r24, r25
     ec6:	19 f5       	brne	.+70     	; 0xf0e <create_chain+0x18e>
     ec8:	f1 01       	movw	r30, r2
     eca:	b2 86       	std	Z+10, r11	; 0x0a
     ecc:	a3 86       	std	Z+11, r10	; 0x0b
     ece:	94 86       	std	Z+12, r9	; 0x0c
     ed0:	85 86       	std	Z+13, r8	; 0x0d
     ed2:	86 85       	ldd	r24, Z+14	; 0x0e
     ed4:	97 85       	ldd	r25, Z+15	; 0x0f
     ed6:	a0 89       	ldd	r26, Z+16	; 0x10
     ed8:	b1 89       	ldd	r27, Z+17	; 0x11
     eda:	8f 3f       	cpi	r24, 0xFF	; 255
     edc:	ff ef       	ldi	r31, 0xFF	; 255
     ede:	9f 07       	cpc	r25, r31
     ee0:	ff ef       	ldi	r31, 0xFF	; 255
     ee2:	af 07       	cpc	r26, r31
     ee4:	ff ef       	ldi	r31, 0xFF	; 255
     ee6:	bf 07       	cpc	r27, r31
     ee8:	51 f0       	breq	.+20     	; 0xefe <create_chain+0x17e>
     eea:	01 97       	sbiw	r24, 0x01	; 1
     eec:	a1 09       	sbc	r26, r1
     eee:	b1 09       	sbc	r27, r1
     ef0:	f1 01       	movw	r30, r2
     ef2:	86 87       	std	Z+14, r24	; 0x0e
     ef4:	97 87       	std	Z+15, r25	; 0x0f
     ef6:	a0 8b       	std	Z+16, r26	; 0x10
     ef8:	b1 8b       	std	Z+17, r27	; 0x11
     efa:	81 e0       	ldi	r24, 0x01	; 1
     efc:	85 83       	std	Z+5, r24	; 0x05
     efe:	a7 01       	movw	r20, r14
     f00:	96 01       	movw	r18, r12
     f02:	09 c0       	rjmp	.+18     	; 0xf16 <create_chain+0x196>
     f04:	20 e0       	ldi	r18, 0x00	; 0
     f06:	30 e0       	ldi	r19, 0x00	; 0
     f08:	40 e0       	ldi	r20, 0x00	; 0
     f0a:	50 e0       	ldi	r21, 0x00	; 0
     f0c:	04 c0       	rjmp	.+8      	; 0xf16 <create_chain+0x196>
     f0e:	2f ef       	ldi	r18, 0xFF	; 255
     f10:	3f ef       	ldi	r19, 0xFF	; 255
     f12:	4f ef       	ldi	r20, 0xFF	; 255
     f14:	5f ef       	ldi	r21, 0xFF	; 255
     f16:	b9 01       	movw	r22, r18
     f18:	ca 01       	movw	r24, r20
     f1a:	24 96       	adiw	r28, 0x04	; 4
     f1c:	e2 e1       	ldi	r30, 0x12	; 18
     f1e:	0c 94 6a 2a 	jmp	0x54d4	; 0x54d4 <__epilogue_restores__>

00000f22 <f_lseek>:
     f22:	a6 e0       	ldi	r26, 0x06	; 6
     f24:	b0 e0       	ldi	r27, 0x00	; 0
     f26:	e7 e9       	ldi	r30, 0x97	; 151
     f28:	f7 e0       	ldi	r31, 0x07	; 7
     f2a:	0c 94 4e 2a 	jmp	0x549c	; 0x549c <__prologue_saves__>
     f2e:	9e 83       	std	Y+6, r25	; 0x06
     f30:	8d 83       	std	Y+5, r24	; 0x05
     f32:	3a 01       	movw	r6, r20
     f34:	4b 01       	movw	r8, r22
     f36:	dc 01       	movw	r26, r24
     f38:	12 96       	adiw	r26, 0x02	; 2
     f3a:	6d 91       	ld	r22, X+
     f3c:	7c 91       	ld	r23, X
     f3e:	13 97       	sbiw	r26, 0x03	; 3
     f40:	8d 91       	ld	r24, X+
     f42:	9c 91       	ld	r25, X
     f44:	0e 94 cb 03 	call	0x796	; 0x796 <validate>
     f48:	9c 83       	std	Y+4, r25	; 0x04
     f4a:	8b 83       	std	Y+3, r24	; 0x03
     f4c:	89 2b       	or	r24, r25
     f4e:	09 f0       	breq	.+2      	; 0xf52 <f_lseek+0x30>
     f50:	c7 c1       	rjmp	.+910    	; 0x12e0 <__stack+0x1e1>
     f52:	ed 81       	ldd	r30, Y+5	; 0x05
     f54:	fe 81       	ldd	r31, Y+6	; 0x06
     f56:	84 81       	ldd	r24, Z+4	; 0x04
     f58:	87 fd       	sbrc	r24, 7
     f5a:	92 c0       	rjmp	.+292    	; 0x1080 <f_lseek+0x15e>
     f5c:	ad 81       	ldd	r26, Y+5	; 0x05
     f5e:	be 81       	ldd	r27, Y+6	; 0x06
     f60:	1a 96       	adiw	r26, 0x0a	; 10
     f62:	ad 90       	ld	r10, X+
     f64:	bd 90       	ld	r11, X+
     f66:	cd 90       	ld	r12, X+
     f68:	dc 90       	ld	r13, X
     f6a:	1d 97       	sbiw	r26, 0x0d	; 13
     f6c:	a6 14       	cp	r10, r6
     f6e:	b7 04       	cpc	r11, r7
     f70:	c8 04       	cpc	r12, r8
     f72:	d9 04       	cpc	r13, r9
     f74:	10 f4       	brcc	.+4      	; 0xf7a <f_lseek+0x58>
     f76:	81 ff       	sbrs	r24, 1
     f78:	02 c0       	rjmp	.+4      	; 0xf7e <f_lseek+0x5c>
     f7a:	64 01       	movw	r12, r8
     f7c:	53 01       	movw	r10, r6
     f7e:	ed 81       	ldd	r30, Y+5	; 0x05
     f80:	fe 81       	ldd	r31, Y+6	; 0x06
     f82:	26 81       	ldd	r18, Z+6	; 0x06
     f84:	37 81       	ldd	r19, Z+7	; 0x07
     f86:	40 85       	ldd	r20, Z+8	; 0x08
     f88:	51 85       	ldd	r21, Z+9	; 0x09
     f8a:	16 82       	std	Z+6, r1	; 0x06
     f8c:	17 82       	std	Z+7, r1	; 0x07
     f8e:	10 86       	std	Z+8, r1	; 0x08
     f90:	11 86       	std	Z+9, r1	; 0x09
     f92:	8f ef       	ldi	r24, 0xFF	; 255
     f94:	85 83       	std	Z+5, r24	; 0x05
     f96:	a1 14       	cp	r10, r1
     f98:	b1 04       	cpc	r11, r1
     f9a:	c1 04       	cpc	r12, r1
     f9c:	d1 04       	cpc	r13, r1
     f9e:	09 f4       	brne	.+2      	; 0xfa2 <f_lseek+0x80>
     fa0:	6b c1       	rjmp	.+726    	; 0x1278 <__stack+0x179>
     fa2:	01 90       	ld	r0, Z+
     fa4:	f0 81       	ld	r31, Z
     fa6:	e0 2d       	mov	r30, r0
     fa8:	fa 83       	std	Y+2, r31	; 0x02
     faa:	e9 83       	std	Y+1, r30	; 0x01
     fac:	82 81       	ldd	r24, Z+2	; 0x02
     fae:	68 2e       	mov	r6, r24
     fb0:	77 24       	eor	r7, r7
     fb2:	88 24       	eor	r8, r8
     fb4:	99 24       	eor	r9, r9
     fb6:	69 e0       	ldi	r22, 0x09	; 9
     fb8:	66 0c       	add	r6, r6
     fba:	77 1c       	adc	r7, r7
     fbc:	88 1c       	adc	r8, r8
     fbe:	99 1c       	adc	r9, r9
     fc0:	6a 95       	dec	r22
     fc2:	d1 f7       	brne	.-12     	; 0xfb8 <f_lseek+0x96>
     fc4:	21 15       	cp	r18, r1
     fc6:	31 05       	cpc	r19, r1
     fc8:	41 05       	cpc	r20, r1
     fca:	51 05       	cpc	r21, r1
     fcc:	c1 f1       	breq	.+112    	; 0x103e <f_lseek+0x11c>
     fce:	19 01       	movw	r2, r18
     fd0:	2a 01       	movw	r4, r20
     fd2:	08 94       	sec
     fd4:	21 08       	sbc	r2, r1
     fd6:	31 08       	sbc	r3, r1
     fd8:	41 08       	sbc	r4, r1
     fda:	51 08       	sbc	r5, r1
     fdc:	c6 01       	movw	r24, r12
     fde:	b5 01       	movw	r22, r10
     fe0:	61 50       	subi	r22, 0x01	; 1
     fe2:	70 40       	sbci	r23, 0x00	; 0
     fe4:	80 40       	sbci	r24, 0x00	; 0
     fe6:	90 40       	sbci	r25, 0x00	; 0
     fe8:	a4 01       	movw	r20, r8
     fea:	93 01       	movw	r18, r6
     fec:	0e 94 2c 2a 	call	0x5458	; 0x5458 <__udivmodsi4>
     ff0:	79 01       	movw	r14, r18
     ff2:	8a 01       	movw	r16, r20
     ff4:	c2 01       	movw	r24, r4
     ff6:	b1 01       	movw	r22, r2
     ff8:	a4 01       	movw	r20, r8
     ffa:	93 01       	movw	r18, r6
     ffc:	0e 94 2c 2a 	call	0x5458	; 0x5458 <__udivmodsi4>
    1000:	e2 16       	cp	r14, r18
    1002:	f3 06       	cpc	r15, r19
    1004:	04 07       	cpc	r16, r20
    1006:	15 07       	cpc	r17, r21
    1008:	d0 f0       	brcs	.+52     	; 0x103e <f_lseek+0x11c>
    100a:	88 27       	eor	r24, r24
    100c:	99 27       	eor	r25, r25
    100e:	dc 01       	movw	r26, r24
    1010:	86 19       	sub	r24, r6
    1012:	97 09       	sbc	r25, r7
    1014:	a8 09       	sbc	r26, r8
    1016:	b9 09       	sbc	r27, r9
    1018:	82 21       	and	r24, r2
    101a:	93 21       	and	r25, r3
    101c:	a4 21       	and	r26, r4
    101e:	b5 21       	and	r27, r5
    1020:	ed 81       	ldd	r30, Y+5	; 0x05
    1022:	fe 81       	ldd	r31, Y+6	; 0x06
    1024:	86 83       	std	Z+6, r24	; 0x06
    1026:	97 83       	std	Z+7, r25	; 0x07
    1028:	a0 87       	std	Z+8, r26	; 0x08
    102a:	b1 87       	std	Z+9, r27	; 0x09
    102c:	a8 1a       	sub	r10, r24
    102e:	b9 0a       	sbc	r11, r25
    1030:	ca 0a       	sbc	r12, r26
    1032:	db 0a       	sbc	r13, r27
    1034:	42 89       	ldd	r20, Z+18	; 0x12
    1036:	53 89       	ldd	r21, Z+19	; 0x13
    1038:	64 89       	ldd	r22, Z+20	; 0x14
    103a:	75 89       	ldd	r23, Z+21	; 0x15
    103c:	47 c0       	rjmp	.+142    	; 0x10cc <f_lseek+0x1aa>
    103e:	ad 81       	ldd	r26, Y+5	; 0x05
    1040:	be 81       	ldd	r27, Y+6	; 0x06
    1042:	1e 96       	adiw	r26, 0x0e	; 14
    1044:	4d 91       	ld	r20, X+
    1046:	5d 91       	ld	r21, X+
    1048:	6d 91       	ld	r22, X+
    104a:	7c 91       	ld	r23, X
    104c:	51 97       	sbiw	r26, 0x11	; 17
    104e:	41 15       	cp	r20, r1
    1050:	51 05       	cpc	r21, r1
    1052:	61 05       	cpc	r22, r1
    1054:	71 05       	cpc	r23, r1
    1056:	a1 f5       	brne	.+104    	; 0x10c0 <f_lseek+0x19e>
    1058:	89 81       	ldd	r24, Y+1	; 0x01
    105a:	9a 81       	ldd	r25, Y+2	; 0x02
    105c:	40 e0       	ldi	r20, 0x00	; 0
    105e:	50 e0       	ldi	r21, 0x00	; 0
    1060:	60 e0       	ldi	r22, 0x00	; 0
    1062:	70 e0       	ldi	r23, 0x00	; 0
    1064:	0e 94 c0 06 	call	0xd80	; 0xd80 <create_chain>
    1068:	ab 01       	movw	r20, r22
    106a:	bc 01       	movw	r22, r24
    106c:	41 30       	cpi	r20, 0x01	; 1
    106e:	51 05       	cpc	r21, r1
    1070:	61 05       	cpc	r22, r1
    1072:	71 05       	cpc	r23, r1
    1074:	51 f4       	brne	.+20     	; 0x108a <f_lseek+0x168>
    1076:	ed 81       	ldd	r30, Y+5	; 0x05
    1078:	fe 81       	ldd	r31, Y+6	; 0x06
    107a:	84 81       	ldd	r24, Z+4	; 0x04
    107c:	80 68       	ori	r24, 0x80	; 128
    107e:	84 83       	std	Z+4, r24	; 0x04
    1080:	82 e0       	ldi	r24, 0x02	; 2
    1082:	90 e0       	ldi	r25, 0x00	; 0
    1084:	9c 83       	std	Y+4, r25	; 0x04
    1086:	8b 83       	std	Y+3, r24	; 0x03
    1088:	2b c1       	rjmp	.+598    	; 0x12e0 <__stack+0x1e1>
    108a:	4f 3f       	cpi	r20, 0xFF	; 255
    108c:	9f ef       	ldi	r25, 0xFF	; 255
    108e:	59 07       	cpc	r21, r25
    1090:	9f ef       	ldi	r25, 0xFF	; 255
    1092:	69 07       	cpc	r22, r25
    1094:	9f ef       	ldi	r25, 0xFF	; 255
    1096:	79 07       	cpc	r23, r25
    1098:	59 f4       	brne	.+22     	; 0x10b0 <f_lseek+0x18e>
    109a:	ad 81       	ldd	r26, Y+5	; 0x05
    109c:	be 81       	ldd	r27, Y+6	; 0x06
    109e:	14 96       	adiw	r26, 0x04	; 4
    10a0:	8c 91       	ld	r24, X
    10a2:	14 97       	sbiw	r26, 0x04	; 4
    10a4:	80 68       	ori	r24, 0x80	; 128
    10a6:	14 96       	adiw	r26, 0x04	; 4
    10a8:	8c 93       	st	X, r24
    10aa:	e1 e0       	ldi	r30, 0x01	; 1
    10ac:	f0 e0       	ldi	r31, 0x00	; 0
    10ae:	d7 c0       	rjmp	.+430    	; 0x125e <__stack+0x15f>
    10b0:	ad 81       	ldd	r26, Y+5	; 0x05
    10b2:	be 81       	ldd	r27, Y+6	; 0x06
    10b4:	1e 96       	adiw	r26, 0x0e	; 14
    10b6:	4d 93       	st	X+, r20
    10b8:	5d 93       	st	X+, r21
    10ba:	6d 93       	st	X+, r22
    10bc:	7c 93       	st	X, r23
    10be:	51 97       	sbiw	r26, 0x11	; 17
    10c0:	ed 81       	ldd	r30, Y+5	; 0x05
    10c2:	fe 81       	ldd	r31, Y+6	; 0x06
    10c4:	42 8b       	std	Z+18, r20	; 0x12
    10c6:	53 8b       	std	Z+19, r21	; 0x13
    10c8:	64 8b       	std	Z+20, r22	; 0x14
    10ca:	75 8b       	std	Z+21, r23	; 0x15
    10cc:	41 15       	cp	r20, r1
    10ce:	51 05       	cpc	r21, r1
    10d0:	61 05       	cpc	r22, r1
    10d2:	71 05       	cpc	r23, r1
    10d4:	09 f0       	breq	.+2      	; 0x10d8 <f_lseek+0x1b6>
    10d6:	59 c0       	rjmp	.+178    	; 0x118a <__stack+0x8b>
    10d8:	cf c0       	rjmp	.+414    	; 0x1278 <__stack+0x179>
    10da:	ad 81       	ldd	r26, Y+5	; 0x05
    10dc:	be 81       	ldd	r27, Y+6	; 0x06
    10de:	14 96       	adiw	r26, 0x04	; 4
    10e0:	8c 91       	ld	r24, X
    10e2:	14 97       	sbiw	r26, 0x04	; 4
    10e4:	2d 91       	ld	r18, X+
    10e6:	3c 91       	ld	r19, X
    10e8:	81 ff       	sbrs	r24, 1
    10ea:	0d c0       	rjmp	.+26     	; 0x1106 <__stack+0x7>
    10ec:	c9 01       	movw	r24, r18
    10ee:	0e 94 c0 06 	call	0xd80	; 0xd80 <create_chain>
    10f2:	ab 01       	movw	r20, r22
    10f4:	bc 01       	movw	r22, r24
    10f6:	41 15       	cp	r20, r1
    10f8:	51 05       	cpc	r21, r1
    10fa:	61 05       	cpc	r22, r1
    10fc:	71 05       	cpc	r23, r1
    10fe:	41 f4       	brne	.+16     	; 0x1110 <__stack+0x11>
    1100:	64 01       	movw	r12, r8
    1102:	53 01       	movw	r10, r6
    1104:	48 c0       	rjmp	.+144    	; 0x1196 <__stack+0x97>
    1106:	c9 01       	movw	r24, r18
    1108:	0e 94 19 05 	call	0xa32	; 0xa32 <get_fat>
    110c:	ab 01       	movw	r20, r22
    110e:	bc 01       	movw	r22, r24
    1110:	4f 3f       	cpi	r20, 0xFF	; 255
    1112:	bf ef       	ldi	r27, 0xFF	; 255
    1114:	5b 07       	cpc	r21, r27
    1116:	bf ef       	ldi	r27, 0xFF	; 255
    1118:	6b 07       	cpc	r22, r27
    111a:	bf ef       	ldi	r27, 0xFF	; 255
    111c:	7b 07       	cpc	r23, r27
    111e:	41 f4       	brne	.+16     	; 0x1130 <__stack+0x31>
    1120:	ed 81       	ldd	r30, Y+5	; 0x05
    1122:	fe 81       	ldd	r31, Y+6	; 0x06
    1124:	84 81       	ldd	r24, Z+4	; 0x04
    1126:	80 68       	ori	r24, 0x80	; 128
    1128:	84 83       	std	Z+4, r24	; 0x04
    112a:	81 e0       	ldi	r24, 0x01	; 1
    112c:	90 e0       	ldi	r25, 0x00	; 0
    112e:	aa cf       	rjmp	.-172    	; 0x1084 <f_lseek+0x162>
    1130:	42 30       	cpi	r20, 0x02	; 2
    1132:	51 05       	cpc	r21, r1
    1134:	61 05       	cpc	r22, r1
    1136:	71 05       	cpc	r23, r1
    1138:	08 f4       	brcc	.+2      	; 0x113c <__stack+0x3d>
    113a:	9d cf       	rjmp	.-198    	; 0x1076 <f_lseek+0x154>
    113c:	ad 81       	ldd	r26, Y+5	; 0x05
    113e:	be 81       	ldd	r27, Y+6	; 0x06
    1140:	ed 91       	ld	r30, X+
    1142:	fc 91       	ld	r31, X
    1144:	86 8d       	ldd	r24, Z+30	; 0x1e
    1146:	97 8d       	ldd	r25, Z+31	; 0x1f
    1148:	a0 a1       	ldd	r26, Z+32	; 0x20
    114a:	b1 a1       	ldd	r27, Z+33	; 0x21
    114c:	48 17       	cp	r20, r24
    114e:	59 07       	cpc	r21, r25
    1150:	6a 07       	cpc	r22, r26
    1152:	7b 07       	cpc	r23, r27
    1154:	08 f0       	brcs	.+2      	; 0x1158 <__stack+0x59>
    1156:	8f cf       	rjmp	.-226    	; 0x1076 <f_lseek+0x154>
    1158:	ad 81       	ldd	r26, Y+5	; 0x05
    115a:	be 81       	ldd	r27, Y+6	; 0x06
    115c:	52 96       	adiw	r26, 0x12	; 18
    115e:	4d 93       	st	X+, r20
    1160:	5d 93       	st	X+, r21
    1162:	6d 93       	st	X+, r22
    1164:	7c 93       	st	X, r23
    1166:	55 97       	sbiw	r26, 0x15	; 21
    1168:	fd 01       	movw	r30, r26
    116a:	86 81       	ldd	r24, Z+6	; 0x06
    116c:	97 81       	ldd	r25, Z+7	; 0x07
    116e:	a0 85       	ldd	r26, Z+8	; 0x08
    1170:	b1 85       	ldd	r27, Z+9	; 0x09
    1172:	86 0d       	add	r24, r6
    1174:	97 1d       	adc	r25, r7
    1176:	a8 1d       	adc	r26, r8
    1178:	b9 1d       	adc	r27, r9
    117a:	86 83       	std	Z+6, r24	; 0x06
    117c:	97 83       	std	Z+7, r25	; 0x07
    117e:	a0 87       	std	Z+8, r26	; 0x08
    1180:	b1 87       	std	Z+9, r27	; 0x09
    1182:	a6 18       	sub	r10, r6
    1184:	b7 08       	sbc	r11, r7
    1186:	c8 08       	sbc	r12, r8
    1188:	d9 08       	sbc	r13, r9
    118a:	6a 14       	cp	r6, r10
    118c:	7b 04       	cpc	r7, r11
    118e:	8c 04       	cpc	r8, r12
    1190:	9d 04       	cpc	r9, r13
    1192:	08 f4       	brcc	.+2      	; 0x1196 <__stack+0x97>
    1194:	a2 cf       	rjmp	.-188    	; 0x10da <f_lseek+0x1b8>
    1196:	ed 81       	ldd	r30, Y+5	; 0x05
    1198:	fe 81       	ldd	r31, Y+6	; 0x06
    119a:	86 81       	ldd	r24, Z+6	; 0x06
    119c:	97 81       	ldd	r25, Z+7	; 0x07
    119e:	a0 85       	ldd	r26, Z+8	; 0x08
    11a0:	b1 85       	ldd	r27, Z+9	; 0x09
    11a2:	8a 0d       	add	r24, r10
    11a4:	9b 1d       	adc	r25, r11
    11a6:	ac 1d       	adc	r26, r12
    11a8:	bd 1d       	adc	r27, r13
    11aa:	86 83       	std	Z+6, r24	; 0x06
    11ac:	97 83       	std	Z+7, r25	; 0x07
    11ae:	a0 87       	std	Z+8, r26	; 0x08
    11b0:	b1 87       	std	Z+9, r27	; 0x09
    11b2:	d6 01       	movw	r26, r12
    11b4:	c5 01       	movw	r24, r10
    11b6:	29 e0       	ldi	r18, 0x09	; 9
    11b8:	b6 95       	lsr	r27
    11ba:	a7 95       	ror	r26
    11bc:	97 95       	ror	r25
    11be:	87 95       	ror	r24
    11c0:	2a 95       	dec	r18
    11c2:	d1 f7       	brne	.-12     	; 0x11b8 <__stack+0xb9>
    11c4:	e8 2e       	mov	r14, r24
    11c6:	85 83       	std	Z+5, r24	; 0x05
    11c8:	8f ef       	ldi	r24, 0xFF	; 255
    11ca:	91 e0       	ldi	r25, 0x01	; 1
    11cc:	a0 e0       	ldi	r26, 0x00	; 0
    11ce:	b0 e0       	ldi	r27, 0x00	; 0
    11d0:	a8 22       	and	r10, r24
    11d2:	b9 22       	and	r11, r25
    11d4:	ca 22       	and	r12, r26
    11d6:	db 22       	and	r13, r27
    11d8:	a1 14       	cp	r10, r1
    11da:	b1 04       	cpc	r11, r1
    11dc:	c1 04       	cpc	r12, r1
    11de:	d1 04       	cpc	r13, r1
    11e0:	09 f4       	brne	.+2      	; 0x11e4 <__stack+0xe5>
    11e2:	4a c0       	rjmp	.+148    	; 0x1278 <__stack+0x179>
    11e4:	80 80       	ld	r8, Z
    11e6:	91 80       	ldd	r9, Z+1	; 0x01
    11e8:	ee ef       	ldi	r30, 0xFE	; 254
    11ea:	ae 2e       	mov	r10, r30
    11ec:	ef ef       	ldi	r30, 0xFF	; 255
    11ee:	be 2e       	mov	r11, r30
    11f0:	ef ef       	ldi	r30, 0xFF	; 255
    11f2:	ce 2e       	mov	r12, r30
    11f4:	ef ef       	ldi	r30, 0xFF	; 255
    11f6:	de 2e       	mov	r13, r30
    11f8:	a4 0e       	add	r10, r20
    11fa:	b5 1e       	adc	r11, r21
    11fc:	c6 1e       	adc	r12, r22
    11fe:	d7 1e       	adc	r13, r23
    1200:	f4 01       	movw	r30, r8
    1202:	86 8d       	ldd	r24, Z+30	; 0x1e
    1204:	97 8d       	ldd	r25, Z+31	; 0x1f
    1206:	a0 a1       	ldd	r26, Z+32	; 0x20
    1208:	b1 a1       	ldd	r27, Z+33	; 0x21
    120a:	02 97       	sbiw	r24, 0x02	; 2
    120c:	a1 09       	sbc	r26, r1
    120e:	b1 09       	sbc	r27, r1
    1210:	a8 16       	cp	r10, r24
    1212:	b9 06       	cpc	r11, r25
    1214:	ca 06       	cpc	r12, r26
    1216:	db 06       	cpc	r13, r27
    1218:	c0 f4       	brcc	.+48     	; 0x124a <__stack+0x14b>
    121a:	22 81       	ldd	r18, Z+2	; 0x02
    121c:	30 e0       	ldi	r19, 0x00	; 0
    121e:	40 e0       	ldi	r20, 0x00	; 0
    1220:	50 e0       	ldi	r21, 0x00	; 0
    1222:	c6 01       	movw	r24, r12
    1224:	b5 01       	movw	r22, r10
    1226:	0e 94 0d 2a 	call	0x541a	; 0x541a <__mulsi3>
    122a:	9b 01       	movw	r18, r22
    122c:	ac 01       	movw	r20, r24
    122e:	f4 01       	movw	r30, r8
    1230:	82 a5       	ldd	r24, Z+42	; 0x2a
    1232:	93 a5       	ldd	r25, Z+43	; 0x2b
    1234:	a4 a5       	ldd	r26, Z+44	; 0x2c
    1236:	b5 a5       	ldd	r27, Z+45	; 0x2d
    1238:	28 0f       	add	r18, r24
    123a:	39 1f       	adc	r19, r25
    123c:	4a 1f       	adc	r20, r26
    123e:	5b 1f       	adc	r21, r27
    1240:	21 15       	cp	r18, r1
    1242:	31 05       	cpc	r19, r1
    1244:	41 05       	cpc	r20, r1
    1246:	51 05       	cpc	r21, r1
    1248:	69 f4       	brne	.+26     	; 0x1264 <__stack+0x165>
    124a:	ad 81       	ldd	r26, Y+5	; 0x05
    124c:	be 81       	ldd	r27, Y+6	; 0x06
    124e:	14 96       	adiw	r26, 0x04	; 4
    1250:	8c 91       	ld	r24, X
    1252:	14 97       	sbiw	r26, 0x04	; 4
    1254:	80 68       	ori	r24, 0x80	; 128
    1256:	14 96       	adiw	r26, 0x04	; 4
    1258:	8c 93       	st	X, r24
    125a:	e2 e0       	ldi	r30, 0x02	; 2
    125c:	f0 e0       	ldi	r31, 0x00	; 0
    125e:	fc 83       	std	Y+4, r31	; 0x04
    1260:	eb 83       	std	Y+3, r30	; 0x03
    1262:	3e c0       	rjmp	.+124    	; 0x12e0 <__stack+0x1e1>
    1264:	2e 0d       	add	r18, r14
    1266:	31 1d       	adc	r19, r1
    1268:	41 1d       	adc	r20, r1
    126a:	51 1d       	adc	r21, r1
    126c:	e3 94       	inc	r14
    126e:	ad 81       	ldd	r26, Y+5	; 0x05
    1270:	be 81       	ldd	r27, Y+6	; 0x06
    1272:	15 96       	adiw	r26, 0x05	; 5
    1274:	ec 92       	st	X, r14
    1276:	04 c0       	rjmp	.+8      	; 0x1280 <__stack+0x181>
    1278:	20 e0       	ldi	r18, 0x00	; 0
    127a:	30 e0       	ldi	r19, 0x00	; 0
    127c:	40 e0       	ldi	r20, 0x00	; 0
    127e:	50 e0       	ldi	r21, 0x00	; 0
    1280:	ed 81       	ldd	r30, Y+5	; 0x05
    1282:	fe 81       	ldd	r31, Y+6	; 0x06
    1284:	86 81       	ldd	r24, Z+6	; 0x06
    1286:	97 81       	ldd	r25, Z+7	; 0x07
    1288:	a0 85       	ldd	r26, Z+8	; 0x08
    128a:	b1 85       	ldd	r27, Z+9	; 0x09
    128c:	91 70       	andi	r25, 0x01	; 1
    128e:	a0 70       	andi	r26, 0x00	; 0
    1290:	b0 70       	andi	r27, 0x00	; 0
    1292:	00 97       	sbiw	r24, 0x00	; 0
    1294:	a1 05       	cpc	r26, r1
    1296:	b1 05       	cpc	r27, r1
    1298:	69 f0       	breq	.+26     	; 0x12b4 <__stack+0x1b5>
    129a:	86 89       	ldd	r24, Z+22	; 0x16
    129c:	97 89       	ldd	r25, Z+23	; 0x17
    129e:	a0 8d       	ldd	r26, Z+24	; 0x18
    12a0:	b1 8d       	ldd	r27, Z+25	; 0x19
    12a2:	28 17       	cp	r18, r24
    12a4:	39 07       	cpc	r19, r25
    12a6:	4a 07       	cpc	r20, r26
    12a8:	5b 07       	cpc	r21, r27
    12aa:	21 f0       	breq	.+8      	; 0x12b4 <__stack+0x1b5>
    12ac:	26 8b       	std	Z+22, r18	; 0x16
    12ae:	37 8b       	std	Z+23, r19	; 0x17
    12b0:	40 8f       	std	Z+24, r20	; 0x18
    12b2:	51 8f       	std	Z+25, r21	; 0x19
    12b4:	ed 81       	ldd	r30, Y+5	; 0x05
    12b6:	fe 81       	ldd	r31, Y+6	; 0x06
    12b8:	26 81       	ldd	r18, Z+6	; 0x06
    12ba:	37 81       	ldd	r19, Z+7	; 0x07
    12bc:	40 85       	ldd	r20, Z+8	; 0x08
    12be:	51 85       	ldd	r21, Z+9	; 0x09
    12c0:	82 85       	ldd	r24, Z+10	; 0x0a
    12c2:	93 85       	ldd	r25, Z+11	; 0x0b
    12c4:	a4 85       	ldd	r26, Z+12	; 0x0c
    12c6:	b5 85       	ldd	r27, Z+13	; 0x0d
    12c8:	82 17       	cp	r24, r18
    12ca:	93 07       	cpc	r25, r19
    12cc:	a4 07       	cpc	r26, r20
    12ce:	b5 07       	cpc	r27, r21
    12d0:	38 f4       	brcc	.+14     	; 0x12e0 <__stack+0x1e1>
    12d2:	22 87       	std	Z+10, r18	; 0x0a
    12d4:	33 87       	std	Z+11, r19	; 0x0b
    12d6:	44 87       	std	Z+12, r20	; 0x0c
    12d8:	55 87       	std	Z+13, r21	; 0x0d
    12da:	84 81       	ldd	r24, Z+4	; 0x04
    12dc:	80 62       	ori	r24, 0x20	; 32
    12de:	84 83       	std	Z+4, r24	; 0x04
    12e0:	8b 81       	ldd	r24, Y+3	; 0x03
    12e2:	9c 81       	ldd	r25, Y+4	; 0x04
    12e4:	26 96       	adiw	r28, 0x06	; 6
    12e6:	e2 e1       	ldi	r30, 0x12	; 18
    12e8:	0c 94 6a 2a 	jmp	0x54d4	; 0x54d4 <__epilogue_restores__>

000012ec <dir_next>:
    12ec:	a0 e0       	ldi	r26, 0x00	; 0
    12ee:	b0 e0       	ldi	r27, 0x00	; 0
    12f0:	ec e7       	ldi	r30, 0x7C	; 124
    12f2:	f9 e0       	ldi	r31, 0x09	; 9
    12f4:	0c 94 50 2a 	jmp	0x54a0	; 0x54a0 <__prologue_saves__+0x4>
    12f8:	ec 01       	movw	r28, r24
    12fa:	6b 01       	movw	r12, r22
    12fc:	6c 80       	ldd	r6, Y+4	; 0x04
    12fe:	7d 80       	ldd	r7, Y+5	; 0x05
    1300:	08 94       	sec
    1302:	61 1c       	adc	r6, r1
    1304:	71 1c       	adc	r7, r1
    1306:	61 14       	cp	r6, r1
    1308:	71 04       	cpc	r7, r1
    130a:	09 f4       	brne	.+2      	; 0x130e <dir_next+0x22>
    130c:	4a c1       	rjmp	.+660    	; 0x15a2 <dir_next+0x2b6>
    130e:	8e 85       	ldd	r24, Y+14	; 0x0e
    1310:	9f 85       	ldd	r25, Y+15	; 0x0f
    1312:	a8 89       	ldd	r26, Y+16	; 0x10
    1314:	b9 89       	ldd	r27, Y+17	; 0x11
    1316:	00 97       	sbiw	r24, 0x00	; 0
    1318:	a1 05       	cpc	r26, r1
    131a:	b1 05       	cpc	r27, r1
    131c:	09 f4       	brne	.+2      	; 0x1320 <dir_next+0x34>
    131e:	41 c1       	rjmp	.+642    	; 0x15a2 <dir_next+0x2b6>
    1320:	2f e0       	ldi	r18, 0x0F	; 15
    1322:	42 2e       	mov	r4, r18
    1324:	51 2c       	mov	r5, r1
    1326:	46 20       	and	r4, r6
    1328:	57 20       	and	r5, r7
    132a:	41 14       	cp	r4, r1
    132c:	51 04       	cpc	r5, r1
    132e:	09 f0       	breq	.+2      	; 0x1332 <dir_next+0x46>
    1330:	27 c1       	rjmp	.+590    	; 0x1580 <dir_next+0x294>
    1332:	01 96       	adiw	r24, 0x01	; 1
    1334:	a1 1d       	adc	r26, r1
    1336:	b1 1d       	adc	r27, r1
    1338:	8e 87       	std	Y+14, r24	; 0x0e
    133a:	9f 87       	std	Y+15, r25	; 0x0f
    133c:	a8 8b       	std	Y+16, r26	; 0x10
    133e:	b9 8b       	std	Y+17, r27	; 0x11
    1340:	4a 85       	ldd	r20, Y+10	; 0x0a
    1342:	5b 85       	ldd	r21, Y+11	; 0x0b
    1344:	6c 85       	ldd	r22, Y+12	; 0x0c
    1346:	7d 85       	ldd	r23, Y+13	; 0x0d
    1348:	e8 81       	ld	r30, Y
    134a:	f9 81       	ldd	r31, Y+1	; 0x01
    134c:	41 15       	cp	r20, r1
    134e:	51 05       	cpc	r21, r1
    1350:	61 05       	cpc	r22, r1
    1352:	71 05       	cpc	r23, r1
    1354:	39 f4       	brne	.+14     	; 0x1364 <dir_next+0x78>
    1356:	80 85       	ldd	r24, Z+8	; 0x08
    1358:	91 85       	ldd	r25, Z+9	; 0x09
    135a:	68 16       	cp	r6, r24
    135c:	79 06       	cpc	r7, r25
    135e:	08 f4       	brcc	.+2      	; 0x1362 <dir_next+0x76>
    1360:	0f c1       	rjmp	.+542    	; 0x1580 <dir_next+0x294>
    1362:	1f c1       	rjmp	.+574    	; 0x15a2 <dir_next+0x2b6>
    1364:	82 81       	ldd	r24, Z+2	; 0x02
    1366:	90 e0       	ldi	r25, 0x00	; 0
    1368:	01 97       	sbiw	r24, 0x01	; 1
    136a:	93 01       	movw	r18, r6
    136c:	a4 e0       	ldi	r26, 0x04	; 4
    136e:	36 95       	lsr	r19
    1370:	27 95       	ror	r18
    1372:	aa 95       	dec	r26
    1374:	e1 f7       	brne	.-8      	; 0x136e <dir_next+0x82>
    1376:	82 23       	and	r24, r18
    1378:	93 23       	and	r25, r19
    137a:	89 2b       	or	r24, r25
    137c:	09 f0       	breq	.+2      	; 0x1380 <dir_next+0x94>
    137e:	00 c1       	rjmp	.+512    	; 0x1580 <dir_next+0x294>
    1380:	cf 01       	movw	r24, r30
    1382:	0e 94 19 05 	call	0xa32	; 0xa32 <get_fat>
    1386:	7b 01       	movw	r14, r22
    1388:	8c 01       	movw	r16, r24
    138a:	82 e0       	ldi	r24, 0x02	; 2
    138c:	e8 16       	cp	r14, r24
    138e:	f1 04       	cpc	r15, r1
    1390:	01 05       	cpc	r16, r1
    1392:	11 05       	cpc	r17, r1
    1394:	08 f4       	brcc	.+2      	; 0x1398 <dir_next+0xac>
    1396:	08 c1       	rjmp	.+528    	; 0x15a8 <dir_next+0x2bc>
    1398:	9f ef       	ldi	r25, 0xFF	; 255
    139a:	e9 16       	cp	r14, r25
    139c:	9f ef       	ldi	r25, 0xFF	; 255
    139e:	f9 06       	cpc	r15, r25
    13a0:	9f ef       	ldi	r25, 0xFF	; 255
    13a2:	09 07       	cpc	r16, r25
    13a4:	9f ef       	ldi	r25, 0xFF	; 255
    13a6:	19 07       	cpc	r17, r25
    13a8:	09 f4       	brne	.+2      	; 0x13ac <dir_next+0xc0>
    13aa:	01 c1       	rjmp	.+514    	; 0x15ae <dir_next+0x2c2>
    13ac:	e8 81       	ld	r30, Y
    13ae:	f9 81       	ldd	r31, Y+1	; 0x01
    13b0:	86 8d       	ldd	r24, Z+30	; 0x1e
    13b2:	97 8d       	ldd	r25, Z+31	; 0x1f
    13b4:	a0 a1       	ldd	r26, Z+32	; 0x20
    13b6:	b1 a1       	ldd	r27, Z+33	; 0x21
    13b8:	e8 16       	cp	r14, r24
    13ba:	f9 06       	cpc	r15, r25
    13bc:	0a 07       	cpc	r16, r26
    13be:	1b 07       	cpc	r17, r27
    13c0:	08 f4       	brcc	.+2      	; 0x13c4 <dir_next+0xd8>
    13c2:	a5 c0       	rjmp	.+330    	; 0x150e <dir_next+0x222>
    13c4:	c1 14       	cp	r12, r1
    13c6:	d1 04       	cpc	r13, r1
    13c8:	09 f4       	brne	.+2      	; 0x13cc <dir_next+0xe0>
    13ca:	eb c0       	rjmp	.+470    	; 0x15a2 <dir_next+0x2b6>
    13cc:	4a 85       	ldd	r20, Y+10	; 0x0a
    13ce:	5b 85       	ldd	r21, Y+11	; 0x0b
    13d0:	6c 85       	ldd	r22, Y+12	; 0x0c
    13d2:	7d 85       	ldd	r23, Y+13	; 0x0d
    13d4:	cf 01       	movw	r24, r30
    13d6:	0e 94 c0 06 	call	0xd80	; 0xd80 <create_chain>
    13da:	7b 01       	movw	r14, r22
    13dc:	8c 01       	movw	r16, r24
    13de:	61 15       	cp	r22, r1
    13e0:	71 05       	cpc	r23, r1
    13e2:	81 05       	cpc	r24, r1
    13e4:	91 05       	cpc	r25, r1
    13e6:	19 f4       	brne	.+6      	; 0x13ee <dir_next+0x102>
    13e8:	27 e0       	ldi	r18, 0x07	; 7
    13ea:	30 e0       	ldi	r19, 0x00	; 0
    13ec:	e2 c0       	rjmp	.+452    	; 0x15b2 <dir_next+0x2c6>
    13ee:	61 30       	cpi	r22, 0x01	; 1
    13f0:	71 05       	cpc	r23, r1
    13f2:	81 05       	cpc	r24, r1
    13f4:	91 05       	cpc	r25, r1
    13f6:	09 f4       	brne	.+2      	; 0x13fa <dir_next+0x10e>
    13f8:	d7 c0       	rjmp	.+430    	; 0x15a8 <dir_next+0x2bc>
    13fa:	6f 3f       	cpi	r22, 0xFF	; 255
    13fc:	bf ef       	ldi	r27, 0xFF	; 255
    13fe:	7b 07       	cpc	r23, r27
    1400:	bf ef       	ldi	r27, 0xFF	; 255
    1402:	8b 07       	cpc	r24, r27
    1404:	bf ef       	ldi	r27, 0xFF	; 255
    1406:	9b 07       	cpc	r25, r27
    1408:	09 f4       	brne	.+2      	; 0x140c <dir_next+0x120>
    140a:	d1 c0       	rjmp	.+418    	; 0x15ae <dir_next+0x2c2>
    140c:	88 81       	ld	r24, Y
    140e:	99 81       	ldd	r25, Y+1	; 0x01
    1410:	40 e0       	ldi	r20, 0x00	; 0
    1412:	50 e0       	ldi	r21, 0x00	; 0
    1414:	60 e0       	ldi	r22, 0x00	; 0
    1416:	70 e0       	ldi	r23, 0x00	; 0
    1418:	0e 94 e5 03 	call	0x7ca	; 0x7ca <move_window>
    141c:	89 2b       	or	r24, r25
    141e:	09 f0       	breq	.+2      	; 0x1422 <dir_next+0x136>
    1420:	c6 c0       	rjmp	.+396    	; 0x15ae <dir_next+0x2c2>
    1422:	88 81       	ld	r24, Y
    1424:	99 81       	ldd	r25, Y+1	; 0x01
    1426:	fc 01       	movw	r30, r24
    1428:	f2 96       	adiw	r30, 0x32	; 50
    142a:	8e 5c       	subi	r24, 0xCE	; 206
    142c:	9d 4f       	sbci	r25, 0xFD	; 253
    142e:	01 c0       	rjmp	.+2      	; 0x1432 <dir_next+0x146>
    1430:	11 92       	st	Z+, r1
    1432:	e8 17       	cp	r30, r24
    1434:	f9 07       	cpc	r31, r25
    1436:	e1 f7       	brne	.-8      	; 0x1430 <dir_next+0x144>
    1438:	88 80       	ld	r8, Y
    143a:	99 80       	ldd	r9, Y+1	; 0x01
    143c:	ee ef       	ldi	r30, 0xFE	; 254
    143e:	ae 2e       	mov	r10, r30
    1440:	ef ef       	ldi	r30, 0xFF	; 255
    1442:	be 2e       	mov	r11, r30
    1444:	ef ef       	ldi	r30, 0xFF	; 255
    1446:	ce 2e       	mov	r12, r30
    1448:	ef ef       	ldi	r30, 0xFF	; 255
    144a:	de 2e       	mov	r13, r30
    144c:	ae 0c       	add	r10, r14
    144e:	bf 1c       	adc	r11, r15
    1450:	c0 1e       	adc	r12, r16
    1452:	d1 1e       	adc	r13, r17
    1454:	f4 01       	movw	r30, r8
    1456:	86 8d       	ldd	r24, Z+30	; 0x1e
    1458:	97 8d       	ldd	r25, Z+31	; 0x1f
    145a:	a0 a1       	ldd	r26, Z+32	; 0x20
    145c:	b1 a1       	ldd	r27, Z+33	; 0x21
    145e:	02 97       	sbiw	r24, 0x02	; 2
    1460:	a1 09       	sbc	r26, r1
    1462:	b1 09       	sbc	r27, r1
    1464:	a8 16       	cp	r10, r24
    1466:	b9 06       	cpc	r11, r25
    1468:	ca 06       	cpc	r12, r26
    146a:	db 06       	cpc	r13, r27
    146c:	28 f0       	brcs	.+10     	; 0x1478 <dir_next+0x18c>
    146e:	20 e0       	ldi	r18, 0x00	; 0
    1470:	30 e0       	ldi	r19, 0x00	; 0
    1472:	40 e0       	ldi	r20, 0x00	; 0
    1474:	50 e0       	ldi	r21, 0x00	; 0
    1476:	15 c0       	rjmp	.+42     	; 0x14a2 <dir_next+0x1b6>
    1478:	d4 01       	movw	r26, r8
    147a:	12 96       	adiw	r26, 0x02	; 2
    147c:	2c 91       	ld	r18, X
    147e:	30 e0       	ldi	r19, 0x00	; 0
    1480:	40 e0       	ldi	r20, 0x00	; 0
    1482:	50 e0       	ldi	r21, 0x00	; 0
    1484:	c6 01       	movw	r24, r12
    1486:	b5 01       	movw	r22, r10
    1488:	0e 94 0d 2a 	call	0x541a	; 0x541a <__mulsi3>
    148c:	9b 01       	movw	r18, r22
    148e:	ac 01       	movw	r20, r24
    1490:	f4 01       	movw	r30, r8
    1492:	82 a5       	ldd	r24, Z+42	; 0x2a
    1494:	93 a5       	ldd	r25, Z+43	; 0x2b
    1496:	a4 a5       	ldd	r26, Z+44	; 0x2c
    1498:	b5 a5       	ldd	r27, Z+45	; 0x2d
    149a:	28 0f       	add	r18, r24
    149c:	39 1f       	adc	r19, r25
    149e:	4a 1f       	adc	r20, r26
    14a0:	5b 1f       	adc	r21, r27
    14a2:	d4 01       	movw	r26, r8
    14a4:	9e 96       	adiw	r26, 0x2e	; 46
    14a6:	2d 93       	st	X+, r18
    14a8:	3d 93       	st	X+, r19
    14aa:	4d 93       	st	X+, r20
    14ac:	5c 93       	st	X, r21
    14ae:	d1 97       	sbiw	r26, 0x31	; 49
    14b0:	dd 24       	eor	r13, r13
    14b2:	cc 24       	eor	r12, r12
    14b4:	c3 94       	inc	r12
    14b6:	1a c0       	rjmp	.+52     	; 0x14ec <dir_next+0x200>
    14b8:	c4 82       	std	Z+4, r12	; 0x04
    14ba:	88 81       	ld	r24, Y
    14bc:	99 81       	ldd	r25, Y+1	; 0x01
    14be:	40 e0       	ldi	r20, 0x00	; 0
    14c0:	50 e0       	ldi	r21, 0x00	; 0
    14c2:	60 e0       	ldi	r22, 0x00	; 0
    14c4:	70 e0       	ldi	r23, 0x00	; 0
    14c6:	0e 94 e5 03 	call	0x7ca	; 0x7ca <move_window>
    14ca:	89 2b       	or	r24, r25
    14cc:	09 f0       	breq	.+2      	; 0x14d0 <dir_next+0x1e4>
    14ce:	6f c0       	rjmp	.+222    	; 0x15ae <dir_next+0x2c2>
    14d0:	e8 81       	ld	r30, Y
    14d2:	f9 81       	ldd	r31, Y+1	; 0x01
    14d4:	86 a5       	ldd	r24, Z+46	; 0x2e
    14d6:	97 a5       	ldd	r25, Z+47	; 0x2f
    14d8:	a0 a9       	ldd	r26, Z+48	; 0x30
    14da:	b1 a9       	ldd	r27, Z+49	; 0x31
    14dc:	01 96       	adiw	r24, 0x01	; 1
    14de:	a1 1d       	adc	r26, r1
    14e0:	b1 1d       	adc	r27, r1
    14e2:	86 a7       	std	Z+46, r24	; 0x2e
    14e4:	97 a7       	std	Z+47, r25	; 0x2f
    14e6:	a0 ab       	std	Z+48, r26	; 0x30
    14e8:	b1 ab       	std	Z+49, r27	; 0x31
    14ea:	d3 94       	inc	r13
    14ec:	e8 81       	ld	r30, Y
    14ee:	f9 81       	ldd	r31, Y+1	; 0x01
    14f0:	82 81       	ldd	r24, Z+2	; 0x02
    14f2:	d8 16       	cp	r13, r24
    14f4:	08 f3       	brcs	.-62     	; 0x14b8 <dir_next+0x1cc>
    14f6:	86 a5       	ldd	r24, Z+46	; 0x2e
    14f8:	97 a5       	ldd	r25, Z+47	; 0x2f
    14fa:	a0 a9       	ldd	r26, Z+48	; 0x30
    14fc:	b1 a9       	ldd	r27, Z+49	; 0x31
    14fe:	8d 19       	sub	r24, r13
    1500:	91 09       	sbc	r25, r1
    1502:	a1 09       	sbc	r26, r1
    1504:	b1 09       	sbc	r27, r1
    1506:	86 a7       	std	Z+46, r24	; 0x2e
    1508:	97 a7       	std	Z+47, r25	; 0x2f
    150a:	a0 ab       	std	Z+48, r26	; 0x30
    150c:	b1 ab       	std	Z+49, r27	; 0x31
    150e:	ea 86       	std	Y+10, r14	; 0x0a
    1510:	fb 86       	std	Y+11, r15	; 0x0b
    1512:	0c 87       	std	Y+12, r16	; 0x0c
    1514:	1d 87       	std	Y+13, r17	; 0x0d
    1516:	c8 80       	ld	r12, Y
    1518:	d9 80       	ldd	r13, Y+1	; 0x01
    151a:	8e ef       	ldi	r24, 0xFE	; 254
    151c:	9f ef       	ldi	r25, 0xFF	; 255
    151e:	af ef       	ldi	r26, 0xFF	; 255
    1520:	bf ef       	ldi	r27, 0xFF	; 255
    1522:	e8 0e       	add	r14, r24
    1524:	f9 1e       	adc	r15, r25
    1526:	0a 1f       	adc	r16, r26
    1528:	1b 1f       	adc	r17, r27
    152a:	f6 01       	movw	r30, r12
    152c:	86 8d       	ldd	r24, Z+30	; 0x1e
    152e:	97 8d       	ldd	r25, Z+31	; 0x1f
    1530:	a0 a1       	ldd	r26, Z+32	; 0x20
    1532:	b1 a1       	ldd	r27, Z+33	; 0x21
    1534:	02 97       	sbiw	r24, 0x02	; 2
    1536:	a1 09       	sbc	r26, r1
    1538:	b1 09       	sbc	r27, r1
    153a:	e8 16       	cp	r14, r24
    153c:	f9 06       	cpc	r15, r25
    153e:	0a 07       	cpc	r16, r26
    1540:	1b 07       	cpc	r17, r27
    1542:	28 f0       	brcs	.+10     	; 0x154e <dir_next+0x262>
    1544:	20 e0       	ldi	r18, 0x00	; 0
    1546:	30 e0       	ldi	r19, 0x00	; 0
    1548:	40 e0       	ldi	r20, 0x00	; 0
    154a:	50 e0       	ldi	r21, 0x00	; 0
    154c:	15 c0       	rjmp	.+42     	; 0x1578 <dir_next+0x28c>
    154e:	d6 01       	movw	r26, r12
    1550:	12 96       	adiw	r26, 0x02	; 2
    1552:	2c 91       	ld	r18, X
    1554:	30 e0       	ldi	r19, 0x00	; 0
    1556:	40 e0       	ldi	r20, 0x00	; 0
    1558:	50 e0       	ldi	r21, 0x00	; 0
    155a:	c8 01       	movw	r24, r16
    155c:	b7 01       	movw	r22, r14
    155e:	0e 94 0d 2a 	call	0x541a	; 0x541a <__mulsi3>
    1562:	9b 01       	movw	r18, r22
    1564:	ac 01       	movw	r20, r24
    1566:	f6 01       	movw	r30, r12
    1568:	82 a5       	ldd	r24, Z+42	; 0x2a
    156a:	93 a5       	ldd	r25, Z+43	; 0x2b
    156c:	a4 a5       	ldd	r26, Z+44	; 0x2c
    156e:	b5 a5       	ldd	r27, Z+45	; 0x2d
    1570:	28 0f       	add	r18, r24
    1572:	39 1f       	adc	r19, r25
    1574:	4a 1f       	adc	r20, r26
    1576:	5b 1f       	adc	r21, r27
    1578:	2e 87       	std	Y+14, r18	; 0x0e
    157a:	3f 87       	std	Y+15, r19	; 0x0f
    157c:	48 8b       	std	Y+16, r20	; 0x10
    157e:	59 8b       	std	Y+17, r21	; 0x11
    1580:	7d 82       	std	Y+5, r7	; 0x05
    1582:	6c 82       	std	Y+4, r6	; 0x04
    1584:	88 81       	ld	r24, Y
    1586:	99 81       	ldd	r25, Y+1	; 0x01
    1588:	c2 96       	adiw	r24, 0x32	; 50
    158a:	75 e0       	ldi	r23, 0x05	; 5
    158c:	44 0c       	add	r4, r4
    158e:	55 1c       	adc	r5, r5
    1590:	7a 95       	dec	r23
    1592:	e1 f7       	brne	.-8      	; 0x158c <dir_next+0x2a0>
    1594:	84 0d       	add	r24, r4
    1596:	95 1d       	adc	r25, r5
    1598:	9b 8b       	std	Y+19, r25	; 0x13
    159a:	8a 8b       	std	Y+18, r24	; 0x12
    159c:	20 e0       	ldi	r18, 0x00	; 0
    159e:	30 e0       	ldi	r19, 0x00	; 0
    15a0:	08 c0       	rjmp	.+16     	; 0x15b2 <dir_next+0x2c6>
    15a2:	24 e0       	ldi	r18, 0x04	; 4
    15a4:	30 e0       	ldi	r19, 0x00	; 0
    15a6:	05 c0       	rjmp	.+10     	; 0x15b2 <dir_next+0x2c6>
    15a8:	22 e0       	ldi	r18, 0x02	; 2
    15aa:	30 e0       	ldi	r19, 0x00	; 0
    15ac:	02 c0       	rjmp	.+4      	; 0x15b2 <dir_next+0x2c6>
    15ae:	21 e0       	ldi	r18, 0x01	; 1
    15b0:	30 e0       	ldi	r19, 0x00	; 0
    15b2:	c9 01       	movw	r24, r18
    15b4:	cd b7       	in	r28, 0x3d	; 61
    15b6:	de b7       	in	r29, 0x3e	; 62
    15b8:	e0 e1       	ldi	r30, 0x10	; 16
    15ba:	0c 94 6c 2a 	jmp	0x54d8	; 0x54d8 <__epilogue_restores__+0x4>

000015be <f_readdir>:
    15be:	ac e0       	ldi	r26, 0x0C	; 12
    15c0:	b0 e0       	ldi	r27, 0x00	; 0
    15c2:	e5 ee       	ldi	r30, 0xE5	; 229
    15c4:	fa e0       	ldi	r31, 0x0A	; 10
    15c6:	0c 94 56 2a 	jmp	0x54ac	; 0x54ac <__prologue_saves__+0x10>
    15ca:	8c 01       	movw	r16, r24
    15cc:	7b 01       	movw	r14, r22
    15ce:	dc 01       	movw	r26, r24
    15d0:	12 96       	adiw	r26, 0x02	; 2
    15d2:	6d 91       	ld	r22, X+
    15d4:	7c 91       	ld	r23, X
    15d6:	13 97       	sbiw	r26, 0x03	; 3
    15d8:	8d 91       	ld	r24, X+
    15da:	9c 91       	ld	r25, X
    15dc:	0e 94 cb 03 	call	0x796	; 0x796 <validate>
    15e0:	00 97       	sbiw	r24, 0x00	; 0
    15e2:	81 f4       	brne	.+32     	; 0x1604 <f_readdir+0x46>
    15e4:	ce 01       	movw	r24, r28
    15e6:	01 96       	adiw	r24, 0x01	; 1
    15e8:	f8 01       	movw	r30, r16
    15ea:	95 8b       	std	Z+21, r25	; 0x15
    15ec:	84 8b       	std	Z+20, r24	; 0x14
    15ee:	e1 14       	cp	r14, r1
    15f0:	f1 04       	cpc	r15, r1
    15f2:	19 f0       	breq	.+6      	; 0x15fa <f_readdir+0x3c>
    15f4:	24 e0       	ldi	r18, 0x04	; 4
    15f6:	30 e0       	ldi	r19, 0x00	; 0
    15f8:	25 c0       	rjmp	.+74     	; 0x1644 <f_readdir+0x86>
    15fa:	c8 01       	movw	r24, r16
    15fc:	60 e0       	ldi	r22, 0x00	; 0
    15fe:	70 e0       	ldi	r23, 0x00	; 0
    1600:	0e 94 cf 05 	call	0xb9e	; 0xb9e <dir_seek>
    1604:	9c 01       	movw	r18, r24
    1606:	ac c0       	rjmp	.+344    	; 0x1760 <f_readdir+0x1a2>
    1608:	d8 01       	movw	r26, r16
    160a:	8d 91       	ld	r24, X+
    160c:	9c 91       	ld	r25, X
    160e:	0e 94 e5 03 	call	0x7ca	; 0x7ca <move_window>
    1612:	9c 01       	movw	r18, r24
    1614:	00 97       	sbiw	r24, 0x00	; 0
    1616:	19 f5       	brne	.+70     	; 0x165e <f_readdir+0xa0>
    1618:	d8 01       	movw	r26, r16
    161a:	52 96       	adiw	r26, 0x12	; 18
    161c:	ed 91       	ld	r30, X+
    161e:	fc 91       	ld	r31, X
    1620:	53 97       	sbiw	r26, 0x13	; 19
    1622:	80 81       	ld	r24, Z
    1624:	88 23       	and	r24, r24
    1626:	09 f4       	brne	.+2      	; 0x162a <f_readdir+0x6c>
    1628:	a0 c0       	rjmp	.+320    	; 0x176a <f_readdir+0x1ac>
    162a:	85 3e       	cpi	r24, 0xE5	; 229
    162c:	19 f0       	breq	.+6      	; 0x1634 <f_readdir+0x76>
    162e:	83 85       	ldd	r24, Z+11	; 0x0b
    1630:	83 ff       	sbrs	r24, 3
    1632:	23 c0       	rjmp	.+70     	; 0x167a <f_readdir+0xbc>
    1634:	c8 01       	movw	r24, r16
    1636:	60 e0       	ldi	r22, 0x00	; 0
    1638:	70 e0       	ldi	r23, 0x00	; 0
    163a:	0e 94 76 09 	call	0x12ec	; 0x12ec <dir_next>
    163e:	9c 01       	movw	r18, r24
    1640:	00 97       	sbiw	r24, 0x00	; 0
    1642:	69 f4       	brne	.+26     	; 0x165e <f_readdir+0xa0>
    1644:	f8 01       	movw	r30, r16
    1646:	46 85       	ldd	r20, Z+14	; 0x0e
    1648:	57 85       	ldd	r21, Z+15	; 0x0f
    164a:	60 89       	ldd	r22, Z+16	; 0x10
    164c:	71 89       	ldd	r23, Z+17	; 0x11
    164e:	41 15       	cp	r20, r1
    1650:	51 05       	cpc	r21, r1
    1652:	61 05       	cpc	r22, r1
    1654:	71 05       	cpc	r23, r1
    1656:	c1 f6       	brne	.-80     	; 0x1608 <f_readdir+0x4a>
    1658:	21 15       	cp	r18, r1
    165a:	31 05       	cpc	r19, r1
    165c:	71 f0       	breq	.+28     	; 0x167a <f_readdir+0xbc>
    165e:	d8 01       	movw	r26, r16
    1660:	1e 96       	adiw	r26, 0x0e	; 14
    1662:	1d 92       	st	X+, r1
    1664:	1d 92       	st	X+, r1
    1666:	1d 92       	st	X+, r1
    1668:	1c 92       	st	X, r1
    166a:	51 97       	sbiw	r26, 0x11	; 17
    166c:	24 30       	cpi	r18, 0x04	; 4
    166e:	31 05       	cpc	r19, r1
    1670:	21 f0       	breq	.+8      	; 0x167a <f_readdir+0xbc>
    1672:	21 15       	cp	r18, r1
    1674:	31 05       	cpc	r19, r1
    1676:	09 f0       	breq	.+2      	; 0x167a <f_readdir+0xbc>
    1678:	73 c0       	rjmp	.+230    	; 0x1760 <f_readdir+0x1a2>
    167a:	97 01       	movw	r18, r14
    167c:	27 5f       	subi	r18, 0xF7	; 247
    167e:	3f 4f       	sbci	r19, 0xFF	; 255
    1680:	f8 01       	movw	r30, r16
    1682:	86 85       	ldd	r24, Z+14	; 0x0e
    1684:	97 85       	ldd	r25, Z+15	; 0x0f
    1686:	a0 89       	ldd	r26, Z+16	; 0x10
    1688:	b1 89       	ldd	r27, Z+17	; 0x11
    168a:	00 97       	sbiw	r24, 0x00	; 0
    168c:	a1 05       	cpc	r26, r1
    168e:	b1 05       	cpc	r27, r1
    1690:	09 f4       	brne	.+2      	; 0x1694 <f_readdir+0xd6>
    1692:	52 c0       	rjmp	.+164    	; 0x1738 <f_readdir+0x17a>
    1694:	42 89       	ldd	r20, Z+18	; 0x12
    1696:	53 89       	ldd	r21, Z+19	; 0x13
    1698:	80 e0       	ldi	r24, 0x00	; 0
    169a:	90 e0       	ldi	r25, 0x00	; 0
    169c:	fa 01       	movw	r30, r20
    169e:	e8 0f       	add	r30, r24
    16a0:	f9 1f       	adc	r31, r25
    16a2:	e0 81       	ld	r30, Z
    16a4:	e0 32       	cpi	r30, 0x20	; 32
    16a6:	51 f0       	breq	.+20     	; 0x16bc <f_readdir+0xfe>
    16a8:	e5 30       	cpi	r30, 0x05	; 5
    16aa:	09 f4       	brne	.+2      	; 0x16ae <f_readdir+0xf0>
    16ac:	e5 ee       	ldi	r30, 0xE5	; 229
    16ae:	d9 01       	movw	r26, r18
    16b0:	ed 93       	st	X+, r30
    16b2:	9d 01       	movw	r18, r26
    16b4:	01 96       	adiw	r24, 0x01	; 1
    16b6:	88 30       	cpi	r24, 0x08	; 8
    16b8:	91 05       	cpc	r25, r1
    16ba:	81 f7       	brne	.-32     	; 0x169c <f_readdir+0xde>
    16bc:	fa 01       	movw	r30, r20
    16be:	80 85       	ldd	r24, Z+8	; 0x08
    16c0:	80 32       	cpi	r24, 0x20	; 32
    16c2:	11 f4       	brne	.+4      	; 0x16c8 <f_readdir+0x10a>
    16c4:	f9 01       	movw	r30, r18
    16c6:	10 c0       	rjmp	.+32     	; 0x16e8 <f_readdir+0x12a>
    16c8:	f9 01       	movw	r30, r18
    16ca:	8e e2       	ldi	r24, 0x2E	; 46
    16cc:	81 93       	st	Z+, r24
    16ce:	da 01       	movw	r26, r20
    16d0:	2c 5f       	subi	r18, 0xFC	; 252
    16d2:	3f 4f       	sbci	r19, 0xFF	; 255
    16d4:	18 96       	adiw	r26, 0x08	; 8
    16d6:	8c 91       	ld	r24, X
    16d8:	18 97       	sbiw	r26, 0x08	; 8
    16da:	80 32       	cpi	r24, 0x20	; 32
    16dc:	29 f0       	breq	.+10     	; 0x16e8 <f_readdir+0x12a>
    16de:	81 93       	st	Z+, r24
    16e0:	11 96       	adiw	r26, 0x01	; 1
    16e2:	e2 17       	cp	r30, r18
    16e4:	f3 07       	cpc	r31, r19
    16e6:	b1 f7       	brne	.-20     	; 0x16d4 <f_readdir+0x116>
    16e8:	da 01       	movw	r26, r20
    16ea:	1b 96       	adiw	r26, 0x0b	; 11
    16ec:	8c 91       	ld	r24, X
    16ee:	d7 01       	movw	r26, r14
    16f0:	18 96       	adiw	r26, 0x08	; 8
    16f2:	8c 93       	st	X, r24
    16f4:	da 01       	movw	r26, r20
    16f6:	5c 96       	adiw	r26, 0x1c	; 28
    16f8:	ad 90       	ld	r10, X+
    16fa:	bd 90       	ld	r11, X+
    16fc:	cd 90       	ld	r12, X+
    16fe:	dc 90       	ld	r13, X
    1700:	5f 97       	sbiw	r26, 0x1f	; 31
    1702:	d7 01       	movw	r26, r14
    1704:	ad 92       	st	X+, r10
    1706:	bd 92       	st	X+, r11
    1708:	cd 92       	st	X+, r12
    170a:	dc 92       	st	X, r13
    170c:	13 97       	sbiw	r26, 0x03	; 3
    170e:	da 01       	movw	r26, r20
    1710:	58 96       	adiw	r26, 0x18	; 24
    1712:	8d 91       	ld	r24, X+
    1714:	9c 91       	ld	r25, X
    1716:	59 97       	sbiw	r26, 0x19	; 25
    1718:	d7 01       	movw	r26, r14
    171a:	15 96       	adiw	r26, 0x05	; 5
    171c:	9c 93       	st	X, r25
    171e:	8e 93       	st	-X, r24
    1720:	14 97       	sbiw	r26, 0x04	; 4
    1722:	da 01       	movw	r26, r20
    1724:	56 96       	adiw	r26, 0x16	; 22
    1726:	8d 91       	ld	r24, X+
    1728:	9c 91       	ld	r25, X
    172a:	57 97       	sbiw	r26, 0x17	; 23
    172c:	d7 01       	movw	r26, r14
    172e:	17 96       	adiw	r26, 0x07	; 7
    1730:	9c 93       	st	X, r25
    1732:	8e 93       	st	-X, r24
    1734:	16 97       	sbiw	r26, 0x06	; 6
    1736:	9f 01       	movw	r18, r30
    1738:	f9 01       	movw	r30, r18
    173a:	10 82       	st	Z, r1
    173c:	c8 01       	movw	r24, r16
    173e:	60 e0       	ldi	r22, 0x00	; 0
    1740:	70 e0       	ldi	r23, 0x00	; 0
    1742:	0e 94 76 09 	call	0x12ec	; 0x12ec <dir_next>
    1746:	9c 01       	movw	r18, r24
    1748:	84 30       	cpi	r24, 0x04	; 4
    174a:	91 05       	cpc	r25, r1
    174c:	49 f4       	brne	.+18     	; 0x1760 <f_readdir+0x1a2>
    174e:	d8 01       	movw	r26, r16
    1750:	1e 96       	adiw	r26, 0x0e	; 14
    1752:	1d 92       	st	X+, r1
    1754:	1d 92       	st	X+, r1
    1756:	1d 92       	st	X+, r1
    1758:	1c 92       	st	X, r1
    175a:	51 97       	sbiw	r26, 0x11	; 17
    175c:	20 e0       	ldi	r18, 0x00	; 0
    175e:	30 e0       	ldi	r19, 0x00	; 0
    1760:	c9 01       	movw	r24, r18
    1762:	2c 96       	adiw	r28, 0x0c	; 12
    1764:	ea e0       	ldi	r30, 0x0A	; 10
    1766:	0c 94 72 2a 	jmp	0x54e4	; 0x54e4 <__epilogue_restores__+0x10>
    176a:	24 e0       	ldi	r18, 0x04	; 4
    176c:	30 e0       	ldi	r19, 0x00	; 0
    176e:	77 cf       	rjmp	.-274    	; 0x165e <f_readdir+0xa0>

00001770 <follow_path>:
    1770:	a0 e0       	ldi	r26, 0x00	; 0
    1772:	b0 e0       	ldi	r27, 0x00	; 0
    1774:	ee eb       	ldi	r30, 0xBE	; 190
    1776:	fb e0       	ldi	r31, 0x0B	; 11
    1778:	0c 94 55 2a 	jmp	0x54aa	; 0x54aa <__prologue_saves__+0xe>
    177c:	ec 01       	movw	r28, r24
    177e:	7b 01       	movw	r14, r22
    1780:	03 c0       	rjmp	.+6      	; 0x1788 <follow_path+0x18>
    1782:	08 94       	sec
    1784:	e1 1c       	adc	r14, r1
    1786:	f1 1c       	adc	r15, r1
    1788:	f7 01       	movw	r30, r14
    178a:	80 81       	ld	r24, Z
    178c:	80 32       	cpi	r24, 0x20	; 32
    178e:	c9 f3       	breq	.-14     	; 0x1782 <follow_path+0x12>
    1790:	8f 32       	cpi	r24, 0x2F	; 47
    1792:	11 f0       	breq	.+4      	; 0x1798 <follow_path+0x28>
    1794:	8c 35       	cpi	r24, 0x5C	; 92
    1796:	41 f4       	brne	.+16     	; 0x17a8 <follow_path+0x38>
    1798:	08 94       	sec
    179a:	e1 1c       	adc	r14, r1
    179c:	f1 1c       	adc	r15, r1
    179e:	1e 82       	std	Y+6, r1	; 0x06
    17a0:	1f 82       	std	Y+7, r1	; 0x07
    17a2:	18 86       	std	Y+8, r1	; 0x08
    17a4:	19 86       	std	Y+9, r1	; 0x09
    17a6:	0a c0       	rjmp	.+20     	; 0x17bc <follow_path+0x4c>
    17a8:	e8 81       	ld	r30, Y
    17aa:	f9 81       	ldd	r31, Y+1	; 0x01
    17ac:	86 89       	ldd	r24, Z+22	; 0x16
    17ae:	97 89       	ldd	r25, Z+23	; 0x17
    17b0:	a0 8d       	ldd	r26, Z+24	; 0x18
    17b2:	b1 8d       	ldd	r27, Z+25	; 0x19
    17b4:	8e 83       	std	Y+6, r24	; 0x06
    17b6:	9f 83       	std	Y+7, r25	; 0x07
    17b8:	a8 87       	std	Y+8, r26	; 0x08
    17ba:	b9 87       	std	Y+9, r27	; 0x09
    17bc:	f7 01       	movw	r30, r14
    17be:	80 81       	ld	r24, Z
    17c0:	80 32       	cpi	r24, 0x20	; 32
    17c2:	48 f4       	brcc	.+18     	; 0x17d6 <follow_path+0x66>
    17c4:	ce 01       	movw	r24, r28
    17c6:	60 e0       	ldi	r22, 0x00	; 0
    17c8:	70 e0       	ldi	r23, 0x00	; 0
    17ca:	0e 94 cf 05 	call	0xb9e	; 0xb9e <dir_seek>
    17ce:	9c 01       	movw	r18, r24
    17d0:	1b 8a       	std	Y+19, r1	; 0x13
    17d2:	1a 8a       	std	Y+18, r1	; 0x12
    17d4:	2b c1       	rjmp	.+598    	; 0x1a2c <follow_path+0x2bc>
    17d6:	f0 e2       	ldi	r31, 0x20	; 32
    17d8:	9f 2e       	mov	r9, r31
    17da:	e5 e0       	ldi	r30, 0x05	; 5
    17dc:	ce 2e       	mov	r12, r30
    17de:	0c 89       	ldd	r16, Y+20	; 0x14
    17e0:	1d 89       	ldd	r17, Y+21	; 0x15
    17e2:	f8 01       	movw	r30, r16
    17e4:	c8 01       	movw	r24, r16
    17e6:	0b 96       	adiw	r24, 0x0b	; 11
    17e8:	01 c0       	rjmp	.+2      	; 0x17ec <follow_path+0x7c>
    17ea:	91 92       	st	Z+, r9
    17ec:	e8 17       	cp	r30, r24
    17ee:	f9 07       	cpc	r31, r25
    17f0:	e1 f7       	brne	.-8      	; 0x17ea <follow_path+0x7a>
    17f2:	f7 01       	movw	r30, r14
    17f4:	80 81       	ld	r24, Z
    17f6:	8e 32       	cpi	r24, 0x2E	; 46
    17f8:	49 f0       	breq	.+18     	; 0x180c <follow_path+0x9c>
    17fa:	40 e0       	ldi	r20, 0x00	; 0
    17fc:	50 e0       	ldi	r21, 0x00	; 0
    17fe:	a0 e0       	ldi	r26, 0x00	; 0
    1800:	b0 e0       	ldi	r27, 0x00	; 0
    1802:	78 e0       	ldi	r23, 0x08	; 8
    1804:	a7 2e       	mov	r10, r23
    1806:	b1 2c       	mov	r11, r1
    1808:	dd 24       	eor	r13, r13
    180a:	21 c0       	rjmp	.+66     	; 0x184e <follow_path+0xde>
    180c:	d8 01       	movw	r26, r16
    180e:	80 e0       	ldi	r24, 0x00	; 0
    1810:	90 e0       	ldi	r25, 0x00	; 0
    1812:	f7 01       	movw	r30, r14
    1814:	e8 0f       	add	r30, r24
    1816:	f9 1f       	adc	r31, r25
    1818:	e0 81       	ld	r30, Z
    181a:	01 96       	adiw	r24, 0x01	; 1
    181c:	ee 32       	cpi	r30, 0x2E	; 46
    181e:	31 f4       	brne	.+12     	; 0x182c <follow_path+0xbc>
    1820:	83 30       	cpi	r24, 0x03	; 3
    1822:	91 05       	cpc	r25, r1
    1824:	09 f4       	brne	.+2      	; 0x1828 <follow_path+0xb8>
    1826:	fb c0       	rjmp	.+502    	; 0x1a1e <follow_path+0x2ae>
    1828:	ed 93       	st	X+, r30
    182a:	f3 cf       	rjmp	.-26     	; 0x1812 <follow_path+0xa2>
    182c:	ef 32       	cpi	r30, 0x2F	; 47
    182e:	29 f0       	breq	.+10     	; 0x183a <follow_path+0xca>
    1830:	ec 35       	cpi	r30, 0x5C	; 92
    1832:	39 f0       	breq	.+14     	; 0x1842 <follow_path+0xd2>
    1834:	e1 32       	cpi	r30, 0x21	; 33
    1836:	08 f0       	brcs	.+2      	; 0x183a <follow_path+0xca>
    1838:	f2 c0       	rjmp	.+484    	; 0x1a1e <follow_path+0x2ae>
    183a:	e1 32       	cpi	r30, 0x21	; 33
    183c:	10 f4       	brcc	.+4      	; 0x1842 <follow_path+0xd2>
    183e:	24 e2       	ldi	r18, 0x24	; 36
    1840:	01 c0       	rjmp	.+2      	; 0x1844 <follow_path+0xd4>
    1842:	20 e2       	ldi	r18, 0x20	; 32
    1844:	e8 0e       	add	r14, r24
    1846:	f9 1e       	adc	r15, r25
    1848:	f8 01       	movw	r30, r16
    184a:	23 87       	std	Z+11, r18	; 0x0b
    184c:	f5 c0       	rjmp	.+490    	; 0x1a38 <follow_path+0x2c8>
    184e:	f7 01       	movw	r30, r14
    1850:	ea 0f       	add	r30, r26
    1852:	fb 1f       	adc	r31, r27
    1854:	20 81       	ld	r18, Z
    1856:	11 96       	adiw	r26, 0x01	; 1
    1858:	21 32       	cpi	r18, 0x21	; 33
    185a:	08 f4       	brcc	.+2      	; 0x185e <follow_path+0xee>
    185c:	6a c0       	rjmp	.+212    	; 0x1932 <follow_path+0x1c2>
    185e:	2f 32       	cpi	r18, 0x2F	; 47
    1860:	09 f4       	brne	.+2      	; 0x1864 <follow_path+0xf4>
    1862:	f4 c0       	rjmp	.+488    	; 0x1a4c <follow_path+0x2dc>
    1864:	2c 35       	cpi	r18, 0x5C	; 92
    1866:	09 f4       	brne	.+2      	; 0x186a <follow_path+0xfa>
    1868:	f1 c0       	rjmp	.+482    	; 0x1a4c <follow_path+0x2dc>
    186a:	2e 32       	cpi	r18, 0x2E	; 46
    186c:	19 f0       	breq	.+6      	; 0x1874 <follow_path+0x104>
    186e:	4a 15       	cp	r20, r10
    1870:	5b 05       	cpc	r21, r11
    1872:	84 f0       	brlt	.+32     	; 0x1894 <follow_path+0x124>
    1874:	f8 e0       	ldi	r31, 0x08	; 8
    1876:	af 16       	cp	r10, r31
    1878:	b1 04       	cpc	r11, r1
    187a:	09 f0       	breq	.+2      	; 0x187e <follow_path+0x10e>
    187c:	d0 c0       	rjmp	.+416    	; 0x1a1e <follow_path+0x2ae>
    187e:	2e 32       	cpi	r18, 0x2E	; 46
    1880:	09 f0       	breq	.+2      	; 0x1884 <follow_path+0x114>
    1882:	cd c0       	rjmp	.+410    	; 0x1a1e <follow_path+0x2ae>
    1884:	dd 0c       	add	r13, r13
    1886:	dd 0c       	add	r13, r13
    1888:	48 e0       	ldi	r20, 0x08	; 8
    188a:	50 e0       	ldi	r21, 0x00	; 0
    188c:	6b e0       	ldi	r22, 0x0B	; 11
    188e:	a6 2e       	mov	r10, r22
    1890:	b1 2c       	mov	r11, r1
    1892:	dd cf       	rjmp	.-70     	; 0x184e <follow_path+0xde>
    1894:	27 ff       	sbrs	r18, 7
    1896:	02 c0       	rjmp	.+4      	; 0x189c <follow_path+0x12c>
    1898:	83 e0       	ldi	r24, 0x03	; 3
    189a:	d8 2a       	or	r13, r24
    189c:	82 2f       	mov	r24, r18
    189e:	81 58       	subi	r24, 0x81	; 129
    18a0:	8f 31       	cpi	r24, 0x1F	; 31
    18a2:	18 f0       	brcs	.+6      	; 0x18aa <follow_path+0x13a>
    18a4:	8f 55       	subi	r24, 0x5F	; 95
    18a6:	8d 31       	cpi	r24, 0x1D	; 29
    18a8:	f8 f4       	brcc	.+62     	; 0x18e8 <follow_path+0x178>
    18aa:	f7 01       	movw	r30, r14
    18ac:	ea 0f       	add	r30, r26
    18ae:	fb 1f       	adc	r31, r27
    18b0:	30 81       	ld	r19, Z
    18b2:	83 2f       	mov	r24, r19
    18b4:	80 54       	subi	r24, 0x40	; 64
    18b6:	8f 33       	cpi	r24, 0x3F	; 63
    18b8:	20 f0       	brcs	.+8      	; 0x18c2 <follow_path+0x152>
    18ba:	80 54       	subi	r24, 0x40	; 64
    18bc:	8d 37       	cpi	r24, 0x7D	; 125
    18be:	08 f0       	brcs	.+2      	; 0x18c2 <follow_path+0x152>
    18c0:	ae c0       	rjmp	.+348    	; 0x1a1e <follow_path+0x2ae>
    18c2:	c5 01       	movw	r24, r10
    18c4:	01 97       	sbiw	r24, 0x01	; 1
    18c6:	48 17       	cp	r20, r24
    18c8:	59 07       	cpc	r21, r25
    18ca:	0c f0       	brlt	.+2      	; 0x18ce <follow_path+0x15e>
    18cc:	a8 c0       	rjmp	.+336    	; 0x1a1e <follow_path+0x2ae>
    18ce:	11 96       	adiw	r26, 0x01	; 1
    18d0:	f8 01       	movw	r30, r16
    18d2:	e4 0f       	add	r30, r20
    18d4:	f5 1f       	adc	r31, r21
    18d6:	20 83       	st	Z, r18
    18d8:	ca 01       	movw	r24, r20
    18da:	01 96       	adiw	r24, 0x01	; 1
    18dc:	f8 01       	movw	r30, r16
    18de:	e8 0f       	add	r30, r24
    18e0:	f9 1f       	adc	r31, r25
    18e2:	30 83       	st	Z, r19
    18e4:	ac 01       	movw	r20, r24
    18e6:	22 c0       	rjmp	.+68     	; 0x192c <follow_path+0x1bc>
    18e8:	62 2f       	mov	r22, r18
    18ea:	70 e0       	ldi	r23, 0x00	; 0
    18ec:	e4 e0       	ldi	r30, 0x04	; 4
    18ee:	f1 e0       	ldi	r31, 0x01	; 1
    18f0:	01 c0       	rjmp	.+2      	; 0x18f4 <follow_path+0x184>
    18f2:	31 96       	adiw	r30, 0x01	; 1
    18f4:	80 81       	ld	r24, Z
    18f6:	88 23       	and	r24, r24
    18f8:	39 f0       	breq	.+14     	; 0x1908 <follow_path+0x198>
    18fa:	99 27       	eor	r25, r25
    18fc:	87 fd       	sbrc	r24, 7
    18fe:	90 95       	com	r25
    1900:	86 17       	cp	r24, r22
    1902:	97 07       	cpc	r25, r23
    1904:	b1 f7       	brne	.-20     	; 0x18f2 <follow_path+0x182>
    1906:	8b c0       	rjmp	.+278    	; 0x1a1e <follow_path+0x2ae>
    1908:	82 2f       	mov	r24, r18
    190a:	81 54       	subi	r24, 0x41	; 65
    190c:	8a 31       	cpi	r24, 0x1A	; 26
    190e:	18 f4       	brcc	.+6      	; 0x1916 <follow_path+0x1a6>
    1910:	e2 e0       	ldi	r30, 0x02	; 2
    1912:	de 2a       	or	r13, r30
    1914:	07 c0       	rjmp	.+14     	; 0x1924 <follow_path+0x1b4>
    1916:	82 2f       	mov	r24, r18
    1918:	81 56       	subi	r24, 0x61	; 97
    191a:	8a 31       	cpi	r24, 0x1A	; 26
    191c:	18 f4       	brcc	.+6      	; 0x1924 <follow_path+0x1b4>
    191e:	f1 e0       	ldi	r31, 0x01	; 1
    1920:	df 2a       	or	r13, r31
    1922:	20 52       	subi	r18, 0x20	; 32
    1924:	f8 01       	movw	r30, r16
    1926:	e4 0f       	add	r30, r20
    1928:	f5 1f       	adc	r31, r21
    192a:	20 83       	st	Z, r18
    192c:	4f 5f       	subi	r20, 0xFF	; 255
    192e:	5f 4f       	sbci	r21, 0xFF	; 255
    1930:	8e cf       	rjmp	.-228    	; 0x184e <follow_path+0xde>
    1932:	64 e0       	ldi	r22, 0x04	; 4
    1934:	45 2b       	or	r20, r21
    1936:	09 f4       	brne	.+2      	; 0x193a <follow_path+0x1ca>
    1938:	72 c0       	rjmp	.+228    	; 0x1a1e <follow_path+0x2ae>
    193a:	f8 01       	movw	r30, r16
    193c:	80 81       	ld	r24, Z
    193e:	85 3e       	cpi	r24, 0xE5	; 229
    1940:	09 f4       	brne	.+2      	; 0x1944 <follow_path+0x1d4>
    1942:	c0 82       	st	Z, r12
    1944:	f8 e0       	ldi	r31, 0x08	; 8
    1946:	af 16       	cp	r10, r31
    1948:	b1 04       	cpc	r11, r1
    194a:	11 f4       	brne	.+4      	; 0x1950 <follow_path+0x1e0>
    194c:	dd 0c       	add	r13, r13
    194e:	dd 0c       	add	r13, r13
    1950:	2d 2d       	mov	r18, r13
    1952:	30 e0       	ldi	r19, 0x00	; 0
    1954:	c9 01       	movw	r24, r18
    1956:	83 70       	andi	r24, 0x03	; 3
    1958:	90 70       	andi	r25, 0x00	; 0
    195a:	01 97       	sbiw	r24, 0x01	; 1
    195c:	09 f4       	brne	.+2      	; 0x1960 <follow_path+0x1f0>
    195e:	60 61       	ori	r22, 0x10	; 16
    1960:	2c 70       	andi	r18, 0x0C	; 12
    1962:	30 70       	andi	r19, 0x00	; 0
    1964:	24 30       	cpi	r18, 0x04	; 4
    1966:	31 05       	cpc	r19, r1
    1968:	09 f4       	brne	.+2      	; 0x196c <follow_path+0x1fc>
    196a:	68 60       	ori	r22, 0x08	; 8
    196c:	ea 0e       	add	r14, r26
    196e:	fb 1e       	adc	r15, r27
    1970:	f8 01       	movw	r30, r16
    1972:	63 87       	std	Z+11, r22	; 0x0b
    1974:	61 c0       	rjmp	.+194    	; 0x1a38 <follow_path+0x2c8>
    1976:	4e 85       	ldd	r20, Y+14	; 0x0e
    1978:	5f 85       	ldd	r21, Y+15	; 0x0f
    197a:	68 89       	ldd	r22, Y+16	; 0x10
    197c:	79 89       	ldd	r23, Y+17	; 0x11
    197e:	88 81       	ld	r24, Y
    1980:	99 81       	ldd	r25, Y+1	; 0x01
    1982:	0e 94 e5 03 	call	0x7ca	; 0x7ca <move_window>
    1986:	ac 01       	movw	r20, r24
    1988:	00 97       	sbiw	r24, 0x00	; 0
    198a:	01 f5       	brne	.+64     	; 0x19cc <follow_path+0x25c>
    198c:	ea 89       	ldd	r30, Y+18	; 0x12
    198e:	fb 89       	ldd	r31, Y+19	; 0x13
    1990:	80 81       	ld	r24, Z
    1992:	88 23       	and	r24, r24
    1994:	19 f4       	brne	.+6      	; 0x199c <follow_path+0x22c>
    1996:	44 e0       	ldi	r20, 0x04	; 4
    1998:	50 e0       	ldi	r21, 0x00	; 0
    199a:	18 c0       	rjmp	.+48     	; 0x19cc <follow_path+0x25c>
    199c:	83 85       	ldd	r24, Z+11	; 0x0b
    199e:	83 fd       	sbrc	r24, 3
    19a0:	0f c0       	rjmp	.+30     	; 0x19c0 <follow_path+0x250>
    19a2:	ac 89       	ldd	r26, Y+20	; 0x14
    19a4:	bd 89       	ldd	r27, Y+21	; 0x15
    19a6:	9f 01       	movw	r18, r30
    19a8:	25 5f       	subi	r18, 0xF5	; 245
    19aa:	3f 4f       	sbci	r19, 0xFF	; 255
    19ac:	e2 17       	cp	r30, r18
    19ae:	f3 07       	cpc	r31, r19
    19b0:	69 f0       	breq	.+26     	; 0x19cc <follow_path+0x25c>
    19b2:	90 81       	ld	r25, Z
    19b4:	8c 91       	ld	r24, X
    19b6:	98 17       	cp	r25, r24
    19b8:	19 f4       	brne	.+6      	; 0x19c0 <follow_path+0x250>
    19ba:	31 96       	adiw	r30, 0x01	; 1
    19bc:	11 96       	adiw	r26, 0x01	; 1
    19be:	f6 cf       	rjmp	.-20     	; 0x19ac <follow_path+0x23c>
    19c0:	ce 01       	movw	r24, r28
    19c2:	60 e0       	ldi	r22, 0x00	; 0
    19c4:	70 e0       	ldi	r23, 0x00	; 0
    19c6:	0e 94 76 09 	call	0x12ec	; 0x12ec <dir_next>
    19ca:	3b c0       	rjmp	.+118    	; 0x1a42 <follow_path+0x2d2>
    19cc:	ec 89       	ldd	r30, Y+20	; 0x14
    19ce:	fd 89       	ldd	r31, Y+21	; 0x15
    19d0:	83 85       	ldd	r24, Z+11	; 0x0b
    19d2:	84 70       	andi	r24, 0x04	; 4
    19d4:	41 15       	cp	r20, r1
    19d6:	51 05       	cpc	r21, r1
    19d8:	39 f0       	breq	.+14     	; 0x19e8 <follow_path+0x278>
    19da:	9a 01       	movw	r18, r20
    19dc:	44 30       	cpi	r20, 0x04	; 4
    19de:	51 05       	cpc	r21, r1
    19e0:	09 f5       	brne	.+66     	; 0x1a24 <follow_path+0x2b4>
    19e2:	88 23       	and	r24, r24
    19e4:	09 f1       	breq	.+66     	; 0x1a28 <follow_path+0x2b8>
    19e6:	22 c0       	rjmp	.+68     	; 0x1a2c <follow_path+0x2bc>
    19e8:	88 23       	and	r24, r24
    19ea:	e1 f4       	brne	.+56     	; 0x1a24 <follow_path+0x2b4>
    19ec:	ea 89       	ldd	r30, Y+18	; 0x12
    19ee:	fb 89       	ldd	r31, Y+19	; 0x13
    19f0:	83 85       	ldd	r24, Z+11	; 0x0b
    19f2:	84 ff       	sbrs	r24, 4
    19f4:	19 c0       	rjmp	.+50     	; 0x1a28 <follow_path+0x2b8>
    19f6:	84 89       	ldd	r24, Z+20	; 0x14
    19f8:	95 89       	ldd	r25, Z+21	; 0x15
    19fa:	a0 e0       	ldi	r26, 0x00	; 0
    19fc:	b0 e0       	ldi	r27, 0x00	; 0
    19fe:	dc 01       	movw	r26, r24
    1a00:	99 27       	eor	r25, r25
    1a02:	88 27       	eor	r24, r24
    1a04:	22 8d       	ldd	r18, Z+26	; 0x1a
    1a06:	33 8d       	ldd	r19, Z+27	; 0x1b
    1a08:	40 e0       	ldi	r20, 0x00	; 0
    1a0a:	50 e0       	ldi	r21, 0x00	; 0
    1a0c:	82 2b       	or	r24, r18
    1a0e:	93 2b       	or	r25, r19
    1a10:	a4 2b       	or	r26, r20
    1a12:	b5 2b       	or	r27, r21
    1a14:	8e 83       	std	Y+6, r24	; 0x06
    1a16:	9f 83       	std	Y+7, r25	; 0x07
    1a18:	a8 87       	std	Y+8, r26	; 0x08
    1a1a:	b9 87       	std	Y+9, r27	; 0x09
    1a1c:	e0 ce       	rjmp	.-576    	; 0x17de <follow_path+0x6e>
    1a1e:	26 e0       	ldi	r18, 0x06	; 6
    1a20:	30 e0       	ldi	r19, 0x00	; 0
    1a22:	04 c0       	rjmp	.+8      	; 0x1a2c <follow_path+0x2bc>
    1a24:	9a 01       	movw	r18, r20
    1a26:	02 c0       	rjmp	.+4      	; 0x1a2c <follow_path+0x2bc>
    1a28:	25 e0       	ldi	r18, 0x05	; 5
    1a2a:	30 e0       	ldi	r19, 0x00	; 0
    1a2c:	c9 01       	movw	r24, r18
    1a2e:	cd b7       	in	r28, 0x3d	; 61
    1a30:	de b7       	in	r29, 0x3e	; 62
    1a32:	eb e0       	ldi	r30, 0x0B	; 11
    1a34:	0c 94 71 2a 	jmp	0x54e2	; 0x54e2 <__epilogue_restores__+0xe>
    1a38:	ce 01       	movw	r24, r28
    1a3a:	60 e0       	ldi	r22, 0x00	; 0
    1a3c:	70 e0       	ldi	r23, 0x00	; 0
    1a3e:	0e 94 cf 05 	call	0xb9e	; 0xb9e <dir_seek>
    1a42:	ac 01       	movw	r20, r24
    1a44:	00 97       	sbiw	r24, 0x00	; 0
    1a46:	09 f4       	brne	.+2      	; 0x1a4a <follow_path+0x2da>
    1a48:	96 cf       	rjmp	.-212    	; 0x1976 <follow_path+0x206>
    1a4a:	c0 cf       	rjmp	.-128    	; 0x19cc <follow_path+0x25c>
    1a4c:	60 e0       	ldi	r22, 0x00	; 0
    1a4e:	72 cf       	rjmp	.-284    	; 0x1934 <follow_path+0x1c4>

00001a50 <f_write>:
    1a50:	a4 e0       	ldi	r26, 0x04	; 4
    1a52:	b0 e0       	ldi	r27, 0x00	; 0
    1a54:	ee e2       	ldi	r30, 0x2E	; 46
    1a56:	fd e0       	ldi	r31, 0x0D	; 13
    1a58:	0c 94 4e 2a 	jmp	0x549c	; 0x549c <__prologue_saves__>
    1a5c:	9c 83       	std	Y+4, r25	; 0x04
    1a5e:	8b 83       	std	Y+3, r24	; 0x03
    1a60:	16 2f       	mov	r17, r22
    1a62:	07 2f       	mov	r16, r23
    1a64:	3a 01       	movw	r6, r20
    1a66:	3a 83       	std	Y+2, r19	; 0x02
    1a68:	29 83       	std	Y+1, r18	; 0x01
    1a6a:	d9 01       	movw	r26, r18
    1a6c:	1d 92       	st	X+, r1
    1a6e:	1c 92       	st	X, r1
    1a70:	fc 01       	movw	r30, r24
    1a72:	62 81       	ldd	r22, Z+2	; 0x02
    1a74:	73 81       	ldd	r23, Z+3	; 0x03
    1a76:	80 81       	ld	r24, Z
    1a78:	91 81       	ldd	r25, Z+1	; 0x01
    1a7a:	0e 94 cb 03 	call	0x796	; 0x796 <validate>
    1a7e:	4c 01       	movw	r8, r24
    1a80:	00 97       	sbiw	r24, 0x00	; 0
    1a82:	09 f0       	breq	.+2      	; 0x1a86 <f_write+0x36>
    1a84:	09 c2       	rjmp	.+1042   	; 0x1e98 <f_write+0x448>
    1a86:	ab 81       	ldd	r26, Y+3	; 0x03
    1a88:	bc 81       	ldd	r27, Y+4	; 0x04
    1a8a:	14 96       	adiw	r26, 0x04	; 4
    1a8c:	8c 91       	ld	r24, X
    1a8e:	87 fd       	sbrc	r24, 7
    1a90:	78 c0       	rjmp	.+240    	; 0x1b82 <f_write+0x132>
    1a92:	81 fd       	sbrc	r24, 1
    1a94:	04 c0       	rjmp	.+8      	; 0x1a9e <f_write+0x4e>
    1a96:	37 e0       	ldi	r19, 0x07	; 7
    1a98:	83 2e       	mov	r8, r19
    1a9a:	91 2c       	mov	r9, r1
    1a9c:	fd c1       	rjmp	.+1018   	; 0x1e98 <f_write+0x448>
    1a9e:	eb 81       	ldd	r30, Y+3	; 0x03
    1aa0:	fc 81       	ldd	r31, Y+4	; 0x04
    1aa2:	22 85       	ldd	r18, Z+10	; 0x0a
    1aa4:	33 85       	ldd	r19, Z+11	; 0x0b
    1aa6:	44 85       	ldd	r20, Z+12	; 0x0c
    1aa8:	55 85       	ldd	r21, Z+13	; 0x0d
    1aaa:	c3 01       	movw	r24, r6
    1aac:	a0 e0       	ldi	r26, 0x00	; 0
    1aae:	b0 e0       	ldi	r27, 0x00	; 0
    1ab0:	82 0f       	add	r24, r18
    1ab2:	93 1f       	adc	r25, r19
    1ab4:	a4 1f       	adc	r26, r20
    1ab6:	b5 1f       	adc	r27, r21
    1ab8:	82 17       	cp	r24, r18
    1aba:	93 07       	cpc	r25, r19
    1abc:	a4 07       	cpc	r26, r20
    1abe:	b5 07       	cpc	r27, r21
    1ac0:	10 f4       	brcc	.+4      	; 0x1ac6 <f_write+0x76>
    1ac2:	66 24       	eor	r6, r6
    1ac4:	77 24       	eor	r7, r7
    1ac6:	81 2f       	mov	r24, r17
    1ac8:	90 2f       	mov	r25, r16
    1aca:	9c 01       	movw	r18, r24
    1acc:	29 01       	movw	r4, r18
    1ace:	22 24       	eor	r2, r2
    1ad0:	23 94       	inc	r2
    1ad2:	bd c1       	rjmp	.+890    	; 0x1e4e <f_write+0x3fe>
    1ad4:	ab 81       	ldd	r26, Y+3	; 0x03
    1ad6:	bc 81       	ldd	r27, Y+4	; 0x04
    1ad8:	16 96       	adiw	r26, 0x06	; 6
    1ada:	2d 91       	ld	r18, X+
    1adc:	3d 91       	ld	r19, X+
    1ade:	4d 91       	ld	r20, X+
    1ae0:	5c 91       	ld	r21, X
    1ae2:	19 97       	sbiw	r26, 0x09	; 9
    1ae4:	da 01       	movw	r26, r20
    1ae6:	c9 01       	movw	r24, r18
    1ae8:	91 70       	andi	r25, 0x01	; 1
    1aea:	a0 70       	andi	r26, 0x00	; 0
    1aec:	b0 70       	andi	r27, 0x00	; 0
    1aee:	00 97       	sbiw	r24, 0x00	; 0
    1af0:	a1 05       	cpc	r26, r1
    1af2:	b1 05       	cpc	r27, r1
    1af4:	09 f0       	breq	.+2      	; 0x1af8 <f_write+0xa8>
    1af6:	4a c1       	rjmp	.+660    	; 0x1d8c <f_write+0x33c>
    1af8:	ab 81       	ldd	r26, Y+3	; 0x03
    1afa:	bc 81       	ldd	r27, Y+4	; 0x04
    1afc:	ed 91       	ld	r30, X+
    1afe:	fc 91       	ld	r31, X
    1b00:	11 97       	sbiw	r26, 0x01	; 1
    1b02:	15 96       	adiw	r26, 0x05	; 5
    1b04:	9c 91       	ld	r25, X
    1b06:	15 97       	sbiw	r26, 0x05	; 5
    1b08:	82 81       	ldd	r24, Z+2	; 0x02
    1b0a:	98 17       	cp	r25, r24
    1b0c:	08 f4       	brcc	.+2      	; 0x1b10 <f_write+0xc0>
    1b0e:	55 c0       	rjmp	.+170    	; 0x1bba <f_write+0x16a>
    1b10:	21 15       	cp	r18, r1
    1b12:	31 05       	cpc	r19, r1
    1b14:	41 05       	cpc	r20, r1
    1b16:	51 05       	cpc	r21, r1
    1b18:	c9 f4       	brne	.+50     	; 0x1b4c <f_write+0xfc>
    1b1a:	1e 96       	adiw	r26, 0x0e	; 14
    1b1c:	6d 91       	ld	r22, X+
    1b1e:	7d 91       	ld	r23, X+
    1b20:	8d 91       	ld	r24, X+
    1b22:	9c 91       	ld	r25, X
    1b24:	51 97       	sbiw	r26, 0x11	; 17
    1b26:	61 15       	cp	r22, r1
    1b28:	71 05       	cpc	r23, r1
    1b2a:	81 05       	cpc	r24, r1
    1b2c:	91 05       	cpc	r25, r1
    1b2e:	f9 f4       	brne	.+62     	; 0x1b6e <f_write+0x11e>
    1b30:	cf 01       	movw	r24, r30
    1b32:	40 e0       	ldi	r20, 0x00	; 0
    1b34:	50 e0       	ldi	r21, 0x00	; 0
    1b36:	60 e0       	ldi	r22, 0x00	; 0
    1b38:	70 e0       	ldi	r23, 0x00	; 0
    1b3a:	0e 94 c0 06 	call	0xd80	; 0xd80 <create_chain>
    1b3e:	eb 81       	ldd	r30, Y+3	; 0x03
    1b40:	fc 81       	ldd	r31, Y+4	; 0x04
    1b42:	66 87       	std	Z+14, r22	; 0x0e
    1b44:	77 87       	std	Z+15, r23	; 0x0f
    1b46:	80 8b       	std	Z+16, r24	; 0x10
    1b48:	91 8b       	std	Z+17, r25	; 0x11
    1b4a:	0b c0       	rjmp	.+22     	; 0x1b62 <f_write+0x112>
    1b4c:	ab 81       	ldd	r26, Y+3	; 0x03
    1b4e:	bc 81       	ldd	r27, Y+4	; 0x04
    1b50:	52 96       	adiw	r26, 0x12	; 18
    1b52:	4d 91       	ld	r20, X+
    1b54:	5d 91       	ld	r21, X+
    1b56:	6d 91       	ld	r22, X+
    1b58:	7c 91       	ld	r23, X
    1b5a:	55 97       	sbiw	r26, 0x15	; 21
    1b5c:	cf 01       	movw	r24, r30
    1b5e:	0e 94 c0 06 	call	0xd80	; 0xd80 <create_chain>
    1b62:	61 15       	cp	r22, r1
    1b64:	71 05       	cpc	r23, r1
    1b66:	81 05       	cpc	r24, r1
    1b68:	91 05       	cpc	r25, r1
    1b6a:	09 f4       	brne	.+2      	; 0x1b6e <f_write+0x11e>
    1b6c:	74 c1       	rjmp	.+744    	; 0x1e56 <f_write+0x406>
    1b6e:	61 30       	cpi	r22, 0x01	; 1
    1b70:	71 05       	cpc	r23, r1
    1b72:	81 05       	cpc	r24, r1
    1b74:	91 05       	cpc	r25, r1
    1b76:	49 f4       	brne	.+18     	; 0x1b8a <f_write+0x13a>
    1b78:	eb 81       	ldd	r30, Y+3	; 0x03
    1b7a:	fc 81       	ldd	r31, Y+4	; 0x04
    1b7c:	84 81       	ldd	r24, Z+4	; 0x04
    1b7e:	80 68       	ori	r24, 0x80	; 128
    1b80:	84 83       	std	Z+4, r24	; 0x04
    1b82:	22 e0       	ldi	r18, 0x02	; 2
    1b84:	82 2e       	mov	r8, r18
    1b86:	91 2c       	mov	r9, r1
    1b88:	87 c1       	rjmp	.+782    	; 0x1e98 <f_write+0x448>
    1b8a:	6f 3f       	cpi	r22, 0xFF	; 255
    1b8c:	ff ef       	ldi	r31, 0xFF	; 255
    1b8e:	7f 07       	cpc	r23, r31
    1b90:	ff ef       	ldi	r31, 0xFF	; 255
    1b92:	8f 07       	cpc	r24, r31
    1b94:	ff ef       	ldi	r31, 0xFF	; 255
    1b96:	9f 07       	cpc	r25, r31
    1b98:	49 f4       	brne	.+18     	; 0x1bac <f_write+0x15c>
    1b9a:	ab 81       	ldd	r26, Y+3	; 0x03
    1b9c:	bc 81       	ldd	r27, Y+4	; 0x04
    1b9e:	14 96       	adiw	r26, 0x04	; 4
    1ba0:	8c 91       	ld	r24, X
    1ba2:	14 97       	sbiw	r26, 0x04	; 4
    1ba4:	80 68       	ori	r24, 0x80	; 128
    1ba6:	14 96       	adiw	r26, 0x04	; 4
    1ba8:	8c 93       	st	X, r24
    1baa:	09 c1       	rjmp	.+530    	; 0x1dbe <f_write+0x36e>
    1bac:	eb 81       	ldd	r30, Y+3	; 0x03
    1bae:	fc 81       	ldd	r31, Y+4	; 0x04
    1bb0:	62 8b       	std	Z+18, r22	; 0x12
    1bb2:	73 8b       	std	Z+19, r23	; 0x13
    1bb4:	84 8b       	std	Z+20, r24	; 0x14
    1bb6:	95 8b       	std	Z+21, r25	; 0x15
    1bb8:	15 82       	std	Z+5, r1	; 0x05
    1bba:	ab 81       	ldd	r26, Y+3	; 0x03
    1bbc:	bc 81       	ldd	r27, Y+4	; 0x04
    1bbe:	ed 91       	ld	r30, X+
    1bc0:	fc 91       	ld	r31, X
    1bc2:	11 97       	sbiw	r26, 0x01	; 1
    1bc4:	26 a5       	ldd	r18, Z+46	; 0x2e
    1bc6:	37 a5       	ldd	r19, Z+47	; 0x2f
    1bc8:	40 a9       	ldd	r20, Z+48	; 0x30
    1bca:	51 a9       	ldd	r21, Z+49	; 0x31
    1bcc:	56 96       	adiw	r26, 0x16	; 22
    1bce:	ed 90       	ld	r14, X+
    1bd0:	fd 90       	ld	r15, X+
    1bd2:	0d 91       	ld	r16, X+
    1bd4:	1c 91       	ld	r17, X
    1bd6:	59 97       	sbiw	r26, 0x19	; 25
    1bd8:	2e 15       	cp	r18, r14
    1bda:	3f 05       	cpc	r19, r15
    1bdc:	40 07       	cpc	r20, r16
    1bde:	51 07       	cpc	r21, r17
    1be0:	51 f4       	brne	.+20     	; 0x1bf6 <f_write+0x1a6>
    1be2:	cf 01       	movw	r24, r30
    1be4:	40 e0       	ldi	r20, 0x00	; 0
    1be6:	50 e0       	ldi	r21, 0x00	; 0
    1be8:	60 e0       	ldi	r22, 0x00	; 0
    1bea:	70 e0       	ldi	r23, 0x00	; 0
    1bec:	0e 94 e5 03 	call	0x7ca	; 0x7ca <move_window>
    1bf0:	89 2b       	or	r24, r25
    1bf2:	09 f0       	breq	.+2      	; 0x1bf6 <f_write+0x1a6>
    1bf4:	df c0       	rjmp	.+446    	; 0x1db4 <f_write+0x364>
    1bf6:	ab 81       	ldd	r26, Y+3	; 0x03
    1bf8:	bc 81       	ldd	r27, Y+4	; 0x04
    1bfa:	0d 91       	ld	r16, X+
    1bfc:	1c 91       	ld	r17, X
    1bfe:	11 97       	sbiw	r26, 0x01	; 1
    1c00:	52 96       	adiw	r26, 0x12	; 18
    1c02:	2d 91       	ld	r18, X+
    1c04:	3d 91       	ld	r19, X+
    1c06:	4d 91       	ld	r20, X+
    1c08:	5c 91       	ld	r21, X
    1c0a:	55 97       	sbiw	r26, 0x15	; 21
    1c0c:	22 50       	subi	r18, 0x02	; 2
    1c0e:	30 40       	sbci	r19, 0x00	; 0
    1c10:	40 40       	sbci	r20, 0x00	; 0
    1c12:	50 40       	sbci	r21, 0x00	; 0
    1c14:	f8 01       	movw	r30, r16
    1c16:	86 8d       	ldd	r24, Z+30	; 0x1e
    1c18:	97 8d       	ldd	r25, Z+31	; 0x1f
    1c1a:	a0 a1       	ldd	r26, Z+32	; 0x20
    1c1c:	b1 a1       	ldd	r27, Z+33	; 0x21
    1c1e:	02 97       	sbiw	r24, 0x02	; 2
    1c20:	a1 09       	sbc	r26, r1
    1c22:	b1 09       	sbc	r27, r1
    1c24:	28 17       	cp	r18, r24
    1c26:	39 07       	cpc	r19, r25
    1c28:	4a 07       	cpc	r20, r26
    1c2a:	5b 07       	cpc	r21, r27
    1c2c:	b8 f4       	brcc	.+46     	; 0x1c5c <f_write+0x20c>
    1c2e:	32 80       	ldd	r3, Z+2	; 0x02
    1c30:	63 2d       	mov	r22, r3
    1c32:	70 e0       	ldi	r23, 0x00	; 0
    1c34:	80 e0       	ldi	r24, 0x00	; 0
    1c36:	90 e0       	ldi	r25, 0x00	; 0
    1c38:	0e 94 0d 2a 	call	0x541a	; 0x541a <__mulsi3>
    1c3c:	9b 01       	movw	r18, r22
    1c3e:	ac 01       	movw	r20, r24
    1c40:	f8 01       	movw	r30, r16
    1c42:	82 a5       	ldd	r24, Z+42	; 0x2a
    1c44:	93 a5       	ldd	r25, Z+43	; 0x2b
    1c46:	a4 a5       	ldd	r26, Z+44	; 0x2c
    1c48:	b5 a5       	ldd	r27, Z+45	; 0x2d
    1c4a:	28 0f       	add	r18, r24
    1c4c:	39 1f       	adc	r19, r25
    1c4e:	4a 1f       	adc	r20, r26
    1c50:	5b 1f       	adc	r21, r27
    1c52:	21 15       	cp	r18, r1
    1c54:	31 05       	cpc	r19, r1
    1c56:	41 05       	cpc	r20, r1
    1c58:	51 05       	cpc	r21, r1
    1c5a:	49 f4       	brne	.+18     	; 0x1c6e <f_write+0x21e>
    1c5c:	ab 81       	ldd	r26, Y+3	; 0x03
    1c5e:	bc 81       	ldd	r27, Y+4	; 0x04
    1c60:	14 96       	adiw	r26, 0x04	; 4
    1c62:	8c 91       	ld	r24, X
    1c64:	14 97       	sbiw	r26, 0x04	; 4
    1c66:	80 68       	ori	r24, 0x80	; 128
    1c68:	14 96       	adiw	r26, 0x04	; 4
    1c6a:	8c 93       	st	X, r24
    1c6c:	8a cf       	rjmp	.-236    	; 0x1b82 <f_write+0x132>
    1c6e:	eb 81       	ldd	r30, Y+3	; 0x03
    1c70:	fc 81       	ldd	r31, Y+4	; 0x04
    1c72:	85 81       	ldd	r24, Z+5	; 0x05
    1c74:	59 01       	movw	r10, r18
    1c76:	6a 01       	movw	r12, r20
    1c78:	a8 0e       	add	r10, r24
    1c7a:	b1 1c       	adc	r11, r1
    1c7c:	c1 1c       	adc	r12, r1
    1c7e:	d1 1c       	adc	r13, r1
    1c80:	73 01       	movw	r14, r6
    1c82:	ef 2c       	mov	r14, r15
    1c84:	ff 24       	eor	r15, r15
    1c86:	e6 94       	lsr	r14
    1c88:	e1 14       	cp	r14, r1
    1c8a:	f1 04       	cpc	r15, r1
    1c8c:	09 f4       	brne	.+2      	; 0x1c90 <f_write+0x240>
    1c8e:	51 c0       	rjmp	.+162    	; 0x1d32 <f_write+0x2e2>
    1c90:	28 2f       	mov	r18, r24
    1c92:	30 e0       	ldi	r19, 0x00	; 0
    1c94:	c7 01       	movw	r24, r14
    1c96:	82 0f       	add	r24, r18
    1c98:	93 1f       	adc	r25, r19
    1c9a:	63 2d       	mov	r22, r3
    1c9c:	70 e0       	ldi	r23, 0x00	; 0
    1c9e:	68 17       	cp	r22, r24
    1ca0:	79 07       	cpc	r23, r25
    1ca2:	18 f4       	brcc	.+6      	; 0x1caa <f_write+0x25a>
    1ca4:	7b 01       	movw	r14, r22
    1ca6:	e2 1a       	sub	r14, r18
    1ca8:	f3 0a       	sbc	r15, r19
    1caa:	d8 01       	movw	r26, r16
    1cac:	11 96       	adiw	r26, 0x01	; 1
    1cae:	8c 91       	ld	r24, X
    1cb0:	b2 01       	movw	r22, r4
    1cb2:	a6 01       	movw	r20, r12
    1cb4:	95 01       	movw	r18, r10
    1cb6:	0e 2d       	mov	r16, r14
    1cb8:	0e 94 99 18 	call	0x3132	; 0x3132 <disk_write>
    1cbc:	89 2b       	or	r24, r25
    1cbe:	09 f0       	breq	.+2      	; 0x1cc2 <f_write+0x272>
    1cc0:	79 c0       	rjmp	.+242    	; 0x1db4 <f_write+0x364>
    1cc2:	ab 81       	ldd	r26, Y+3	; 0x03
    1cc4:	bc 81       	ldd	r27, Y+4	; 0x04
    1cc6:	ed 91       	ld	r30, X+
    1cc8:	fc 91       	ld	r31, X
    1cca:	26 a5       	ldd	r18, Z+46	; 0x2e
    1ccc:	37 a5       	ldd	r19, Z+47	; 0x2f
    1cce:	40 a9       	ldd	r20, Z+48	; 0x30
    1cd0:	51 a9       	ldd	r21, Z+49	; 0x31
    1cd2:	2a 19       	sub	r18, r10
    1cd4:	3b 09       	sbc	r19, r11
    1cd6:	4c 09       	sbc	r20, r12
    1cd8:	5d 09       	sbc	r21, r13
    1cda:	c7 01       	movw	r24, r14
    1cdc:	a0 e0       	ldi	r26, 0x00	; 0
    1cde:	b0 e0       	ldi	r27, 0x00	; 0
    1ce0:	28 17       	cp	r18, r24
    1ce2:	39 07       	cpc	r19, r25
    1ce4:	4a 07       	cpc	r20, r26
    1ce6:	5b 07       	cpc	r21, r27
    1ce8:	d0 f4       	brcc	.+52     	; 0x1d1e <f_write+0x2ce>
    1cea:	df 01       	movw	r26, r30
    1cec:	d2 96       	adiw	r26, 0x32	; 50
    1cee:	89 e0       	ldi	r24, 0x09	; 9
    1cf0:	22 0f       	add	r18, r18
    1cf2:	33 1f       	adc	r19, r19
    1cf4:	44 1f       	adc	r20, r20
    1cf6:	55 1f       	adc	r21, r21
    1cf8:	8a 95       	dec	r24
    1cfa:	d1 f7       	brne	.-12     	; 0x1cf0 <f_write+0x2a0>
    1cfc:	f2 01       	movw	r30, r4
    1cfe:	e2 0f       	add	r30, r18
    1d00:	f3 1f       	adc	r31, r19
    1d02:	9f 01       	movw	r18, r30
    1d04:	20 50       	subi	r18, 0x00	; 0
    1d06:	3e 4f       	sbci	r19, 0xFE	; 254
    1d08:	02 c0       	rjmp	.+4      	; 0x1d0e <f_write+0x2be>
    1d0a:	81 91       	ld	r24, Z+
    1d0c:	8d 93       	st	X+, r24
    1d0e:	e2 17       	cp	r30, r18
    1d10:	f3 07       	cpc	r31, r19
    1d12:	d9 f7       	brne	.-10     	; 0x1d0a <f_write+0x2ba>
    1d14:	ab 81       	ldd	r26, Y+3	; 0x03
    1d16:	bc 81       	ldd	r27, Y+4	; 0x04
    1d18:	ed 91       	ld	r30, X+
    1d1a:	fc 91       	ld	r31, X
    1d1c:	14 82       	std	Z+4, r1	; 0x04
    1d1e:	eb 81       	ldd	r30, Y+3	; 0x03
    1d20:	fc 81       	ldd	r31, Y+4	; 0x04
    1d22:	85 81       	ldd	r24, Z+5	; 0x05
    1d24:	8e 0d       	add	r24, r14
    1d26:	85 83       	std	Z+5, r24	; 0x05
    1d28:	b7 01       	movw	r22, r14
    1d2a:	76 2f       	mov	r23, r22
    1d2c:	66 27       	eor	r22, r22
    1d2e:	77 0f       	add	r23, r23
    1d30:	71 c0       	rjmp	.+226    	; 0x1e14 <f_write+0x3c4>
    1d32:	ab 81       	ldd	r26, Y+3	; 0x03
    1d34:	bc 81       	ldd	r27, Y+4	; 0x04
    1d36:	16 96       	adiw	r26, 0x06	; 6
    1d38:	2d 91       	ld	r18, X+
    1d3a:	3d 91       	ld	r19, X+
    1d3c:	4d 91       	ld	r20, X+
    1d3e:	5c 91       	ld	r21, X
    1d40:	19 97       	sbiw	r26, 0x09	; 9
    1d42:	1a 96       	adiw	r26, 0x0a	; 10
    1d44:	8d 91       	ld	r24, X+
    1d46:	9d 91       	ld	r25, X+
    1d48:	0d 90       	ld	r0, X+
    1d4a:	bc 91       	ld	r27, X
    1d4c:	a0 2d       	mov	r26, r0
    1d4e:	28 17       	cp	r18, r24
    1d50:	39 07       	cpc	r19, r25
    1d52:	4a 07       	cpc	r20, r26
    1d54:	5b 07       	cpc	r21, r27
    1d56:	88 f0       	brcs	.+34     	; 0x1d7a <f_write+0x32a>
    1d58:	c8 01       	movw	r24, r16
    1d5a:	40 e0       	ldi	r20, 0x00	; 0
    1d5c:	50 e0       	ldi	r21, 0x00	; 0
    1d5e:	60 e0       	ldi	r22, 0x00	; 0
    1d60:	70 e0       	ldi	r23, 0x00	; 0
    1d62:	0e 94 e5 03 	call	0x7ca	; 0x7ca <move_window>
    1d66:	89 2b       	or	r24, r25
    1d68:	29 f5       	brne	.+74     	; 0x1db4 <f_write+0x364>
    1d6a:	ab 81       	ldd	r26, Y+3	; 0x03
    1d6c:	bc 81       	ldd	r27, Y+4	; 0x04
    1d6e:	ed 91       	ld	r30, X+
    1d70:	fc 91       	ld	r31, X
    1d72:	a6 a6       	std	Z+46, r10	; 0x2e
    1d74:	b7 a6       	std	Z+47, r11	; 0x2f
    1d76:	c0 aa       	std	Z+48, r12	; 0x30
    1d78:	d1 aa       	std	Z+49, r13	; 0x31
    1d7a:	eb 81       	ldd	r30, Y+3	; 0x03
    1d7c:	fc 81       	ldd	r31, Y+4	; 0x04
    1d7e:	a6 8a       	std	Z+22, r10	; 0x16
    1d80:	b7 8a       	std	Z+23, r11	; 0x17
    1d82:	c0 8e       	std	Z+24, r12	; 0x18
    1d84:	d1 8e       	std	Z+25, r13	; 0x19
    1d86:	85 81       	ldd	r24, Z+5	; 0x05
    1d88:	8f 5f       	subi	r24, 0xFF	; 255
    1d8a:	85 83       	std	Z+5, r24	; 0x05
    1d8c:	ab 81       	ldd	r26, Y+3	; 0x03
    1d8e:	bc 81       	ldd	r27, Y+4	; 0x04
    1d90:	16 96       	adiw	r26, 0x06	; 6
    1d92:	cd 90       	ld	r12, X+
    1d94:	dd 90       	ld	r13, X+
    1d96:	ed 90       	ld	r14, X+
    1d98:	fc 90       	ld	r15, X
    1d9a:	19 97       	sbiw	r26, 0x09	; 9
    1d9c:	56 96       	adiw	r26, 0x16	; 22
    1d9e:	4d 91       	ld	r20, X+
    1da0:	5d 91       	ld	r21, X+
    1da2:	6d 91       	ld	r22, X+
    1da4:	7c 91       	ld	r23, X
    1da6:	59 97       	sbiw	r26, 0x19	; 25
    1da8:	8d 91       	ld	r24, X+
    1daa:	9c 91       	ld	r25, X
    1dac:	0e 94 e5 03 	call	0x7ca	; 0x7ca <move_window>
    1db0:	89 2b       	or	r24, r25
    1db2:	49 f0       	breq	.+18     	; 0x1dc6 <f_write+0x376>
    1db4:	eb 81       	ldd	r30, Y+3	; 0x03
    1db6:	fc 81       	ldd	r31, Y+4	; 0x04
    1db8:	84 81       	ldd	r24, Z+4	; 0x04
    1dba:	80 68       	ori	r24, 0x80	; 128
    1dbc:	84 83       	std	Z+4, r24	; 0x04
    1dbe:	a1 e0       	ldi	r26, 0x01	; 1
    1dc0:	8a 2e       	mov	r8, r26
    1dc2:	91 2c       	mov	r9, r1
    1dc4:	69 c0       	rjmp	.+210    	; 0x1e98 <f_write+0x448>
    1dc6:	c6 01       	movw	r24, r12
    1dc8:	91 70       	andi	r25, 0x01	; 1
    1dca:	20 e0       	ldi	r18, 0x00	; 0
    1dcc:	32 e0       	ldi	r19, 0x02	; 2
    1dce:	28 1b       	sub	r18, r24
    1dd0:	39 0b       	sbc	r19, r25
    1dd2:	b3 01       	movw	r22, r6
    1dd4:	26 15       	cp	r18, r6
    1dd6:	37 05       	cpc	r19, r7
    1dd8:	08 f4       	brcc	.+2      	; 0x1ddc <f_write+0x38c>
    1dda:	b9 01       	movw	r22, r18
    1ddc:	ab 81       	ldd	r26, Y+3	; 0x03
    1dde:	bc 81       	ldd	r27, Y+4	; 0x04
    1de0:	16 96       	adiw	r26, 0x06	; 6
    1de2:	8d 91       	ld	r24, X+
    1de4:	9c 91       	ld	r25, X
    1de6:	17 97       	sbiw	r26, 0x07	; 7
    1de8:	91 70       	andi	r25, 0x01	; 1
    1dea:	c2 96       	adiw	r24, 0x32	; 50
    1dec:	0d 90       	ld	r0, X+
    1dee:	bc 91       	ld	r27, X
    1df0:	a0 2d       	mov	r26, r0
    1df2:	a8 0f       	add	r26, r24
    1df4:	b9 1f       	adc	r27, r25
    1df6:	f2 01       	movw	r30, r4
    1df8:	92 01       	movw	r18, r4
    1dfa:	26 0f       	add	r18, r22
    1dfc:	37 1f       	adc	r19, r23
    1dfe:	02 c0       	rjmp	.+4      	; 0x1e04 <f_write+0x3b4>
    1e00:	81 91       	ld	r24, Z+
    1e02:	8d 93       	st	X+, r24
    1e04:	e2 17       	cp	r30, r18
    1e06:	f3 07       	cpc	r31, r19
    1e08:	d9 f7       	brne	.-10     	; 0x1e00 <f_write+0x3b0>
    1e0a:	ab 81       	ldd	r26, Y+3	; 0x03
    1e0c:	bc 81       	ldd	r27, Y+4	; 0x04
    1e0e:	ed 91       	ld	r30, X+
    1e10:	fc 91       	ld	r31, X
    1e12:	24 82       	std	Z+4, r2	; 0x04
    1e14:	46 0e       	add	r4, r22
    1e16:	57 1e       	adc	r5, r23
    1e18:	cb 01       	movw	r24, r22
    1e1a:	a0 e0       	ldi	r26, 0x00	; 0
    1e1c:	b0 e0       	ldi	r27, 0x00	; 0
    1e1e:	eb 81       	ldd	r30, Y+3	; 0x03
    1e20:	fc 81       	ldd	r31, Y+4	; 0x04
    1e22:	26 81       	ldd	r18, Z+6	; 0x06
    1e24:	37 81       	ldd	r19, Z+7	; 0x07
    1e26:	40 85       	ldd	r20, Z+8	; 0x08
    1e28:	51 85       	ldd	r21, Z+9	; 0x09
    1e2a:	28 0f       	add	r18, r24
    1e2c:	39 1f       	adc	r19, r25
    1e2e:	4a 1f       	adc	r20, r26
    1e30:	5b 1f       	adc	r21, r27
    1e32:	26 83       	std	Z+6, r18	; 0x06
    1e34:	37 83       	std	Z+7, r19	; 0x07
    1e36:	40 87       	std	Z+8, r20	; 0x08
    1e38:	51 87       	std	Z+9, r21	; 0x09
    1e3a:	e9 81       	ldd	r30, Y+1	; 0x01
    1e3c:	fa 81       	ldd	r31, Y+2	; 0x02
    1e3e:	80 81       	ld	r24, Z
    1e40:	91 81       	ldd	r25, Z+1	; 0x01
    1e42:	86 0f       	add	r24, r22
    1e44:	97 1f       	adc	r25, r23
    1e46:	91 83       	std	Z+1, r25	; 0x01
    1e48:	80 83       	st	Z, r24
    1e4a:	66 1a       	sub	r6, r22
    1e4c:	77 0a       	sbc	r7, r23
    1e4e:	61 14       	cp	r6, r1
    1e50:	71 04       	cpc	r7, r1
    1e52:	09 f0       	breq	.+2      	; 0x1e56 <f_write+0x406>
    1e54:	3f ce       	rjmp	.-898    	; 0x1ad4 <f_write+0x84>
    1e56:	ab 81       	ldd	r26, Y+3	; 0x03
    1e58:	bc 81       	ldd	r27, Y+4	; 0x04
    1e5a:	16 96       	adiw	r26, 0x06	; 6
    1e5c:	2d 91       	ld	r18, X+
    1e5e:	3d 91       	ld	r19, X+
    1e60:	4d 91       	ld	r20, X+
    1e62:	5c 91       	ld	r21, X
    1e64:	19 97       	sbiw	r26, 0x09	; 9
    1e66:	1a 96       	adiw	r26, 0x0a	; 10
    1e68:	8d 91       	ld	r24, X+
    1e6a:	9d 91       	ld	r25, X+
    1e6c:	0d 90       	ld	r0, X+
    1e6e:	bc 91       	ld	r27, X
    1e70:	a0 2d       	mov	r26, r0
    1e72:	82 17       	cp	r24, r18
    1e74:	93 07       	cpc	r25, r19
    1e76:	a4 07       	cpc	r26, r20
    1e78:	b5 07       	cpc	r27, r21
    1e7a:	30 f4       	brcc	.+12     	; 0x1e88 <f_write+0x438>
    1e7c:	eb 81       	ldd	r30, Y+3	; 0x03
    1e7e:	fc 81       	ldd	r31, Y+4	; 0x04
    1e80:	22 87       	std	Z+10, r18	; 0x0a
    1e82:	33 87       	std	Z+11, r19	; 0x0b
    1e84:	44 87       	std	Z+12, r20	; 0x0c
    1e86:	55 87       	std	Z+13, r21	; 0x0d
    1e88:	ab 81       	ldd	r26, Y+3	; 0x03
    1e8a:	bc 81       	ldd	r27, Y+4	; 0x04
    1e8c:	14 96       	adiw	r26, 0x04	; 4
    1e8e:	8c 91       	ld	r24, X
    1e90:	14 97       	sbiw	r26, 0x04	; 4
    1e92:	80 62       	ori	r24, 0x20	; 32
    1e94:	14 96       	adiw	r26, 0x04	; 4
    1e96:	8c 93       	st	X, r24
    1e98:	c4 01       	movw	r24, r8
    1e9a:	24 96       	adiw	r28, 0x04	; 4
    1e9c:	e2 e1       	ldi	r30, 0x12	; 18
    1e9e:	0c 94 6a 2a 	jmp	0x54d4	; 0x54d4 <__epilogue_restores__>

00001ea2 <f_read>:
    1ea2:	a4 e0       	ldi	r26, 0x04	; 4
    1ea4:	b0 e0       	ldi	r27, 0x00	; 0
    1ea6:	e7 e5       	ldi	r30, 0x57	; 87
    1ea8:	ff e0       	ldi	r31, 0x0F	; 15
    1eaa:	0c 94 4f 2a 	jmp	0x549e	; 0x549e <__prologue_saves__+0x2>
    1eae:	9c 83       	std	Y+4, r25	; 0x04
    1eb0:	8b 83       	std	Y+3, r24	; 0x03
    1eb2:	16 2f       	mov	r17, r22
    1eb4:	07 2f       	mov	r16, r23
    1eb6:	3a 01       	movw	r6, r20
    1eb8:	3a 83       	std	Y+2, r19	; 0x02
    1eba:	29 83       	std	Y+1, r18	; 0x01
    1ebc:	d9 01       	movw	r26, r18
    1ebe:	1d 92       	st	X+, r1
    1ec0:	1c 92       	st	X, r1
    1ec2:	fc 01       	movw	r30, r24
    1ec4:	62 81       	ldd	r22, Z+2	; 0x02
    1ec6:	73 81       	ldd	r23, Z+3	; 0x03
    1ec8:	80 81       	ld	r24, Z
    1eca:	91 81       	ldd	r25, Z+1	; 0x01
    1ecc:	0e 94 cb 03 	call	0x796	; 0x796 <validate>
    1ed0:	4c 01       	movw	r8, r24
    1ed2:	00 97       	sbiw	r24, 0x00	; 0
    1ed4:	09 f0       	breq	.+2      	; 0x1ed8 <f_read+0x36>
    1ed6:	8a c1       	rjmp	.+788    	; 0x21ec <f_read+0x34a>
    1ed8:	ab 81       	ldd	r26, Y+3	; 0x03
    1eda:	bc 81       	ldd	r27, Y+4	; 0x04
    1edc:	14 96       	adiw	r26, 0x04	; 4
    1ede:	8c 91       	ld	r24, X
    1ee0:	87 fd       	sbrc	r24, 7
    1ee2:	60 c0       	rjmp	.+192    	; 0x1fa4 <f_read+0x102>
    1ee4:	80 fd       	sbrc	r24, 0
    1ee6:	04 c0       	rjmp	.+8      	; 0x1ef0 <f_read+0x4e>
    1ee8:	97 e0       	ldi	r25, 0x07	; 7
    1eea:	89 2e       	mov	r8, r25
    1eec:	91 2c       	mov	r9, r1
    1eee:	7e c1       	rjmp	.+764    	; 0x21ec <f_read+0x34a>
    1ef0:	eb 81       	ldd	r30, Y+3	; 0x03
    1ef2:	fc 81       	ldd	r31, Y+4	; 0x04
    1ef4:	22 85       	ldd	r18, Z+10	; 0x0a
    1ef6:	33 85       	ldd	r19, Z+11	; 0x0b
    1ef8:	44 85       	ldd	r20, Z+12	; 0x0c
    1efa:	55 85       	ldd	r21, Z+13	; 0x0d
    1efc:	86 81       	ldd	r24, Z+6	; 0x06
    1efe:	97 81       	ldd	r25, Z+7	; 0x07
    1f00:	a0 85       	ldd	r26, Z+8	; 0x08
    1f02:	b1 85       	ldd	r27, Z+9	; 0x09
    1f04:	28 1b       	sub	r18, r24
    1f06:	39 0b       	sbc	r19, r25
    1f08:	4a 0b       	sbc	r20, r26
    1f0a:	5b 0b       	sbc	r21, r27
    1f0c:	c3 01       	movw	r24, r6
    1f0e:	a0 e0       	ldi	r26, 0x00	; 0
    1f10:	b0 e0       	ldi	r27, 0x00	; 0
    1f12:	28 17       	cp	r18, r24
    1f14:	39 07       	cpc	r19, r25
    1f16:	4a 07       	cpc	r20, r26
    1f18:	5b 07       	cpc	r21, r27
    1f1a:	08 f4       	brcc	.+2      	; 0x1f1e <f_read+0x7c>
    1f1c:	39 01       	movw	r6, r18
    1f1e:	81 2f       	mov	r24, r17
    1f20:	90 2f       	mov	r25, r16
    1f22:	9c 01       	movw	r18, r24
    1f24:	29 01       	movw	r4, r18
    1f26:	5e c1       	rjmp	.+700    	; 0x21e4 <f_read+0x342>
    1f28:	ab 81       	ldd	r26, Y+3	; 0x03
    1f2a:	bc 81       	ldd	r27, Y+4	; 0x04
    1f2c:	16 96       	adiw	r26, 0x06	; 6
    1f2e:	2d 91       	ld	r18, X+
    1f30:	3d 91       	ld	r19, X+
    1f32:	4d 91       	ld	r20, X+
    1f34:	5c 91       	ld	r21, X
    1f36:	19 97       	sbiw	r26, 0x09	; 9
    1f38:	da 01       	movw	r26, r20
    1f3a:	c9 01       	movw	r24, r18
    1f3c:	91 70       	andi	r25, 0x01	; 1
    1f3e:	a0 70       	andi	r26, 0x00	; 0
    1f40:	b0 70       	andi	r27, 0x00	; 0
    1f42:	00 97       	sbiw	r24, 0x00	; 0
    1f44:	a1 05       	cpc	r26, r1
    1f46:	b1 05       	cpc	r27, r1
    1f48:	09 f0       	breq	.+2      	; 0x1f4c <f_read+0xaa>
    1f4a:	ef c0       	rjmp	.+478    	; 0x212a <f_read+0x288>
    1f4c:	ab 81       	ldd	r26, Y+3	; 0x03
    1f4e:	bc 81       	ldd	r27, Y+4	; 0x04
    1f50:	ed 91       	ld	r30, X+
    1f52:	fc 91       	ld	r31, X
    1f54:	11 97       	sbiw	r26, 0x01	; 1
    1f56:	15 96       	adiw	r26, 0x05	; 5
    1f58:	9c 91       	ld	r25, X
    1f5a:	15 97       	sbiw	r26, 0x05	; 5
    1f5c:	82 81       	ldd	r24, Z+2	; 0x02
    1f5e:	98 17       	cp	r25, r24
    1f60:	e8 f1       	brcs	.+122    	; 0x1fdc <f_read+0x13a>
    1f62:	21 15       	cp	r18, r1
    1f64:	31 05       	cpc	r19, r1
    1f66:	41 05       	cpc	r20, r1
    1f68:	51 05       	cpc	r21, r1
    1f6a:	39 f4       	brne	.+14     	; 0x1f7a <f_read+0xd8>
    1f6c:	1e 96       	adiw	r26, 0x0e	; 14
    1f6e:	6d 91       	ld	r22, X+
    1f70:	7d 91       	ld	r23, X+
    1f72:	8d 91       	ld	r24, X+
    1f74:	9c 91       	ld	r25, X
    1f76:	51 97       	sbiw	r26, 0x11	; 17
    1f78:	0b c0       	rjmp	.+22     	; 0x1f90 <f_read+0xee>
    1f7a:	ab 81       	ldd	r26, Y+3	; 0x03
    1f7c:	bc 81       	ldd	r27, Y+4	; 0x04
    1f7e:	52 96       	adiw	r26, 0x12	; 18
    1f80:	4d 91       	ld	r20, X+
    1f82:	5d 91       	ld	r21, X+
    1f84:	6d 91       	ld	r22, X+
    1f86:	7c 91       	ld	r23, X
    1f88:	55 97       	sbiw	r26, 0x15	; 21
    1f8a:	cf 01       	movw	r24, r30
    1f8c:	0e 94 19 05 	call	0xa32	; 0xa32 <get_fat>
    1f90:	62 30       	cpi	r22, 0x02	; 2
    1f92:	71 05       	cpc	r23, r1
    1f94:	81 05       	cpc	r24, r1
    1f96:	91 05       	cpc	r25, r1
    1f98:	48 f4       	brcc	.+18     	; 0x1fac <f_read+0x10a>
    1f9a:	eb 81       	ldd	r30, Y+3	; 0x03
    1f9c:	fc 81       	ldd	r31, Y+4	; 0x04
    1f9e:	84 81       	ldd	r24, Z+4	; 0x04
    1fa0:	80 68       	ori	r24, 0x80	; 128
    1fa2:	84 83       	std	Z+4, r24	; 0x04
    1fa4:	82 e0       	ldi	r24, 0x02	; 2
    1fa6:	88 2e       	mov	r8, r24
    1fa8:	91 2c       	mov	r9, r1
    1faa:	20 c1       	rjmp	.+576    	; 0x21ec <f_read+0x34a>
    1fac:	6f 3f       	cpi	r22, 0xFF	; 255
    1fae:	ff ef       	ldi	r31, 0xFF	; 255
    1fb0:	7f 07       	cpc	r23, r31
    1fb2:	ff ef       	ldi	r31, 0xFF	; 255
    1fb4:	8f 07       	cpc	r24, r31
    1fb6:	ff ef       	ldi	r31, 0xFF	; 255
    1fb8:	9f 07       	cpc	r25, r31
    1fba:	49 f4       	brne	.+18     	; 0x1fce <f_read+0x12c>
    1fbc:	ab 81       	ldd	r26, Y+3	; 0x03
    1fbe:	bc 81       	ldd	r27, Y+4	; 0x04
    1fc0:	14 96       	adiw	r26, 0x04	; 4
    1fc2:	8c 91       	ld	r24, X
    1fc4:	14 97       	sbiw	r26, 0x04	; 4
    1fc6:	80 68       	ori	r24, 0x80	; 128
    1fc8:	14 96       	adiw	r26, 0x04	; 4
    1fca:	8c 93       	st	X, r24
    1fcc:	c7 c0       	rjmp	.+398    	; 0x215c <f_read+0x2ba>
    1fce:	eb 81       	ldd	r30, Y+3	; 0x03
    1fd0:	fc 81       	ldd	r31, Y+4	; 0x04
    1fd2:	62 8b       	std	Z+18, r22	; 0x12
    1fd4:	73 8b       	std	Z+19, r23	; 0x13
    1fd6:	84 8b       	std	Z+20, r24	; 0x14
    1fd8:	95 8b       	std	Z+21, r25	; 0x15
    1fda:	15 82       	std	Z+5, r1	; 0x05
    1fdc:	ab 81       	ldd	r26, Y+3	; 0x03
    1fde:	bc 81       	ldd	r27, Y+4	; 0x04
    1fe0:	0d 91       	ld	r16, X+
    1fe2:	1c 91       	ld	r17, X
    1fe4:	11 97       	sbiw	r26, 0x01	; 1
    1fe6:	52 96       	adiw	r26, 0x12	; 18
    1fe8:	2d 91       	ld	r18, X+
    1fea:	3d 91       	ld	r19, X+
    1fec:	4d 91       	ld	r20, X+
    1fee:	5c 91       	ld	r21, X
    1ff0:	55 97       	sbiw	r26, 0x15	; 21
    1ff2:	22 50       	subi	r18, 0x02	; 2
    1ff4:	30 40       	sbci	r19, 0x00	; 0
    1ff6:	40 40       	sbci	r20, 0x00	; 0
    1ff8:	50 40       	sbci	r21, 0x00	; 0
    1ffa:	f8 01       	movw	r30, r16
    1ffc:	86 8d       	ldd	r24, Z+30	; 0x1e
    1ffe:	97 8d       	ldd	r25, Z+31	; 0x1f
    2000:	a0 a1       	ldd	r26, Z+32	; 0x20
    2002:	b1 a1       	ldd	r27, Z+33	; 0x21
    2004:	02 97       	sbiw	r24, 0x02	; 2
    2006:	a1 09       	sbc	r26, r1
    2008:	b1 09       	sbc	r27, r1
    200a:	28 17       	cp	r18, r24
    200c:	39 07       	cpc	r19, r25
    200e:	4a 07       	cpc	r20, r26
    2010:	5b 07       	cpc	r21, r27
    2012:	b8 f4       	brcc	.+46     	; 0x2042 <f_read+0x1a0>
    2014:	32 80       	ldd	r3, Z+2	; 0x02
    2016:	63 2d       	mov	r22, r3
    2018:	70 e0       	ldi	r23, 0x00	; 0
    201a:	80 e0       	ldi	r24, 0x00	; 0
    201c:	90 e0       	ldi	r25, 0x00	; 0
    201e:	0e 94 0d 2a 	call	0x541a	; 0x541a <__mulsi3>
    2022:	9b 01       	movw	r18, r22
    2024:	ac 01       	movw	r20, r24
    2026:	f8 01       	movw	r30, r16
    2028:	82 a5       	ldd	r24, Z+42	; 0x2a
    202a:	93 a5       	ldd	r25, Z+43	; 0x2b
    202c:	a4 a5       	ldd	r26, Z+44	; 0x2c
    202e:	b5 a5       	ldd	r27, Z+45	; 0x2d
    2030:	28 0f       	add	r18, r24
    2032:	39 1f       	adc	r19, r25
    2034:	4a 1f       	adc	r20, r26
    2036:	5b 1f       	adc	r21, r27
    2038:	21 15       	cp	r18, r1
    203a:	31 05       	cpc	r19, r1
    203c:	41 05       	cpc	r20, r1
    203e:	51 05       	cpc	r21, r1
    2040:	49 f4       	brne	.+18     	; 0x2054 <f_read+0x1b2>
    2042:	ab 81       	ldd	r26, Y+3	; 0x03
    2044:	bc 81       	ldd	r27, Y+4	; 0x04
    2046:	14 96       	adiw	r26, 0x04	; 4
    2048:	8c 91       	ld	r24, X
    204a:	14 97       	sbiw	r26, 0x04	; 4
    204c:	80 68       	ori	r24, 0x80	; 128
    204e:	14 96       	adiw	r26, 0x04	; 4
    2050:	8c 93       	st	X, r24
    2052:	a8 cf       	rjmp	.-176    	; 0x1fa4 <f_read+0x102>
    2054:	eb 81       	ldd	r30, Y+3	; 0x03
    2056:	fc 81       	ldd	r31, Y+4	; 0x04
    2058:	85 81       	ldd	r24, Z+5	; 0x05
    205a:	69 01       	movw	r12, r18
    205c:	7a 01       	movw	r14, r20
    205e:	c8 0e       	add	r12, r24
    2060:	d1 1c       	adc	r13, r1
    2062:	e1 1c       	adc	r14, r1
    2064:	f1 1c       	adc	r15, r1
    2066:	53 01       	movw	r10, r6
    2068:	ab 2c       	mov	r10, r11
    206a:	bb 24       	eor	r11, r11
    206c:	a6 94       	lsr	r10
    206e:	a1 14       	cp	r10, r1
    2070:	b1 04       	cpc	r11, r1
    2072:	09 f4       	brne	.+2      	; 0x2076 <f_read+0x1d4>
    2074:	52 c0       	rjmp	.+164    	; 0x211a <f_read+0x278>
    2076:	28 2f       	mov	r18, r24
    2078:	30 e0       	ldi	r19, 0x00	; 0
    207a:	c5 01       	movw	r24, r10
    207c:	82 0f       	add	r24, r18
    207e:	93 1f       	adc	r25, r19
    2080:	63 2d       	mov	r22, r3
    2082:	70 e0       	ldi	r23, 0x00	; 0
    2084:	68 17       	cp	r22, r24
    2086:	79 07       	cpc	r23, r25
    2088:	18 f4       	brcc	.+6      	; 0x2090 <f_read+0x1ee>
    208a:	5b 01       	movw	r10, r22
    208c:	a2 1a       	sub	r10, r18
    208e:	b3 0a       	sbc	r11, r19
    2090:	d8 01       	movw	r26, r16
    2092:	11 96       	adiw	r26, 0x01	; 1
    2094:	8c 91       	ld	r24, X
    2096:	b2 01       	movw	r22, r4
    2098:	a7 01       	movw	r20, r14
    209a:	96 01       	movw	r18, r12
    209c:	0a 2d       	mov	r16, r10
    209e:	0e 94 3b 18 	call	0x3076	; 0x3076 <disk_read>
    20a2:	89 2b       	or	r24, r25
    20a4:	09 f0       	breq	.+2      	; 0x20a8 <f_read+0x206>
    20a6:	55 c0       	rjmp	.+170    	; 0x2152 <f_read+0x2b0>
    20a8:	ab 81       	ldd	r26, Y+3	; 0x03
    20aa:	bc 81       	ldd	r27, Y+4	; 0x04
    20ac:	6d 91       	ld	r22, X+
    20ae:	7c 91       	ld	r23, X
    20b0:	fb 01       	movw	r30, r22
    20b2:	84 81       	ldd	r24, Z+4	; 0x04
    20b4:	88 23       	and	r24, r24
    20b6:	21 f1       	breq	.+72     	; 0x2100 <f_read+0x25e>
    20b8:	26 a5       	ldd	r18, Z+46	; 0x2e
    20ba:	37 a5       	ldd	r19, Z+47	; 0x2f
    20bc:	40 a9       	ldd	r20, Z+48	; 0x30
    20be:	51 a9       	ldd	r21, Z+49	; 0x31
    20c0:	2c 19       	sub	r18, r12
    20c2:	3d 09       	sbc	r19, r13
    20c4:	4e 09       	sbc	r20, r14
    20c6:	5f 09       	sbc	r21, r15
    20c8:	c5 01       	movw	r24, r10
    20ca:	a0 e0       	ldi	r26, 0x00	; 0
    20cc:	b0 e0       	ldi	r27, 0x00	; 0
    20ce:	28 17       	cp	r18, r24
    20d0:	39 07       	cpc	r19, r25
    20d2:	4a 07       	cpc	r20, r26
    20d4:	5b 07       	cpc	r21, r27
    20d6:	a0 f4       	brcc	.+40     	; 0x2100 <f_read+0x25e>
    20d8:	a9 e0       	ldi	r26, 0x09	; 9
    20da:	22 0f       	add	r18, r18
    20dc:	33 1f       	adc	r19, r19
    20de:	44 1f       	adc	r20, r20
    20e0:	55 1f       	adc	r21, r21
    20e2:	aa 95       	dec	r26
    20e4:	d1 f7       	brne	.-12     	; 0x20da <f_read+0x238>
    20e6:	d2 01       	movw	r26, r4
    20e8:	a2 0f       	add	r26, r18
    20ea:	b3 1f       	adc	r27, r19
    20ec:	f2 96       	adiw	r30, 0x32	; 50
    20ee:	9b 01       	movw	r18, r22
    20f0:	2e 5c       	subi	r18, 0xCE	; 206
    20f2:	3d 4f       	sbci	r19, 0xFD	; 253
    20f4:	02 c0       	rjmp	.+4      	; 0x20fa <f_read+0x258>
    20f6:	81 91       	ld	r24, Z+
    20f8:	8d 93       	st	X+, r24
    20fa:	e2 17       	cp	r30, r18
    20fc:	f3 07       	cpc	r31, r19
    20fe:	d9 f7       	brne	.-10     	; 0x20f6 <f_read+0x254>
    2100:	ab 81       	ldd	r26, Y+3	; 0x03
    2102:	bc 81       	ldd	r27, Y+4	; 0x04
    2104:	15 96       	adiw	r26, 0x05	; 5
    2106:	8c 91       	ld	r24, X
    2108:	15 97       	sbiw	r26, 0x05	; 5
    210a:	8a 0d       	add	r24, r10
    210c:	15 96       	adiw	r26, 0x05	; 5
    210e:	8c 93       	st	X, r24
    2110:	b5 01       	movw	r22, r10
    2112:	76 2f       	mov	r23, r22
    2114:	66 27       	eor	r22, r22
    2116:	77 0f       	add	r23, r23
    2118:	48 c0       	rjmp	.+144    	; 0x21aa <f_read+0x308>
    211a:	eb 81       	ldd	r30, Y+3	; 0x03
    211c:	fc 81       	ldd	r31, Y+4	; 0x04
    211e:	c6 8a       	std	Z+22, r12	; 0x16
    2120:	d7 8a       	std	Z+23, r13	; 0x17
    2122:	e0 8e       	std	Z+24, r14	; 0x18
    2124:	f1 8e       	std	Z+25, r15	; 0x19
    2126:	8f 5f       	subi	r24, 0xFF	; 255
    2128:	85 83       	std	Z+5, r24	; 0x05
    212a:	ab 81       	ldd	r26, Y+3	; 0x03
    212c:	bc 81       	ldd	r27, Y+4	; 0x04
    212e:	16 96       	adiw	r26, 0x06	; 6
    2130:	cd 90       	ld	r12, X+
    2132:	dd 90       	ld	r13, X+
    2134:	ed 90       	ld	r14, X+
    2136:	fc 90       	ld	r15, X
    2138:	19 97       	sbiw	r26, 0x09	; 9
    213a:	56 96       	adiw	r26, 0x16	; 22
    213c:	4d 91       	ld	r20, X+
    213e:	5d 91       	ld	r21, X+
    2140:	6d 91       	ld	r22, X+
    2142:	7c 91       	ld	r23, X
    2144:	59 97       	sbiw	r26, 0x19	; 25
    2146:	8d 91       	ld	r24, X+
    2148:	9c 91       	ld	r25, X
    214a:	0e 94 e5 03 	call	0x7ca	; 0x7ca <move_window>
    214e:	89 2b       	or	r24, r25
    2150:	49 f0       	breq	.+18     	; 0x2164 <f_read+0x2c2>
    2152:	eb 81       	ldd	r30, Y+3	; 0x03
    2154:	fc 81       	ldd	r31, Y+4	; 0x04
    2156:	84 81       	ldd	r24, Z+4	; 0x04
    2158:	80 68       	ori	r24, 0x80	; 128
    215a:	84 83       	std	Z+4, r24	; 0x04
    215c:	41 e0       	ldi	r20, 0x01	; 1
    215e:	84 2e       	mov	r8, r20
    2160:	91 2c       	mov	r9, r1
    2162:	44 c0       	rjmp	.+136    	; 0x21ec <f_read+0x34a>
    2164:	c6 01       	movw	r24, r12
    2166:	91 70       	andi	r25, 0x01	; 1
    2168:	20 e0       	ldi	r18, 0x00	; 0
    216a:	32 e0       	ldi	r19, 0x02	; 2
    216c:	28 1b       	sub	r18, r24
    216e:	39 0b       	sbc	r19, r25
    2170:	b3 01       	movw	r22, r6
    2172:	26 15       	cp	r18, r6
    2174:	37 05       	cpc	r19, r7
    2176:	08 f4       	brcc	.+2      	; 0x217a <f_read+0x2d8>
    2178:	b9 01       	movw	r22, r18
    217a:	a2 01       	movw	r20, r4
    217c:	ab 81       	ldd	r26, Y+3	; 0x03
    217e:	bc 81       	ldd	r27, Y+4	; 0x04
    2180:	16 96       	adiw	r26, 0x06	; 6
    2182:	8d 91       	ld	r24, X+
    2184:	9c 91       	ld	r25, X
    2186:	17 97       	sbiw	r26, 0x07	; 7
    2188:	91 70       	andi	r25, 0x01	; 1
    218a:	c2 96       	adiw	r24, 0x32	; 50
    218c:	ed 91       	ld	r30, X+
    218e:	fc 91       	ld	r31, X
    2190:	e8 0f       	add	r30, r24
    2192:	f9 1f       	adc	r31, r25
    2194:	9f 01       	movw	r18, r30
    2196:	26 0f       	add	r18, r22
    2198:	37 1f       	adc	r19, r23
    219a:	04 c0       	rjmp	.+8      	; 0x21a4 <f_read+0x302>
    219c:	81 91       	ld	r24, Z+
    219e:	da 01       	movw	r26, r20
    21a0:	8d 93       	st	X+, r24
    21a2:	ad 01       	movw	r20, r26
    21a4:	e2 17       	cp	r30, r18
    21a6:	f3 07       	cpc	r31, r19
    21a8:	c9 f7       	brne	.-14     	; 0x219c <f_read+0x2fa>
    21aa:	46 0e       	add	r4, r22
    21ac:	57 1e       	adc	r5, r23
    21ae:	cb 01       	movw	r24, r22
    21b0:	a0 e0       	ldi	r26, 0x00	; 0
    21b2:	b0 e0       	ldi	r27, 0x00	; 0
    21b4:	eb 81       	ldd	r30, Y+3	; 0x03
    21b6:	fc 81       	ldd	r31, Y+4	; 0x04
    21b8:	26 81       	ldd	r18, Z+6	; 0x06
    21ba:	37 81       	ldd	r19, Z+7	; 0x07
    21bc:	40 85       	ldd	r20, Z+8	; 0x08
    21be:	51 85       	ldd	r21, Z+9	; 0x09
    21c0:	28 0f       	add	r18, r24
    21c2:	39 1f       	adc	r19, r25
    21c4:	4a 1f       	adc	r20, r26
    21c6:	5b 1f       	adc	r21, r27
    21c8:	26 83       	std	Z+6, r18	; 0x06
    21ca:	37 83       	std	Z+7, r19	; 0x07
    21cc:	40 87       	std	Z+8, r20	; 0x08
    21ce:	51 87       	std	Z+9, r21	; 0x09
    21d0:	e9 81       	ldd	r30, Y+1	; 0x01
    21d2:	fa 81       	ldd	r31, Y+2	; 0x02
    21d4:	80 81       	ld	r24, Z
    21d6:	91 81       	ldd	r25, Z+1	; 0x01
    21d8:	86 0f       	add	r24, r22
    21da:	97 1f       	adc	r25, r23
    21dc:	91 83       	std	Z+1, r25	; 0x01
    21de:	80 83       	st	Z, r24
    21e0:	66 1a       	sub	r6, r22
    21e2:	77 0a       	sbc	r7, r23
    21e4:	61 14       	cp	r6, r1
    21e6:	71 04       	cpc	r7, r1
    21e8:	09 f0       	breq	.+2      	; 0x21ec <f_read+0x34a>
    21ea:	9e ce       	rjmp	.-708    	; 0x1f28 <f_read+0x86>
    21ec:	c4 01       	movw	r24, r8
    21ee:	24 96       	adiw	r28, 0x04	; 4
    21f0:	e1 e1       	ldi	r30, 0x11	; 17
    21f2:	0c 94 6b 2a 	jmp	0x54d6	; 0x54d6 <__epilogue_restores__+0x2>

000021f6 <check_fs>:
    21f6:	0f 93       	push	r16
    21f8:	cf 93       	push	r28
    21fa:	df 93       	push	r29
    21fc:	ec 01       	movw	r28, r24
    21fe:	9a 01       	movw	r18, r20
    2200:	ab 01       	movw	r20, r22
    2202:	bc 01       	movw	r22, r24
    2204:	6e 5c       	subi	r22, 0xCE	; 206
    2206:	7f 4f       	sbci	r23, 0xFF	; 255
    2208:	89 81       	ldd	r24, Y+1	; 0x01
    220a:	01 e0       	ldi	r16, 0x01	; 1
    220c:	0e 94 3b 18 	call	0x3076	; 0x3076 <disk_read>
    2210:	89 2b       	or	r24, r25
    2212:	11 f0       	breq	.+4      	; 0x2218 <check_fs+0x22>
    2214:	23 e0       	ldi	r18, 0x03	; 3
    2216:	29 c0       	rjmp	.+82     	; 0x226a <check_fs+0x74>
    2218:	c0 5d       	subi	r28, 0xD0	; 208
    221a:	dd 4f       	sbci	r29, 0xFD	; 253
    221c:	88 81       	ld	r24, Y
    221e:	99 81       	ldd	r25, Y+1	; 0x01
    2220:	c0 53       	subi	r28, 0x30	; 48
    2222:	d2 40       	sbci	r29, 0x02	; 2
    2224:	85 55       	subi	r24, 0x55	; 85
    2226:	9a 4a       	sbci	r25, 0xAA	; 170
    2228:	11 f0       	breq	.+4      	; 0x222e <check_fs+0x38>
    222a:	22 e0       	ldi	r18, 0x02	; 2
    222c:	1e c0       	rjmp	.+60     	; 0x226a <check_fs+0x74>
    222e:	c8 59       	subi	r28, 0x98	; 152
    2230:	df 4f       	sbci	r29, 0xFF	; 255
    2232:	88 81       	ld	r24, Y
    2234:	99 81       	ldd	r25, Y+1	; 0x01
    2236:	aa 81       	ldd	r26, Y+2	; 0x02
    2238:	bb 81       	ldd	r27, Y+3	; 0x03
    223a:	c8 56       	subi	r28, 0x68	; 104
    223c:	d0 40       	sbci	r29, 0x00	; 0
    223e:	b0 70       	andi	r27, 0x00	; 0
    2240:	86 54       	subi	r24, 0x46	; 70
    2242:	91 44       	sbci	r25, 0x41	; 65
    2244:	a4 45       	sbci	r26, 0x54	; 84
    2246:	b0 40       	sbci	r27, 0x00	; 0
    2248:	11 f4       	brne	.+4      	; 0x224e <check_fs+0x58>
    224a:	20 e0       	ldi	r18, 0x00	; 0
    224c:	0e c0       	rjmp	.+28     	; 0x226a <check_fs+0x74>
    224e:	20 e0       	ldi	r18, 0x00	; 0
    2250:	cc 57       	subi	r28, 0x7C	; 124
    2252:	df 4f       	sbci	r29, 0xFF	; 255
    2254:	88 81       	ld	r24, Y
    2256:	99 81       	ldd	r25, Y+1	; 0x01
    2258:	aa 81       	ldd	r26, Y+2	; 0x02
    225a:	bb 81       	ldd	r27, Y+3	; 0x03
    225c:	b0 70       	andi	r27, 0x00	; 0
    225e:	86 54       	subi	r24, 0x46	; 70
    2260:	91 44       	sbci	r25, 0x41	; 65
    2262:	a4 45       	sbci	r26, 0x54	; 84
    2264:	b0 40       	sbci	r27, 0x00	; 0
    2266:	09 f0       	breq	.+2      	; 0x226a <check_fs+0x74>
    2268:	21 e0       	ldi	r18, 0x01	; 1
    226a:	82 2f       	mov	r24, r18
    226c:	df 91       	pop	r29
    226e:	cf 91       	pop	r28
    2270:	0f 91       	pop	r16
    2272:	08 95       	ret

00002274 <f_sync>:
    2274:	0f 93       	push	r16
    2276:	1f 93       	push	r17
    2278:	cf 93       	push	r28
    227a:	df 93       	push	r29
    227c:	ec 01       	movw	r28, r24
    227e:	6a 81       	ldd	r22, Y+2	; 0x02
    2280:	7b 81       	ldd	r23, Y+3	; 0x03
    2282:	88 81       	ld	r24, Y
    2284:	99 81       	ldd	r25, Y+1	; 0x01
    2286:	0e 94 cb 03 	call	0x796	; 0x796 <validate>
    228a:	9c 01       	movw	r18, r24
    228c:	00 97       	sbiw	r24, 0x00	; 0
    228e:	09 f0       	breq	.+2      	; 0x2292 <f_sync+0x1e>
    2290:	a6 c0       	rjmp	.+332    	; 0x23de <f_sync+0x16a>
    2292:	8c 81       	ldd	r24, Y+4	; 0x04
    2294:	85 ff       	sbrs	r24, 5
    2296:	a3 c0       	rjmp	.+326    	; 0x23de <f_sync+0x16a>
    2298:	4a 8d       	ldd	r20, Y+26	; 0x1a
    229a:	5b 8d       	ldd	r21, Y+27	; 0x1b
    229c:	6c 8d       	ldd	r22, Y+28	; 0x1c
    229e:	7d 8d       	ldd	r23, Y+29	; 0x1d
    22a0:	88 81       	ld	r24, Y
    22a2:	99 81       	ldd	r25, Y+1	; 0x01
    22a4:	0e 94 e5 03 	call	0x7ca	; 0x7ca <move_window>
    22a8:	9c 01       	movw	r18, r24
    22aa:	00 97       	sbiw	r24, 0x00	; 0
    22ac:	09 f0       	breq	.+2      	; 0x22b0 <f_sync+0x3c>
    22ae:	97 c0       	rjmp	.+302    	; 0x23de <f_sync+0x16a>
    22b0:	0e 8d       	ldd	r16, Y+30	; 0x1e
    22b2:	1f 8d       	ldd	r17, Y+31	; 0x1f
    22b4:	f8 01       	movw	r30, r16
    22b6:	83 85       	ldd	r24, Z+11	; 0x0b
    22b8:	80 62       	ori	r24, 0x20	; 32
    22ba:	83 87       	std	Z+11, r24	; 0x0b
    22bc:	8a 85       	ldd	r24, Y+10	; 0x0a
    22be:	9b 85       	ldd	r25, Y+11	; 0x0b
    22c0:	ac 85       	ldd	r26, Y+12	; 0x0c
    22c2:	bd 85       	ldd	r27, Y+13	; 0x0d
    22c4:	84 8f       	std	Z+28, r24	; 0x1c
    22c6:	95 8f       	std	Z+29, r25	; 0x1d
    22c8:	a6 8f       	std	Z+30, r26	; 0x1e
    22ca:	b7 8f       	std	Z+31, r27	; 0x1f
    22cc:	8e 85       	ldd	r24, Y+14	; 0x0e
    22ce:	9f 85       	ldd	r25, Y+15	; 0x0f
    22d0:	93 8f       	std	Z+27, r25	; 0x1b
    22d2:	82 8f       	std	Z+26, r24	; 0x1a
    22d4:	8e 85       	ldd	r24, Y+14	; 0x0e
    22d6:	9f 85       	ldd	r25, Y+15	; 0x0f
    22d8:	a8 89       	ldd	r26, Y+16	; 0x10
    22da:	b9 89       	ldd	r27, Y+17	; 0x11
    22dc:	cd 01       	movw	r24, r26
    22de:	aa 27       	eor	r26, r26
    22e0:	bb 27       	eor	r27, r27
    22e2:	95 8b       	std	Z+21, r25	; 0x15
    22e4:	84 8b       	std	Z+20, r24	; 0x14
    22e6:	0e 94 fe 01 	call	0x3fc	; 0x3fc <get_fattime>
    22ea:	f8 01       	movw	r30, r16
    22ec:	66 8b       	std	Z+22, r22	; 0x16
    22ee:	77 8b       	std	Z+23, r23	; 0x17
    22f0:	80 8f       	std	Z+24, r24	; 0x18
    22f2:	91 8f       	std	Z+25, r25	; 0x19
    22f4:	8c 81       	ldd	r24, Y+4	; 0x04
    22f6:	8f 7d       	andi	r24, 0xDF	; 223
    22f8:	8c 83       	std	Y+4, r24	; 0x04
    22fa:	e8 81       	ld	r30, Y
    22fc:	f9 81       	ldd	r31, Y+1	; 0x01
    22fe:	81 e0       	ldi	r24, 0x01	; 1
    2300:	84 83       	std	Z+4, r24	; 0x04
    2302:	09 90       	ld	r0, Y+
    2304:	d8 81       	ld	r29, Y
    2306:	c0 2d       	mov	r28, r0
    2308:	ce 01       	movw	r24, r28
    230a:	40 e0       	ldi	r20, 0x00	; 0
    230c:	50 e0       	ldi	r21, 0x00	; 0
    230e:	60 e0       	ldi	r22, 0x00	; 0
    2310:	70 e0       	ldi	r23, 0x00	; 0
    2312:	0e 94 e5 03 	call	0x7ca	; 0x7ca <move_window>
    2316:	9c 01       	movw	r18, r24
    2318:	00 97       	sbiw	r24, 0x00	; 0
    231a:	09 f0       	breq	.+2      	; 0x231e <f_sync+0xaa>
    231c:	60 c0       	rjmp	.+192    	; 0x23de <f_sync+0x16a>
    231e:	88 81       	ld	r24, Y
    2320:	83 30       	cpi	r24, 0x03	; 3
    2322:	09 f0       	breq	.+2      	; 0x2326 <f_sync+0xb2>
    2324:	51 c0       	rjmp	.+162    	; 0x23c8 <f_sync+0x154>
    2326:	8d 81       	ldd	r24, Y+5	; 0x05
    2328:	88 23       	and	r24, r24
    232a:	09 f4       	brne	.+2      	; 0x232e <f_sync+0xba>
    232c:	4d c0       	rjmp	.+154    	; 0x23c8 <f_sync+0x154>
    232e:	1e a6       	std	Y+46, r1	; 0x2e
    2330:	1f a6       	std	Y+47, r1	; 0x2f
    2332:	18 aa       	std	Y+48, r1	; 0x30
    2334:	19 aa       	std	Y+49, r1	; 0x31
    2336:	be 01       	movw	r22, r28
    2338:	6e 5c       	subi	r22, 0xCE	; 206
    233a:	7f 4f       	sbci	r23, 0xFF	; 255
    233c:	fb 01       	movw	r30, r22
    233e:	ce 01       	movw	r24, r28
    2340:	8e 5c       	subi	r24, 0xCE	; 206
    2342:	9d 4f       	sbci	r25, 0xFD	; 253
    2344:	01 c0       	rjmp	.+2      	; 0x2348 <f_sync+0xd4>
    2346:	11 92       	st	Z+, r1
    2348:	e8 17       	cp	r30, r24
    234a:	f9 07       	cpc	r31, r25
    234c:	e1 f7       	brne	.-8      	; 0x2346 <f_sync+0xd2>
    234e:	c0 5d       	subi	r28, 0xD0	; 208
    2350:	dd 4f       	sbci	r29, 0xFD	; 253
    2352:	85 e5       	ldi	r24, 0x55	; 85
    2354:	9a ea       	ldi	r25, 0xAA	; 170
    2356:	99 83       	std	Y+1, r25	; 0x01
    2358:	88 83       	st	Y, r24
    235a:	c0 53       	subi	r28, 0x30	; 48
    235c:	d2 40       	sbci	r29, 0x02	; 2
    235e:	82 e5       	ldi	r24, 0x52	; 82
    2360:	92 e5       	ldi	r25, 0x52	; 82
    2362:	a1 e6       	ldi	r26, 0x61	; 97
    2364:	b1 e4       	ldi	r27, 0x41	; 65
    2366:	8a ab       	std	Y+50, r24	; 0x32
    2368:	9b ab       	std	Y+51, r25	; 0x33
    236a:	ac ab       	std	Y+52, r26	; 0x34
    236c:	bd ab       	std	Y+53, r27	; 0x35
    236e:	ca 5e       	subi	r28, 0xEA	; 234
    2370:	dd 4f       	sbci	r29, 0xFD	; 253
    2372:	82 e7       	ldi	r24, 0x72	; 114
    2374:	92 e7       	ldi	r25, 0x72	; 114
    2376:	a1 e4       	ldi	r26, 0x41	; 65
    2378:	b1 e6       	ldi	r27, 0x61	; 97
    237a:	88 83       	st	Y, r24
    237c:	99 83       	std	Y+1, r25	; 0x01
    237e:	aa 83       	std	Y+2, r26	; 0x02
    2380:	bb 83       	std	Y+3, r27	; 0x03
    2382:	c6 51       	subi	r28, 0x16	; 22
    2384:	d2 40       	sbci	r29, 0x02	; 2
    2386:	8e 85       	ldd	r24, Y+14	; 0x0e
    2388:	9f 85       	ldd	r25, Y+15	; 0x0f
    238a:	a8 89       	ldd	r26, Y+16	; 0x10
    238c:	b9 89       	ldd	r27, Y+17	; 0x11
    238e:	c6 5e       	subi	r28, 0xE6	; 230
    2390:	dd 4f       	sbci	r29, 0xFD	; 253
    2392:	88 83       	st	Y, r24
    2394:	99 83       	std	Y+1, r25	; 0x01
    2396:	aa 83       	std	Y+2, r26	; 0x02
    2398:	bb 83       	std	Y+3, r27	; 0x03
    239a:	ca 51       	subi	r28, 0x1A	; 26
    239c:	d2 40       	sbci	r29, 0x02	; 2
    239e:	8a 85       	ldd	r24, Y+10	; 0x0a
    23a0:	9b 85       	ldd	r25, Y+11	; 0x0b
    23a2:	ac 85       	ldd	r26, Y+12	; 0x0c
    23a4:	bd 85       	ldd	r27, Y+13	; 0x0d
    23a6:	c2 5e       	subi	r28, 0xE2	; 226
    23a8:	dd 4f       	sbci	r29, 0xFD	; 253
    23aa:	88 83       	st	Y, r24
    23ac:	99 83       	std	Y+1, r25	; 0x01
    23ae:	aa 83       	std	Y+2, r26	; 0x02
    23b0:	bb 83       	std	Y+3, r27	; 0x03
    23b2:	ce 51       	subi	r28, 0x1E	; 30
    23b4:	d2 40       	sbci	r29, 0x02	; 2
    23b6:	2a 89       	ldd	r18, Y+18	; 0x12
    23b8:	3b 89       	ldd	r19, Y+19	; 0x13
    23ba:	4c 89       	ldd	r20, Y+20	; 0x14
    23bc:	5d 89       	ldd	r21, Y+21	; 0x15
    23be:	89 81       	ldd	r24, Y+1	; 0x01
    23c0:	01 e0       	ldi	r16, 0x01	; 1
    23c2:	0e 94 99 18 	call	0x3132	; 0x3132 <disk_write>
    23c6:	1d 82       	std	Y+5, r1	; 0x05
    23c8:	89 81       	ldd	r24, Y+1	; 0x01
    23ca:	60 e0       	ldi	r22, 0x00	; 0
    23cc:	40 e0       	ldi	r20, 0x00	; 0
    23ce:	50 e0       	ldi	r21, 0x00	; 0
    23d0:	0e 94 10 19 	call	0x3220	; 0x3220 <disk_ioctl>
    23d4:	00 97       	sbiw	r24, 0x00	; 0
    23d6:	11 f0       	breq	.+4      	; 0x23dc <f_sync+0x168>
    23d8:	81 e0       	ldi	r24, 0x01	; 1
    23da:	90 e0       	ldi	r25, 0x00	; 0
    23dc:	9c 01       	movw	r18, r24
    23de:	c9 01       	movw	r24, r18
    23e0:	df 91       	pop	r29
    23e2:	cf 91       	pop	r28
    23e4:	1f 91       	pop	r17
    23e6:	0f 91       	pop	r16
    23e8:	08 95       	ret

000023ea <f_close>:
    23ea:	cf 93       	push	r28
    23ec:	df 93       	push	r29
    23ee:	ec 01       	movw	r28, r24
    23f0:	0e 94 3a 11 	call	0x2274	; 0x2274 <f_sync>
    23f4:	9c 01       	movw	r18, r24
    23f6:	00 97       	sbiw	r24, 0x00	; 0
    23f8:	11 f4       	brne	.+4      	; 0x23fe <f_close+0x14>
    23fa:	19 82       	std	Y+1, r1	; 0x01
    23fc:	18 82       	st	Y, r1
    23fe:	c9 01       	movw	r24, r18
    2400:	df 91       	pop	r29
    2402:	cf 91       	pop	r28
    2404:	08 95       	ret

00002406 <chk_mounted>:
    2406:	a0 e0       	ldi	r26, 0x00	; 0
    2408:	b0 e0       	ldi	r27, 0x00	; 0
    240a:	e9 e0       	ldi	r30, 0x09	; 9
    240c:	f2 e1       	ldi	r31, 0x12	; 18
    240e:	0c 94 52 2a 	jmp	0x54a4	; 0x54a4 <__prologue_saves__+0x8>
    2412:	dc 01       	movw	r26, r24
    2414:	14 2f       	mov	r17, r20
    2416:	ed 91       	ld	r30, X+
    2418:	fc 91       	ld	r31, X
    241a:	11 97       	sbiw	r26, 0x01	; 1
    241c:	80 81       	ld	r24, Z
    241e:	28 2f       	mov	r18, r24
    2420:	33 27       	eor	r19, r19
    2422:	27 fd       	sbrc	r18, 7
    2424:	30 95       	com	r19
    2426:	20 53       	subi	r18, 0x30	; 48
    2428:	30 40       	sbci	r19, 0x00	; 0
    242a:	2a 30       	cpi	r18, 0x0A	; 10
    242c:	31 05       	cpc	r19, r1
    242e:	38 f4       	brcc	.+14     	; 0x243e <chk_mounted+0x38>
    2430:	81 81       	ldd	r24, Z+1	; 0x01
    2432:	8a 33       	cpi	r24, 0x3A	; 58
    2434:	21 f4       	brne	.+8      	; 0x243e <chk_mounted+0x38>
    2436:	32 96       	adiw	r30, 0x02	; 2
    2438:	ed 93       	st	X+, r30
    243a:	fc 93       	st	X, r31
    243c:	04 c0       	rjmp	.+8      	; 0x2446 <chk_mounted+0x40>
    243e:	80 91 26 01 	lds	r24, 0x0126
    2442:	28 2f       	mov	r18, r24
    2444:	30 e0       	ldi	r19, 0x00	; 0
    2446:	23 2b       	or	r18, r19
    2448:	19 f0       	breq	.+6      	; 0x2450 <chk_mounted+0x4a>
    244a:	2b e0       	ldi	r18, 0x0B	; 11
    244c:	30 e0       	ldi	r19, 0x00	; 0
    244e:	81 c1       	rjmp	.+770    	; 0x2752 <chk_mounted+0x34c>
    2450:	c0 91 22 01 	lds	r28, 0x0122
    2454:	d0 91 23 01 	lds	r29, 0x0123
    2458:	fb 01       	movw	r30, r22
    245a:	d1 83       	std	Z+1, r29	; 0x01
    245c:	c0 83       	st	Z, r28
    245e:	20 97       	sbiw	r28, 0x00	; 0
    2460:	19 f4       	brne	.+6      	; 0x2468 <chk_mounted+0x62>
    2462:	2c e0       	ldi	r18, 0x0C	; 12
    2464:	30 e0       	ldi	r19, 0x00	; 0
    2466:	75 c1       	rjmp	.+746    	; 0x2752 <chk_mounted+0x34c>
    2468:	88 81       	ld	r24, Y
    246a:	88 23       	and	r24, r24
    246c:	59 f0       	breq	.+22     	; 0x2484 <chk_mounted+0x7e>
    246e:	89 81       	ldd	r24, Y+1	; 0x01
    2470:	0e 94 34 18 	call	0x3068	; 0x3068 <disk_status>
    2474:	80 fd       	sbrc	r24, 0
    2476:	06 c0       	rjmp	.+12     	; 0x2484 <chk_mounted+0x7e>
    2478:	11 23       	and	r17, r17
    247a:	09 f4       	brne	.+2      	; 0x247e <chk_mounted+0x78>
    247c:	65 c1       	rjmp	.+714    	; 0x2748 <chk_mounted+0x342>
    247e:	82 fd       	sbrc	r24, 2
    2480:	60 c1       	rjmp	.+704    	; 0x2742 <chk_mounted+0x33c>
    2482:	62 c1       	rjmp	.+708    	; 0x2748 <chk_mounted+0x342>
    2484:	18 82       	st	Y, r1
    2486:	19 82       	std	Y+1, r1	; 0x01
    2488:	80 e0       	ldi	r24, 0x00	; 0
    248a:	0e 94 71 17 	call	0x2ee2	; 0x2ee2 <disk_initialize>
    248e:	80 ff       	sbrs	r24, 0
    2490:	03 c0       	rjmp	.+6      	; 0x2498 <chk_mounted+0x92>
    2492:	23 e0       	ldi	r18, 0x03	; 3
    2494:	30 e0       	ldi	r19, 0x00	; 0
    2496:	5d c1       	rjmp	.+698    	; 0x2752 <chk_mounted+0x34c>
    2498:	11 23       	and	r17, r17
    249a:	11 f0       	breq	.+4      	; 0x24a0 <chk_mounted+0x9a>
    249c:	82 fd       	sbrc	r24, 2
    249e:	51 c1       	rjmp	.+674    	; 0x2742 <chk_mounted+0x33c>
    24a0:	ce 01       	movw	r24, r28
    24a2:	40 e0       	ldi	r20, 0x00	; 0
    24a4:	50 e0       	ldi	r21, 0x00	; 0
    24a6:	60 e0       	ldi	r22, 0x00	; 0
    24a8:	70 e0       	ldi	r23, 0x00	; 0
    24aa:	0e 94 fb 10 	call	0x21f6	; 0x21f6 <check_fs>
    24ae:	81 30       	cpi	r24, 0x01	; 1
    24b0:	21 f0       	breq	.+8      	; 0x24ba <chk_mounted+0xb4>
    24b2:	66 24       	eor	r6, r6
    24b4:	77 24       	eor	r7, r7
    24b6:	43 01       	movw	r8, r6
    24b8:	10 c0       	rjmp	.+32     	; 0x24da <chk_mounted+0xd4>
    24ba:	fe 01       	movw	r30, r28
    24bc:	e0 51       	subi	r30, 0x10	; 16
    24be:	fe 4f       	sbci	r31, 0xFE	; 254
    24c0:	84 81       	ldd	r24, Z+4	; 0x04
    24c2:	88 23       	and	r24, r24
    24c4:	09 f4       	brne	.+2      	; 0x24c8 <chk_mounted+0xc2>
    24c6:	43 c1       	rjmp	.+646    	; 0x274e <chk_mounted+0x348>
    24c8:	60 84       	ldd	r6, Z+8	; 0x08
    24ca:	71 84       	ldd	r7, Z+9	; 0x09
    24cc:	82 84       	ldd	r8, Z+10	; 0x0a
    24ce:	93 84       	ldd	r9, Z+11	; 0x0b
    24d0:	ce 01       	movw	r24, r28
    24d2:	b4 01       	movw	r22, r8
    24d4:	a3 01       	movw	r20, r6
    24d6:	0e 94 fb 10 	call	0x21f6	; 0x21f6 <check_fs>
    24da:	83 30       	cpi	r24, 0x03	; 3
    24dc:	19 f4       	brne	.+6      	; 0x24e4 <chk_mounted+0xde>
    24de:	21 e0       	ldi	r18, 0x01	; 1
    24e0:	30 e0       	ldi	r19, 0x00	; 0
    24e2:	37 c1       	rjmp	.+622    	; 0x2752 <chk_mounted+0x34c>
    24e4:	88 23       	and	r24, r24
    24e6:	09 f0       	breq	.+2      	; 0x24ea <chk_mounted+0xe4>
    24e8:	32 c1       	rjmp	.+612    	; 0x274e <chk_mounted+0x348>
    24ea:	8d ad       	ldd	r24, Y+61	; 0x3d
    24ec:	9e ad       	ldd	r25, Y+62	; 0x3e
    24ee:	80 50       	subi	r24, 0x00	; 0
    24f0:	92 40       	sbci	r25, 0x02	; 2
    24f2:	09 f0       	breq	.+2      	; 0x24f6 <chk_mounted+0xf0>
    24f4:	2c c1       	rjmp	.+600    	; 0x274e <chk_mounted+0x348>
    24f6:	c8 5b       	subi	r28, 0xB8	; 184
    24f8:	df 4f       	sbci	r29, 0xFF	; 255
    24fa:	88 81       	ld	r24, Y
    24fc:	99 81       	ldd	r25, Y+1	; 0x01
    24fe:	c8 54       	subi	r28, 0x48	; 72
    2500:	d0 40       	sbci	r29, 0x00	; 0
    2502:	bc 01       	movw	r22, r24
    2504:	80 e0       	ldi	r24, 0x00	; 0
    2506:	90 e0       	ldi	r25, 0x00	; 0
    2508:	61 15       	cp	r22, r1
    250a:	71 05       	cpc	r23, r1
    250c:	81 05       	cpc	r24, r1
    250e:	91 05       	cpc	r25, r1
    2510:	41 f4       	brne	.+16     	; 0x2522 <chk_mounted+0x11c>
    2512:	ca 5a       	subi	r28, 0xAA	; 170
    2514:	df 4f       	sbci	r29, 0xFF	; 255
    2516:	68 81       	ld	r22, Y
    2518:	79 81       	ldd	r23, Y+1	; 0x01
    251a:	8a 81       	ldd	r24, Y+2	; 0x02
    251c:	9b 81       	ldd	r25, Y+3	; 0x03
    251e:	c6 55       	subi	r28, 0x56	; 86
    2520:	d0 40       	sbci	r29, 0x00	; 0
    2522:	6a 8f       	std	Y+26, r22	; 0x1a
    2524:	7b 8f       	std	Y+27, r23	; 0x1b
    2526:	8c 8f       	std	Y+28, r24	; 0x1c
    2528:	9d 8f       	std	Y+29, r25	; 0x1d
    252a:	ce 5b       	subi	r28, 0xBE	; 190
    252c:	df 4f       	sbci	r29, 0xFF	; 255
    252e:	28 81       	ld	r18, Y
    2530:	c2 54       	subi	r28, 0x42	; 66
    2532:	d0 40       	sbci	r29, 0x00	; 0
    2534:	2b 83       	std	Y+3, r18	; 0x03
    2536:	30 e0       	ldi	r19, 0x00	; 0
    2538:	40 e0       	ldi	r20, 0x00	; 0
    253a:	50 e0       	ldi	r21, 0x00	; 0
    253c:	0e 94 0d 2a 	call	0x541a	; 0x541a <__mulsi3>
    2540:	5b 01       	movw	r10, r22
    2542:	6c 01       	movw	r12, r24
    2544:	fe 01       	movw	r30, r28
    2546:	e0 5c       	subi	r30, 0xC0	; 192
    2548:	ff 4f       	sbci	r31, 0xFF	; 255
    254a:	80 81       	ld	r24, Z
    254c:	91 81       	ldd	r25, Z+1	; 0x01
    254e:	a0 e0       	ldi	r26, 0x00	; 0
    2550:	b0 e0       	ldi	r27, 0x00	; 0
    2552:	86 0d       	add	r24, r6
    2554:	97 1d       	adc	r25, r7
    2556:	a8 1d       	adc	r26, r8
    2558:	b9 1d       	adc	r27, r9
    255a:	8a a3       	std	Y+34, r24	; 0x22
    255c:	9b a3       	std	Y+35, r25	; 0x23
    255e:	ac a3       	std	Y+36, r26	; 0x24
    2560:	bd a3       	std	Y+37, r27	; 0x25
    2562:	8f ad       	ldd	r24, Y+63	; 0x3f
    2564:	8a 83       	std	Y+2, r24	; 0x02
    2566:	cd 5b       	subi	r28, 0xBD	; 189
    2568:	df 4f       	sbci	r29, 0xFF	; 255
    256a:	28 81       	ld	r18, Y
    256c:	39 81       	ldd	r19, Y+1	; 0x01
    256e:	c3 54       	subi	r28, 0x43	; 67
    2570:	d0 40       	sbci	r29, 0x00	; 0
    2572:	39 87       	std	Y+9, r19	; 0x09
    2574:	28 87       	std	Y+8, r18	; 0x08
    2576:	cb 5b       	subi	r28, 0xBB	; 187
    2578:	df 4f       	sbci	r29, 0xFF	; 255
    257a:	88 81       	ld	r24, Y
    257c:	99 81       	ldd	r25, Y+1	; 0x01
    257e:	c5 54       	subi	r28, 0x45	; 69
    2580:	d0 40       	sbci	r29, 0x00	; 0
    2582:	7c 01       	movw	r14, r24
    2584:	00 e0       	ldi	r16, 0x00	; 0
    2586:	10 e0       	ldi	r17, 0x00	; 0
    2588:	e1 14       	cp	r14, r1
    258a:	f1 04       	cpc	r15, r1
    258c:	01 05       	cpc	r16, r1
    258e:	11 05       	cpc	r17, r1
    2590:	41 f4       	brne	.+16     	; 0x25a2 <chk_mounted+0x19c>
    2592:	ce 5a       	subi	r28, 0xAE	; 174
    2594:	df 4f       	sbci	r29, 0xFF	; 255
    2596:	e8 80       	ld	r14, Y
    2598:	f9 80       	ldd	r15, Y+1	; 0x01
    259a:	0a 81       	ldd	r16, Y+2	; 0x02
    259c:	1b 81       	ldd	r17, Y+3	; 0x03
    259e:	c2 55       	subi	r28, 0x52	; 82
    25a0:	d0 40       	sbci	r29, 0x00	; 0
    25a2:	80 81       	ld	r24, Z
    25a4:	91 81       	ldd	r25, Z+1	; 0x01
    25a6:	a0 e0       	ldi	r26, 0x00	; 0
    25a8:	b0 e0       	ldi	r27, 0x00	; 0
    25aa:	e8 1a       	sub	r14, r24
    25ac:	f9 0a       	sbc	r15, r25
    25ae:	0a 0b       	sbc	r16, r26
    25b0:	1b 0b       	sbc	r17, r27
    25b2:	ea 18       	sub	r14, r10
    25b4:	fb 08       	sbc	r15, r11
    25b6:	0c 09       	sbc	r16, r12
    25b8:	1d 09       	sbc	r17, r13
    25ba:	44 e0       	ldi	r20, 0x04	; 4
    25bc:	36 95       	lsr	r19
    25be:	27 95       	ror	r18
    25c0:	4a 95       	dec	r20
    25c2:	e1 f7       	brne	.-8      	; 0x25bc <chk_mounted+0x1b6>
    25c4:	c9 01       	movw	r24, r18
    25c6:	a0 e0       	ldi	r26, 0x00	; 0
    25c8:	b0 e0       	ldi	r27, 0x00	; 0
    25ca:	e8 1a       	sub	r14, r24
    25cc:	f9 0a       	sbc	r15, r25
    25ce:	0a 0b       	sbc	r16, r26
    25d0:	1b 0b       	sbc	r17, r27
    25d2:	2a 81       	ldd	r18, Y+2	; 0x02
    25d4:	30 e0       	ldi	r19, 0x00	; 0
    25d6:	40 e0       	ldi	r20, 0x00	; 0
    25d8:	50 e0       	ldi	r21, 0x00	; 0
    25da:	c8 01       	movw	r24, r16
    25dc:	b7 01       	movw	r22, r14
    25de:	0e 94 2c 2a 	call	0x5458	; 0x5458 <__udivmodsi4>
    25e2:	2e 5f       	subi	r18, 0xFE	; 254
    25e4:	3f 4f       	sbci	r19, 0xFF	; 255
    25e6:	4f 4f       	sbci	r20, 0xFF	; 255
    25e8:	5f 4f       	sbci	r21, 0xFF	; 255
    25ea:	2e 8f       	std	Y+30, r18	; 0x1e
    25ec:	3f 8f       	std	Y+31, r19	; 0x1f
    25ee:	48 a3       	std	Y+32, r20	; 0x20
    25f0:	59 a3       	std	Y+33, r21	; 0x21
    25f2:	27 3f       	cpi	r18, 0xF7	; 247
    25f4:	8f e0       	ldi	r24, 0x0F	; 15
    25f6:	38 07       	cpc	r19, r24
    25f8:	80 e0       	ldi	r24, 0x00	; 0
    25fa:	48 07       	cpc	r20, r24
    25fc:	80 e0       	ldi	r24, 0x00	; 0
    25fe:	58 07       	cpc	r21, r24
    2600:	10 f4       	brcc	.+4      	; 0x2606 <chk_mounted+0x200>
    2602:	11 e0       	ldi	r17, 0x01	; 1
    2604:	07 c0       	rjmp	.+14     	; 0x2614 <chk_mounted+0x20e>
    2606:	27 5f       	subi	r18, 0xF7	; 247
    2608:	3f 4f       	sbci	r19, 0xFF	; 255
    260a:	40 40       	sbci	r20, 0x00	; 0
    260c:	50 40       	sbci	r21, 0x00	; 0
    260e:	08 f0       	brcs	.+2      	; 0x2612 <chk_mounted+0x20c>
    2610:	a6 c0       	rjmp	.+332    	; 0x275e <chk_mounted+0x358>
    2612:	12 e0       	ldi	r17, 0x02	; 2
    2614:	8a a1       	ldd	r24, Y+34	; 0x22
    2616:	9b a1       	ldd	r25, Y+35	; 0x23
    2618:	ac a1       	ldd	r26, Y+36	; 0x24
    261a:	bd a1       	ldd	r27, Y+37	; 0x25
    261c:	8a 0d       	add	r24, r10
    261e:	9b 1d       	adc	r25, r11
    2620:	ac 1d       	adc	r26, r12
    2622:	bd 1d       	adc	r27, r13
    2624:	8e a3       	std	Y+38, r24	; 0x26
    2626:	9f a3       	std	Y+39, r25	; 0x27
    2628:	a8 a7       	std	Y+40, r26	; 0x28
    262a:	b9 a7       	std	Y+41, r27	; 0x29
    262c:	88 85       	ldd	r24, Y+8	; 0x08
    262e:	99 85       	ldd	r25, Y+9	; 0x09
    2630:	34 e0       	ldi	r19, 0x04	; 4
    2632:	96 95       	lsr	r25
    2634:	87 95       	ror	r24
    2636:	3a 95       	dec	r19
    2638:	e1 f7       	brne	.-8      	; 0x2632 <chk_mounted+0x22c>
    263a:	a0 e0       	ldi	r26, 0x00	; 0
    263c:	b0 e0       	ldi	r27, 0x00	; 0
    263e:	2a a1       	ldd	r18, Y+34	; 0x22
    2640:	3b a1       	ldd	r19, Y+35	; 0x23
    2642:	4c a1       	ldd	r20, Y+36	; 0x24
    2644:	5d a1       	ldd	r21, Y+37	; 0x25
    2646:	82 0f       	add	r24, r18
    2648:	93 1f       	adc	r25, r19
    264a:	a4 1f       	adc	r26, r20
    264c:	b5 1f       	adc	r27, r21
    264e:	8a 0d       	add	r24, r10
    2650:	9b 1d       	adc	r25, r11
    2652:	ac 1d       	adc	r26, r12
    2654:	bd 1d       	adc	r27, r13
    2656:	8a a7       	std	Y+42, r24	; 0x2a
    2658:	9b a7       	std	Y+43, r25	; 0x2b
    265a:	ac a7       	std	Y+44, r26	; 0x2c
    265c:	bd a7       	std	Y+45, r27	; 0x2d
    265e:	8f ef       	ldi	r24, 0xFF	; 255
    2660:	9f ef       	ldi	r25, 0xFF	; 255
    2662:	af ef       	ldi	r26, 0xFF	; 255
    2664:	bf ef       	ldi	r27, 0xFF	; 255
    2666:	8e 87       	std	Y+14, r24	; 0x0e
    2668:	9f 87       	std	Y+15, r25	; 0x0f
    266a:	a8 8b       	std	Y+16, r26	; 0x10
    266c:	b9 8b       	std	Y+17, r27	; 0x11
    266e:	1c 82       	std	Y+4, r1	; 0x04
    2670:	13 30       	cpi	r17, 0x03	; 3
    2672:	09 f0       	breq	.+2      	; 0x2676 <chk_mounted+0x270>
    2674:	51 c0       	rjmp	.+162    	; 0x2718 <chk_mounted+0x312>
    2676:	1d 82       	std	Y+5, r1	; 0x05
    2678:	ce 59       	subi	r28, 0x9E	; 158
    267a:	df 4f       	sbci	r29, 0xFF	; 255
    267c:	28 81       	ld	r18, Y
    267e:	39 81       	ldd	r19, Y+1	; 0x01
    2680:	c2 56       	subi	r28, 0x62	; 98
    2682:	d0 40       	sbci	r29, 0x00	; 0
    2684:	40 e0       	ldi	r20, 0x00	; 0
    2686:	50 e0       	ldi	r21, 0x00	; 0
    2688:	26 0d       	add	r18, r6
    268a:	37 1d       	adc	r19, r7
    268c:	48 1d       	adc	r20, r8
    268e:	59 1d       	adc	r21, r9
    2690:	2a 8b       	std	Y+18, r18	; 0x12
    2692:	3b 8b       	std	Y+19, r19	; 0x13
    2694:	4c 8b       	std	Y+20, r20	; 0x14
    2696:	5d 8b       	std	Y+21, r21	; 0x15
    2698:	be 01       	movw	r22, r28
    269a:	6e 5c       	subi	r22, 0xCE	; 206
    269c:	7f 4f       	sbci	r23, 0xFF	; 255
    269e:	89 81       	ldd	r24, Y+1	; 0x01
    26a0:	01 e0       	ldi	r16, 0x01	; 1
    26a2:	0e 94 3b 18 	call	0x3076	; 0x3076 <disk_read>
    26a6:	89 2b       	or	r24, r25
    26a8:	b9 f5       	brne	.+110    	; 0x2718 <chk_mounted+0x312>
    26aa:	c0 5d       	subi	r28, 0xD0	; 208
    26ac:	dd 4f       	sbci	r29, 0xFD	; 253
    26ae:	88 81       	ld	r24, Y
    26b0:	99 81       	ldd	r25, Y+1	; 0x01
    26b2:	c0 53       	subi	r28, 0x30	; 48
    26b4:	d2 40       	sbci	r29, 0x02	; 2
    26b6:	85 55       	subi	r24, 0x55	; 85
    26b8:	9a 4a       	sbci	r25, 0xAA	; 170
    26ba:	71 f5       	brne	.+92     	; 0x2718 <chk_mounted+0x312>
    26bc:	8a a9       	ldd	r24, Y+50	; 0x32
    26be:	9b a9       	ldd	r25, Y+51	; 0x33
    26c0:	ac a9       	ldd	r26, Y+52	; 0x34
    26c2:	bd a9       	ldd	r27, Y+53	; 0x35
    26c4:	82 55       	subi	r24, 0x52	; 82
    26c6:	92 45       	sbci	r25, 0x52	; 82
    26c8:	a1 46       	sbci	r26, 0x61	; 97
    26ca:	b1 44       	sbci	r27, 0x41	; 65
    26cc:	29 f5       	brne	.+74     	; 0x2718 <chk_mounted+0x312>
    26ce:	ca 5e       	subi	r28, 0xEA	; 234
    26d0:	dd 4f       	sbci	r29, 0xFD	; 253
    26d2:	88 81       	ld	r24, Y
    26d4:	99 81       	ldd	r25, Y+1	; 0x01
    26d6:	aa 81       	ldd	r26, Y+2	; 0x02
    26d8:	bb 81       	ldd	r27, Y+3	; 0x03
    26da:	c6 51       	subi	r28, 0x16	; 22
    26dc:	d2 40       	sbci	r29, 0x02	; 2
    26de:	82 57       	subi	r24, 0x72	; 114
    26e0:	92 47       	sbci	r25, 0x72	; 114
    26e2:	a1 44       	sbci	r26, 0x41	; 65
    26e4:	b1 46       	sbci	r27, 0x61	; 97
    26e6:	c1 f4       	brne	.+48     	; 0x2718 <chk_mounted+0x312>
    26e8:	c2 5e       	subi	r28, 0xE2	; 226
    26ea:	dd 4f       	sbci	r29, 0xFD	; 253
    26ec:	88 81       	ld	r24, Y
    26ee:	99 81       	ldd	r25, Y+1	; 0x01
    26f0:	aa 81       	ldd	r26, Y+2	; 0x02
    26f2:	bb 81       	ldd	r27, Y+3	; 0x03
    26f4:	ce 51       	subi	r28, 0x1E	; 30
    26f6:	d2 40       	sbci	r29, 0x02	; 2
    26f8:	8a 87       	std	Y+10, r24	; 0x0a
    26fa:	9b 87       	std	Y+11, r25	; 0x0b
    26fc:	ac 87       	std	Y+12, r26	; 0x0c
    26fe:	bd 87       	std	Y+13, r27	; 0x0d
    2700:	c6 5e       	subi	r28, 0xE6	; 230
    2702:	dd 4f       	sbci	r29, 0xFD	; 253
    2704:	88 81       	ld	r24, Y
    2706:	99 81       	ldd	r25, Y+1	; 0x01
    2708:	aa 81       	ldd	r26, Y+2	; 0x02
    270a:	bb 81       	ldd	r27, Y+3	; 0x03
    270c:	ca 51       	subi	r28, 0x1A	; 26
    270e:	d2 40       	sbci	r29, 0x02	; 2
    2710:	8e 87       	std	Y+14, r24	; 0x0e
    2712:	9f 87       	std	Y+15, r25	; 0x0f
    2714:	a8 8b       	std	Y+16, r26	; 0x10
    2716:	b9 8b       	std	Y+17, r27	; 0x11
    2718:	18 83       	st	Y, r17
    271a:	1e a6       	std	Y+46, r1	; 0x2e
    271c:	1f a6       	std	Y+47, r1	; 0x2f
    271e:	18 aa       	std	Y+48, r1	; 0x30
    2720:	19 aa       	std	Y+49, r1	; 0x31
    2722:	1e 8a       	std	Y+22, r1	; 0x16
    2724:	1f 8a       	std	Y+23, r1	; 0x17
    2726:	18 8e       	std	Y+24, r1	; 0x18
    2728:	19 8e       	std	Y+25, r1	; 0x19
    272a:	80 91 24 01 	lds	r24, 0x0124
    272e:	90 91 25 01 	lds	r25, 0x0125
    2732:	01 96       	adiw	r24, 0x01	; 1
    2734:	90 93 25 01 	sts	0x0125, r25
    2738:	80 93 24 01 	sts	0x0124, r24
    273c:	9f 83       	std	Y+7, r25	; 0x07
    273e:	8e 83       	std	Y+6, r24	; 0x06
    2740:	03 c0       	rjmp	.+6      	; 0x2748 <chk_mounted+0x342>
    2742:	2a e0       	ldi	r18, 0x0A	; 10
    2744:	30 e0       	ldi	r19, 0x00	; 0
    2746:	05 c0       	rjmp	.+10     	; 0x2752 <chk_mounted+0x34c>
    2748:	20 e0       	ldi	r18, 0x00	; 0
    274a:	30 e0       	ldi	r19, 0x00	; 0
    274c:	02 c0       	rjmp	.+4      	; 0x2752 <chk_mounted+0x34c>
    274e:	2d e0       	ldi	r18, 0x0D	; 13
    2750:	30 e0       	ldi	r19, 0x00	; 0
    2752:	c9 01       	movw	r24, r18
    2754:	cd b7       	in	r28, 0x3d	; 61
    2756:	de b7       	in	r29, 0x3e	; 62
    2758:	ee e0       	ldi	r30, 0x0E	; 14
    275a:	0c 94 6e 2a 	jmp	0x54dc	; 0x54dc <__epilogue_restores__+0x8>
    275e:	c2 5a       	subi	r28, 0xA2	; 162
    2760:	df 4f       	sbci	r29, 0xFF	; 255
    2762:	88 81       	ld	r24, Y
    2764:	99 81       	ldd	r25, Y+1	; 0x01
    2766:	aa 81       	ldd	r26, Y+2	; 0x02
    2768:	bb 81       	ldd	r27, Y+3	; 0x03
    276a:	ce 55       	subi	r28, 0x5E	; 94
    276c:	d0 40       	sbci	r29, 0x00	; 0
    276e:	8e a3       	std	Y+38, r24	; 0x26
    2770:	9f a3       	std	Y+39, r25	; 0x27
    2772:	a8 a7       	std	Y+40, r26	; 0x28
    2774:	b9 a7       	std	Y+41, r27	; 0x29
    2776:	13 e0       	ldi	r17, 0x03	; 3
    2778:	59 cf       	rjmp	.-334    	; 0x262c <chk_mounted+0x226>

0000277a <f_opendir>:
    277a:	ae e0       	ldi	r26, 0x0E	; 14
    277c:	b0 e0       	ldi	r27, 0x00	; 0
    277e:	e3 ec       	ldi	r30, 0xC3	; 195
    2780:	f3 e1       	ldi	r31, 0x13	; 19
    2782:	0c 94 5c 2a 	jmp	0x54b8	; 0x54b8 <__prologue_saves__+0x1c>
    2786:	8c 01       	movw	r16, r24
    2788:	7e 87       	std	Y+14, r23	; 0x0e
    278a:	6d 87       	std	Y+13, r22	; 0x0d
    278c:	ce 01       	movw	r24, r28
    278e:	0d 96       	adiw	r24, 0x0d	; 13
    2790:	b8 01       	movw	r22, r16
    2792:	40 e0       	ldi	r20, 0x00	; 0
    2794:	0e 94 03 12 	call	0x2406	; 0x2406 <chk_mounted>
    2798:	9c 01       	movw	r18, r24
    279a:	00 97       	sbiw	r24, 0x00	; 0
    279c:	09 f0       	breq	.+2      	; 0x27a0 <f_opendir+0x26>
    279e:	42 c0       	rjmp	.+132    	; 0x2824 <f_opendir+0xaa>
    27a0:	ce 01       	movw	r24, r28
    27a2:	01 96       	adiw	r24, 0x01	; 1
    27a4:	d8 01       	movw	r26, r16
    27a6:	55 96       	adiw	r26, 0x15	; 21
    27a8:	9c 93       	st	X, r25
    27aa:	8e 93       	st	-X, r24
    27ac:	54 97       	sbiw	r26, 0x14	; 20
    27ae:	6d 85       	ldd	r22, Y+13	; 0x0d
    27b0:	7e 85       	ldd	r23, Y+14	; 0x0e
    27b2:	c8 01       	movw	r24, r16
    27b4:	0e 94 b8 0b 	call	0x1770	; 0x1770 <follow_path>
    27b8:	9c 01       	movw	r18, r24
    27ba:	00 97       	sbiw	r24, 0x00	; 0
    27bc:	71 f5       	brne	.+92     	; 0x281a <f_opendir+0xa0>
    27be:	d8 01       	movw	r26, r16
    27c0:	52 96       	adiw	r26, 0x12	; 18
    27c2:	ed 91       	ld	r30, X+
    27c4:	fc 91       	ld	r31, X
    27c6:	53 97       	sbiw	r26, 0x13	; 19
    27c8:	30 97       	sbiw	r30, 0x00	; 0
    27ca:	b9 f0       	breq	.+46     	; 0x27fa <f_opendir+0x80>
    27cc:	83 85       	ldd	r24, Z+11	; 0x0b
    27ce:	84 ff       	sbrs	r24, 4
    27d0:	27 c0       	rjmp	.+78     	; 0x2820 <f_opendir+0xa6>
    27d2:	84 89       	ldd	r24, Z+20	; 0x14
    27d4:	95 89       	ldd	r25, Z+21	; 0x15
    27d6:	a0 e0       	ldi	r26, 0x00	; 0
    27d8:	b0 e0       	ldi	r27, 0x00	; 0
    27da:	dc 01       	movw	r26, r24
    27dc:	99 27       	eor	r25, r25
    27de:	88 27       	eor	r24, r24
    27e0:	22 8d       	ldd	r18, Z+26	; 0x1a
    27e2:	33 8d       	ldd	r19, Z+27	; 0x1b
    27e4:	40 e0       	ldi	r20, 0x00	; 0
    27e6:	50 e0       	ldi	r21, 0x00	; 0
    27e8:	82 2b       	or	r24, r18
    27ea:	93 2b       	or	r25, r19
    27ec:	a4 2b       	or	r26, r20
    27ee:	b5 2b       	or	r27, r21
    27f0:	f8 01       	movw	r30, r16
    27f2:	86 83       	std	Z+6, r24	; 0x06
    27f4:	97 83       	std	Z+7, r25	; 0x07
    27f6:	a0 87       	std	Z+8, r26	; 0x08
    27f8:	b1 87       	std	Z+9, r27	; 0x09
    27fa:	d8 01       	movw	r26, r16
    27fc:	ed 91       	ld	r30, X+
    27fe:	fc 91       	ld	r31, X
    2800:	11 97       	sbiw	r26, 0x01	; 1
    2802:	86 81       	ldd	r24, Z+6	; 0x06
    2804:	97 81       	ldd	r25, Z+7	; 0x07
    2806:	13 96       	adiw	r26, 0x03	; 3
    2808:	9c 93       	st	X, r25
    280a:	8e 93       	st	-X, r24
    280c:	12 97       	sbiw	r26, 0x02	; 2
    280e:	c8 01       	movw	r24, r16
    2810:	60 e0       	ldi	r22, 0x00	; 0
    2812:	70 e0       	ldi	r23, 0x00	; 0
    2814:	0e 94 cf 05 	call	0xb9e	; 0xb9e <dir_seek>
    2818:	9c 01       	movw	r18, r24
    281a:	24 30       	cpi	r18, 0x04	; 4
    281c:	31 05       	cpc	r19, r1
    281e:	11 f4       	brne	.+4      	; 0x2824 <f_opendir+0xaa>
    2820:	25 e0       	ldi	r18, 0x05	; 5
    2822:	30 e0       	ldi	r19, 0x00	; 0
    2824:	c9 01       	movw	r24, r18
    2826:	2e 96       	adiw	r28, 0x0e	; 14
    2828:	e4 e0       	ldi	r30, 0x04	; 4
    282a:	0c 94 78 2a 	jmp	0x54f0	; 0x54f0 <__epilogue_restores__+0x1c>

0000282e <f_chdir>:
    282e:	a4 e2       	ldi	r26, 0x24	; 36
    2830:	b0 e0       	ldi	r27, 0x00	; 0
    2832:	ed e1       	ldi	r30, 0x1D	; 29
    2834:	f4 e1       	ldi	r31, 0x14	; 20
    2836:	0c 94 5c 2a 	jmp	0x54b8	; 0x54b8 <__prologue_saves__+0x1c>
    283a:	9c a3       	std	Y+36, r25	; 0x24
    283c:	8b a3       	std	Y+35, r24	; 0x23
    283e:	8e 01       	movw	r16, r28
    2840:	03 5f       	subi	r16, 0xF3	; 243
    2842:	1f 4f       	sbci	r17, 0xFF	; 255
    2844:	ce 01       	movw	r24, r28
    2846:	83 96       	adiw	r24, 0x23	; 35
    2848:	b8 01       	movw	r22, r16
    284a:	40 e0       	ldi	r20, 0x00	; 0
    284c:	0e 94 03 12 	call	0x2406	; 0x2406 <chk_mounted>
    2850:	bc 01       	movw	r22, r24
    2852:	00 97       	sbiw	r24, 0x00	; 0
    2854:	e9 f5       	brne	.+122    	; 0x28d0 <f_chdir+0xa2>
    2856:	ce 01       	movw	r24, r28
    2858:	01 96       	adiw	r24, 0x01	; 1
    285a:	9a a3       	std	Y+34, r25	; 0x22
    285c:	89 a3       	std	Y+33, r24	; 0x21
    285e:	6b a1       	ldd	r22, Y+35	; 0x23
    2860:	7c a1       	ldd	r23, Y+36	; 0x24
    2862:	c8 01       	movw	r24, r16
    2864:	0e 94 b8 0b 	call	0x1770	; 0x1770 <follow_path>
    2868:	bc 01       	movw	r22, r24
    286a:	00 97       	sbiw	r24, 0x00	; 0
    286c:	61 f5       	brne	.+88     	; 0x28c6 <f_chdir+0x98>
    286e:	2f 8d       	ldd	r18, Y+31	; 0x1f
    2870:	38 a1       	ldd	r19, Y+32	; 0x20
    2872:	21 15       	cp	r18, r1
    2874:	31 05       	cpc	r19, r1
    2876:	39 f4       	brne	.+14     	; 0x2886 <f_chdir+0x58>
    2878:	ed 85       	ldd	r30, Y+13	; 0x0d
    287a:	fe 85       	ldd	r31, Y+14	; 0x0e
    287c:	16 8a       	std	Z+22, r1	; 0x16
    287e:	17 8a       	std	Z+23, r1	; 0x17
    2880:	10 8e       	std	Z+24, r1	; 0x18
    2882:	11 8e       	std	Z+25, r1	; 0x19
    2884:	25 c0       	rjmp	.+74     	; 0x28d0 <f_chdir+0xa2>
    2886:	d9 01       	movw	r26, r18
    2888:	1b 96       	adiw	r26, 0x0b	; 11
    288a:	8c 91       	ld	r24, X
    288c:	1b 97       	sbiw	r26, 0x0b	; 11
    288e:	84 ff       	sbrs	r24, 4
    2890:	1d c0       	rjmp	.+58     	; 0x28cc <f_chdir+0x9e>
    2892:	0d 85       	ldd	r16, Y+13	; 0x0d
    2894:	1e 85       	ldd	r17, Y+14	; 0x0e
    2896:	54 96       	adiw	r26, 0x14	; 20
    2898:	8d 91       	ld	r24, X+
    289a:	9c 91       	ld	r25, X
    289c:	55 97       	sbiw	r26, 0x15	; 21
    289e:	a0 e0       	ldi	r26, 0x00	; 0
    28a0:	b0 e0       	ldi	r27, 0x00	; 0
    28a2:	dc 01       	movw	r26, r24
    28a4:	99 27       	eor	r25, r25
    28a6:	88 27       	eor	r24, r24
    28a8:	f9 01       	movw	r30, r18
    28aa:	22 8d       	ldd	r18, Z+26	; 0x1a
    28ac:	33 8d       	ldd	r19, Z+27	; 0x1b
    28ae:	40 e0       	ldi	r20, 0x00	; 0
    28b0:	50 e0       	ldi	r21, 0x00	; 0
    28b2:	82 2b       	or	r24, r18
    28b4:	93 2b       	or	r25, r19
    28b6:	a4 2b       	or	r26, r20
    28b8:	b5 2b       	or	r27, r21
    28ba:	f8 01       	movw	r30, r16
    28bc:	86 8b       	std	Z+22, r24	; 0x16
    28be:	97 8b       	std	Z+23, r25	; 0x17
    28c0:	a0 8f       	std	Z+24, r26	; 0x18
    28c2:	b1 8f       	std	Z+25, r27	; 0x19
    28c4:	05 c0       	rjmp	.+10     	; 0x28d0 <f_chdir+0xa2>
    28c6:	84 30       	cpi	r24, 0x04	; 4
    28c8:	91 05       	cpc	r25, r1
    28ca:	11 f4       	brne	.+4      	; 0x28d0 <f_chdir+0xa2>
    28cc:	65 e0       	ldi	r22, 0x05	; 5
    28ce:	70 e0       	ldi	r23, 0x00	; 0
    28d0:	cb 01       	movw	r24, r22
    28d2:	a4 96       	adiw	r28, 0x24	; 36
    28d4:	e4 e0       	ldi	r30, 0x04	; 4
    28d6:	0c 94 78 2a 	jmp	0x54f0	; 0x54f0 <__epilogue_restores__+0x1c>

000028da <f_open>:
    28da:	ad e2       	ldi	r26, 0x2D	; 45
    28dc:	b0 e0       	ldi	r27, 0x00	; 0
    28de:	e3 e7       	ldi	r30, 0x73	; 115
    28e0:	f4 e1       	ldi	r31, 0x14	; 20
    28e2:	0c 94 4e 2a 	jmp	0x549c	; 0x549c <__prologue_saves__>
    28e6:	9d a7       	std	Y+45, r25	; 0x2d
    28e8:	8c a7       	std	Y+44, r24	; 0x2c
    28ea:	7c a3       	std	Y+36, r23	; 0x24
    28ec:	6b a3       	std	Y+35, r22	; 0x23
    28ee:	dc 01       	movw	r26, r24
    28f0:	1d 92       	st	X+, r1
    28f2:	1c 92       	st	X, r1
    28f4:	b4 2f       	mov	r27, r20
    28f6:	bf 71       	andi	r27, 0x1F	; 31
    28f8:	bd a3       	std	Y+37, r27	; 0x25
    28fa:	8e 01       	movw	r16, r28
    28fc:	03 5f       	subi	r16, 0xF3	; 243
    28fe:	1f 4f       	sbci	r17, 0xFF	; 255
    2900:	4e 71       	andi	r20, 0x1E	; 30
    2902:	ce 01       	movw	r24, r28
    2904:	83 96       	adiw	r24, 0x23	; 35
    2906:	b8 01       	movw	r22, r16
    2908:	0e 94 03 12 	call	0x2406	; 0x2406 <chk_mounted>
    290c:	00 97       	sbiw	r24, 0x00	; 0
    290e:	11 f0       	breq	.+4      	; 0x2914 <f_open+0x3a>
    2910:	9c 01       	movw	r18, r24
    2912:	a8 c1       	rjmp	.+848    	; 0x2c64 <f_open+0x38a>
    2914:	ce 01       	movw	r24, r28
    2916:	01 96       	adiw	r24, 0x01	; 1
    2918:	9a a3       	std	Y+34, r25	; 0x22
    291a:	89 a3       	std	Y+33, r24	; 0x21
    291c:	6b a1       	ldd	r22, Y+35	; 0x23
    291e:	7c a1       	ldd	r23, Y+36	; 0x24
    2920:	c8 01       	movw	r24, r16
    2922:	0e 94 b8 0b 	call	0x1770	; 0x1770 <follow_path>
    2926:	9c 01       	movw	r18, r24
    2928:	ed a1       	ldd	r30, Y+37	; 0x25
    292a:	4e 2f       	mov	r20, r30
    292c:	50 e0       	ldi	r21, 0x00	; 0
    292e:	ca 01       	movw	r24, r20
    2930:	8c 71       	andi	r24, 0x1C	; 28
    2932:	90 70       	andi	r25, 0x00	; 0
    2934:	89 2b       	or	r24, r25
    2936:	09 f4       	brne	.+2      	; 0x293a <f_open+0x60>
    2938:	25 c1       	rjmp	.+586    	; 0x2b84 <f_open+0x2aa>
    293a:	21 15       	cp	r18, r1
    293c:	31 05       	cpc	r19, r1
    293e:	09 f4       	brne	.+2      	; 0x2942 <f_open+0x68>
    2940:	57 c0       	rjmp	.+174    	; 0x29f0 <f_open+0x116>
    2942:	24 30       	cpi	r18, 0x04	; 4
    2944:	31 05       	cpc	r19, r1
    2946:	09 f0       	breq	.+2      	; 0x294a <f_open+0x70>
    2948:	8d c1       	rjmp	.+794    	; 0x2c64 <f_open+0x38a>
    294a:	c8 01       	movw	r24, r16
    294c:	60 e0       	ldi	r22, 0x00	; 0
    294e:	70 e0       	ldi	r23, 0x00	; 0
    2950:	0e 94 cf 05 	call	0xb9e	; 0xb9e <dir_seek>
    2954:	9c 01       	movw	r18, r24
    2956:	00 97       	sbiw	r24, 0x00	; 0
    2958:	09 f0       	breq	.+2      	; 0x295c <f_open+0x82>
    295a:	84 c1       	rjmp	.+776    	; 0x2c64 <f_open+0x38a>
    295c:	4b 8d       	ldd	r20, Y+27	; 0x1b
    295e:	5c 8d       	ldd	r21, Y+28	; 0x1c
    2960:	6d 8d       	ldd	r22, Y+29	; 0x1d
    2962:	7e 8d       	ldd	r23, Y+30	; 0x1e
    2964:	8d 85       	ldd	r24, Y+13	; 0x0d
    2966:	9e 85       	ldd	r25, Y+14	; 0x0e
    2968:	0e 94 e5 03 	call	0x7ca	; 0x7ca <move_window>
    296c:	9c 01       	movw	r18, r24
    296e:	00 97       	sbiw	r24, 0x00	; 0
    2970:	09 f0       	breq	.+2      	; 0x2974 <f_open+0x9a>
    2972:	78 c1       	rjmp	.+752    	; 0x2c64 <f_open+0x38a>
    2974:	ef 8d       	ldd	r30, Y+31	; 0x1f
    2976:	f8 a1       	ldd	r31, Y+32	; 0x20
    2978:	e0 81       	ld	r30, Z
    297a:	e5 3e       	cpi	r30, 0xE5	; 229
    297c:	09 f4       	brne	.+2      	; 0x2980 <f_open+0xa6>
    297e:	89 c1       	rjmp	.+786    	; 0x2c92 <f_open+0x3b8>
    2980:	ee 23       	and	r30, r30
    2982:	09 f4       	brne	.+2      	; 0x2986 <f_open+0xac>
    2984:	86 c1       	rjmp	.+780    	; 0x2c92 <f_open+0x3b8>
    2986:	c8 01       	movw	r24, r16
    2988:	61 e0       	ldi	r22, 0x01	; 1
    298a:	70 e0       	ldi	r23, 0x00	; 0
    298c:	0e 94 76 09 	call	0x12ec	; 0x12ec <dir_next>
    2990:	9c 01       	movw	r18, r24
    2992:	00 97       	sbiw	r24, 0x00	; 0
    2994:	19 f3       	breq	.-58     	; 0x295c <f_open+0x82>
    2996:	66 c1       	rjmp	.+716    	; 0x2c64 <f_open+0x38a>
    2998:	af 8d       	ldd	r26, Y+31	; 0x1f
    299a:	b8 a1       	ldd	r27, Y+32	; 0x20
    299c:	ad 01       	movw	r20, r26
    299e:	fd 01       	movw	r30, r26
    29a0:	cd 01       	movw	r24, r26
    29a2:	80 96       	adiw	r24, 0x20	; 32
    29a4:	01 c0       	rjmp	.+2      	; 0x29a8 <f_open+0xce>
    29a6:	11 92       	st	Z+, r1
    29a8:	e8 17       	cp	r30, r24
    29aa:	f9 07       	cpc	r31, r25
    29ac:	e1 f7       	brne	.-8      	; 0x29a6 <f_open+0xcc>
    29ae:	69 a1       	ldd	r22, Y+33	; 0x21
    29b0:	7a a1       	ldd	r23, Y+34	; 0x22
    29b2:	9b 01       	movw	r18, r22
    29b4:	25 5f       	subi	r18, 0xF5	; 245
    29b6:	3f 4f       	sbci	r19, 0xFF	; 255
    29b8:	06 c0       	rjmp	.+12     	; 0x29c6 <f_open+0xec>
    29ba:	fb 01       	movw	r30, r22
    29bc:	81 91       	ld	r24, Z+
    29be:	bf 01       	movw	r22, r30
    29c0:	fa 01       	movw	r30, r20
    29c2:	81 93       	st	Z+, r24
    29c4:	af 01       	movw	r20, r30
    29c6:	62 17       	cp	r22, r18
    29c8:	73 07       	cpc	r23, r19
    29ca:	b9 f7       	brne	.-18     	; 0x29ba <f_open+0xe0>
    29cc:	e9 a1       	ldd	r30, Y+33	; 0x21
    29ce:	fa a1       	ldd	r31, Y+34	; 0x22
    29d0:	83 85       	ldd	r24, Z+11	; 0x0b
    29d2:	88 71       	andi	r24, 0x18	; 24
    29d4:	1c 96       	adiw	r26, 0x0c	; 12
    29d6:	8c 93       	st	X, r24
    29d8:	ed 85       	ldd	r30, Y+13	; 0x0d
    29da:	fe 85       	ldd	r31, Y+14	; 0x0e
    29dc:	81 e0       	ldi	r24, 0x01	; 1
    29de:	84 83       	std	Z+4, r24	; 0x04
    29e0:	fd a1       	ldd	r31, Y+37	; 0x25
    29e2:	f8 60       	ori	r31, 0x08	; 8
    29e4:	fd a3       	std	Y+37, r31	; 0x25
    29e6:	8f 8d       	ldd	r24, Y+31	; 0x1f
    29e8:	98 a1       	ldd	r25, Y+32	; 0x20
    29ea:	9b a7       	std	Y+43, r25	; 0x2b
    29ec:	8a a7       	std	Y+42, r24	; 0x2a
    29ee:	b3 c0       	rjmp	.+358    	; 0x2b56 <f_open+0x27c>
    29f0:	e2 ff       	sbrs	r30, 2
    29f2:	03 c0       	rjmp	.+6      	; 0x29fa <f_open+0x120>
    29f4:	28 e0       	ldi	r18, 0x08	; 8
    29f6:	30 e0       	ldi	r19, 0x00	; 0
    29f8:	35 c1       	rjmp	.+618    	; 0x2c64 <f_open+0x38a>
    29fa:	af 8d       	ldd	r26, Y+31	; 0x1f
    29fc:	b8 a1       	ldd	r27, Y+32	; 0x20
    29fe:	bb a7       	std	Y+43, r27	; 0x2b
    2a00:	aa a7       	std	Y+42, r26	; 0x2a
    2a02:	10 97       	sbiw	r26, 0x00	; 0
    2a04:	09 f4       	brne	.+2      	; 0x2a08 <f_open+0x12e>
    2a06:	29 c1       	rjmp	.+594    	; 0x2c5a <f_open+0x380>
    2a08:	1b 96       	adiw	r26, 0x0b	; 11
    2a0a:	8c 91       	ld	r24, X
    2a0c:	1b 97       	sbiw	r26, 0x0b	; 11
    2a0e:	81 71       	andi	r24, 0x11	; 17
    2a10:	09 f0       	breq	.+2      	; 0x2a14 <f_open+0x13a>
    2a12:	23 c1       	rjmp	.+582    	; 0x2c5a <f_open+0x380>
    2a14:	e3 ff       	sbrs	r30, 3
    2a16:	9f c0       	rjmp	.+318    	; 0x2b56 <f_open+0x27c>
    2a18:	54 96       	adiw	r26, 0x14	; 20
    2a1a:	8d 91       	ld	r24, X+
    2a1c:	9c 91       	ld	r25, X
    2a1e:	55 97       	sbiw	r26, 0x15	; 21
    2a20:	a0 e0       	ldi	r26, 0x00	; 0
    2a22:	b0 e0       	ldi	r27, 0x00	; 0
    2a24:	7c 01       	movw	r14, r24
    2a26:	dd 24       	eor	r13, r13
    2a28:	cc 24       	eor	r12, r12
    2a2a:	ea a5       	ldd	r30, Y+42	; 0x2a
    2a2c:	fb a5       	ldd	r31, Y+43	; 0x2b
    2a2e:	82 8d       	ldd	r24, Z+26	; 0x1a
    2a30:	93 8d       	ldd	r25, Z+27	; 0x1b
    2a32:	a0 e0       	ldi	r26, 0x00	; 0
    2a34:	b0 e0       	ldi	r27, 0x00	; 0
    2a36:	c8 2a       	or	r12, r24
    2a38:	d9 2a       	or	r13, r25
    2a3a:	ea 2a       	or	r14, r26
    2a3c:	fb 2a       	or	r15, r27
    2a3e:	15 8a       	std	Z+21, r1	; 0x15
    2a40:	14 8a       	std	Z+20, r1	; 0x14
    2a42:	13 8e       	std	Z+27, r1	; 0x1b
    2a44:	12 8e       	std	Z+26, r1	; 0x1a
    2a46:	14 8e       	std	Z+28, r1	; 0x1c
    2a48:	15 8e       	std	Z+29, r1	; 0x1d
    2a4a:	16 8e       	std	Z+30, r1	; 0x1e
    2a4c:	17 8e       	std	Z+31, r1	; 0x1f
    2a4e:	2d 84       	ldd	r2, Y+13	; 0x0d
    2a50:	3e 84       	ldd	r3, Y+14	; 0x0e
    2a52:	81 e0       	ldi	r24, 0x01	; 1
    2a54:	f1 01       	movw	r30, r2
    2a56:	84 83       	std	Z+4, r24	; 0x04
    2a58:	d1 01       	movw	r26, r2
    2a5a:	9e 96       	adiw	r26, 0x2e	; 46
    2a5c:	8d 91       	ld	r24, X+
    2a5e:	9d 91       	ld	r25, X+
    2a60:	0d 90       	ld	r0, X+
    2a62:	bc 91       	ld	r27, X
    2a64:	a0 2d       	mov	r26, r0
    2a66:	8e a3       	std	Y+38, r24	; 0x26
    2a68:	9f a3       	std	Y+39, r25	; 0x27
    2a6a:	a8 a7       	std	Y+40, r26	; 0x28
    2a6c:	b9 a7       	std	Y+41, r27	; 0x29
    2a6e:	c1 14       	cp	r12, r1
    2a70:	d1 04       	cpc	r13, r1
    2a72:	e1 04       	cpc	r14, r1
    2a74:	f1 04       	cpc	r15, r1
    2a76:	09 f4       	brne	.+2      	; 0x2a7a <f_open+0x1a0>
    2a78:	62 c0       	rjmp	.+196    	; 0x2b3e <f_open+0x264>
    2a7a:	b1 e0       	ldi	r27, 0x01	; 1
    2a7c:	cb 16       	cp	r12, r27
    2a7e:	d1 04       	cpc	r13, r1
    2a80:	e1 04       	cpc	r14, r1
    2a82:	f1 04       	cpc	r15, r1
    2a84:	09 f4       	brne	.+2      	; 0x2a88 <f_open+0x1ae>
    2a86:	f6 c0       	rjmp	.+492    	; 0x2c74 <f_open+0x39a>
    2a88:	86 8d       	ldd	r24, Z+30	; 0x1e
    2a8a:	97 8d       	ldd	r25, Z+31	; 0x1f
    2a8c:	a0 a1       	ldd	r26, Z+32	; 0x20
    2a8e:	b1 a1       	ldd	r27, Z+33	; 0x21
    2a90:	c8 16       	cp	r12, r24
    2a92:	d9 06       	cpc	r13, r25
    2a94:	ea 06       	cpc	r14, r26
    2a96:	fb 06       	cpc	r15, r27
    2a98:	08 f0       	brcs	.+2      	; 0x2a9c <f_open+0x1c2>
    2a9a:	ec c0       	rjmp	.+472    	; 0x2c74 <f_open+0x39a>
    2a9c:	46 01       	movw	r8, r12
    2a9e:	57 01       	movw	r10, r14
    2aa0:	42 c0       	rjmp	.+132    	; 0x2b26 <f_open+0x24c>
    2aa2:	c1 01       	movw	r24, r2
    2aa4:	b5 01       	movw	r22, r10
    2aa6:	a4 01       	movw	r20, r8
    2aa8:	0e 94 19 05 	call	0xa32	; 0xa32 <get_fat>
    2aac:	2b 01       	movw	r4, r22
    2aae:	3c 01       	movw	r6, r24
    2ab0:	61 15       	cp	r22, r1
    2ab2:	71 05       	cpc	r23, r1
    2ab4:	81 05       	cpc	r24, r1
    2ab6:	91 05       	cpc	r25, r1
    2ab8:	09 f4       	brne	.+2      	; 0x2abc <f_open+0x1e2>
    2aba:	df c0       	rjmp	.+446    	; 0x2c7a <f_open+0x3a0>
    2abc:	61 30       	cpi	r22, 0x01	; 1
    2abe:	71 05       	cpc	r23, r1
    2ac0:	81 05       	cpc	r24, r1
    2ac2:	91 05       	cpc	r25, r1
    2ac4:	09 f4       	brne	.+2      	; 0x2ac8 <f_open+0x1ee>
    2ac6:	d6 c0       	rjmp	.+428    	; 0x2c74 <f_open+0x39a>
    2ac8:	6f 3f       	cpi	r22, 0xFF	; 255
    2aca:	2f ef       	ldi	r18, 0xFF	; 255
    2acc:	72 07       	cpc	r23, r18
    2ace:	2f ef       	ldi	r18, 0xFF	; 255
    2ad0:	82 07       	cpc	r24, r18
    2ad2:	2f ef       	ldi	r18, 0xFF	; 255
    2ad4:	92 07       	cpc	r25, r18
    2ad6:	09 f4       	brne	.+2      	; 0x2ada <f_open+0x200>
    2ad8:	ca c0       	rjmp	.+404    	; 0x2c6e <f_open+0x394>
    2ada:	c1 01       	movw	r24, r2
    2adc:	b5 01       	movw	r22, r10
    2ade:	a4 01       	movw	r20, r8
    2ae0:	00 e0       	ldi	r16, 0x00	; 0
    2ae2:	10 e0       	ldi	r17, 0x00	; 0
    2ae4:	20 e0       	ldi	r18, 0x00	; 0
    2ae6:	30 e0       	ldi	r19, 0x00	; 0
    2ae8:	0e 94 4f 04 	call	0x89e	; 0x89e <put_fat>
    2aec:	9c 01       	movw	r18, r24
    2aee:	00 97       	sbiw	r24, 0x00	; 0
    2af0:	09 f0       	breq	.+2      	; 0x2af4 <f_open+0x21a>
    2af2:	b8 c0       	rjmp	.+368    	; 0x2c64 <f_open+0x38a>
    2af4:	f1 01       	movw	r30, r2
    2af6:	86 85       	ldd	r24, Z+14	; 0x0e
    2af8:	97 85       	ldd	r25, Z+15	; 0x0f
    2afa:	a0 89       	ldd	r26, Z+16	; 0x10
    2afc:	b1 89       	ldd	r27, Z+17	; 0x11
    2afe:	8f 3f       	cpi	r24, 0xFF	; 255
    2b00:	ff ef       	ldi	r31, 0xFF	; 255
    2b02:	9f 07       	cpc	r25, r31
    2b04:	ff ef       	ldi	r31, 0xFF	; 255
    2b06:	af 07       	cpc	r26, r31
    2b08:	ff ef       	ldi	r31, 0xFF	; 255
    2b0a:	bf 07       	cpc	r27, r31
    2b0c:	51 f0       	breq	.+20     	; 0x2b22 <f_open+0x248>
    2b0e:	01 96       	adiw	r24, 0x01	; 1
    2b10:	a1 1d       	adc	r26, r1
    2b12:	b1 1d       	adc	r27, r1
    2b14:	f1 01       	movw	r30, r2
    2b16:	86 87       	std	Z+14, r24	; 0x0e
    2b18:	97 87       	std	Z+15, r25	; 0x0f
    2b1a:	a0 8b       	std	Z+16, r26	; 0x10
    2b1c:	b1 8b       	std	Z+17, r27	; 0x11
    2b1e:	21 e0       	ldi	r18, 0x01	; 1
    2b20:	25 83       	std	Z+5, r18	; 0x05
    2b22:	53 01       	movw	r10, r6
    2b24:	42 01       	movw	r8, r4
    2b26:	f1 01       	movw	r30, r2
    2b28:	86 8d       	ldd	r24, Z+30	; 0x1e
    2b2a:	97 8d       	ldd	r25, Z+31	; 0x1f
    2b2c:	a0 a1       	ldd	r26, Z+32	; 0x20
    2b2e:	b1 a1       	ldd	r27, Z+33	; 0x21
    2b30:	88 16       	cp	r8, r24
    2b32:	99 06       	cpc	r9, r25
    2b34:	aa 06       	cpc	r10, r26
    2b36:	bb 06       	cpc	r11, r27
    2b38:	08 f4       	brcc	.+2      	; 0x2b3c <f_open+0x262>
    2b3a:	b3 cf       	rjmp	.-154    	; 0x2aa2 <f_open+0x1c8>
    2b3c:	9e c0       	rjmp	.+316    	; 0x2c7a <f_open+0x3a0>
    2b3e:	8d 85       	ldd	r24, Y+13	; 0x0d
    2b40:	9e 85       	ldd	r25, Y+14	; 0x0e
    2b42:	4e a1       	ldd	r20, Y+38	; 0x26
    2b44:	5f a1       	ldd	r21, Y+39	; 0x27
    2b46:	68 a5       	ldd	r22, Y+40	; 0x28
    2b48:	79 a5       	ldd	r23, Y+41	; 0x29
    2b4a:	0e 94 e5 03 	call	0x7ca	; 0x7ca <move_window>
    2b4e:	9c 01       	movw	r18, r24
    2b50:	00 97       	sbiw	r24, 0x00	; 0
    2b52:	09 f0       	breq	.+2      	; 0x2b56 <f_open+0x27c>
    2b54:	87 c0       	rjmp	.+270    	; 0x2c64 <f_open+0x38a>
    2b56:	fd a1       	ldd	r31, Y+37	; 0x25
    2b58:	f3 ff       	sbrs	r31, 3
    2b5a:	28 c0       	rjmp	.+80     	; 0x2bac <f_open+0x2d2>
    2b5c:	aa a5       	ldd	r26, Y+42	; 0x2a
    2b5e:	bb a5       	ldd	r27, Y+43	; 0x2b
    2b60:	1b 96       	adiw	r26, 0x0b	; 11
    2b62:	1c 92       	st	X, r1
    2b64:	0e 94 fe 01 	call	0x3fc	; 0x3fc <get_fattime>
    2b68:	ea a5       	ldd	r30, Y+42	; 0x2a
    2b6a:	fb a5       	ldd	r31, Y+43	; 0x2b
    2b6c:	66 87       	std	Z+14, r22	; 0x0e
    2b6e:	77 87       	std	Z+15, r23	; 0x0f
    2b70:	80 8b       	std	Z+16, r24	; 0x10
    2b72:	91 8b       	std	Z+17, r25	; 0x11
    2b74:	ed 85       	ldd	r30, Y+13	; 0x0d
    2b76:	fe 85       	ldd	r31, Y+14	; 0x0e
    2b78:	81 e0       	ldi	r24, 0x01	; 1
    2b7a:	84 83       	std	Z+4, r24	; 0x04
    2b7c:	fd a1       	ldd	r31, Y+37	; 0x25
    2b7e:	f0 62       	ori	r31, 0x20	; 32
    2b80:	fd a3       	std	Y+37, r31	; 0x25
    2b82:	14 c0       	rjmp	.+40     	; 0x2bac <f_open+0x2d2>
    2b84:	21 15       	cp	r18, r1
    2b86:	31 05       	cpc	r19, r1
    2b88:	09 f0       	breq	.+2      	; 0x2b8c <f_open+0x2b2>
    2b8a:	6c c0       	rjmp	.+216    	; 0x2c64 <f_open+0x38a>
    2b8c:	8f 8d       	ldd	r24, Y+31	; 0x1f
    2b8e:	98 a1       	ldd	r25, Y+32	; 0x20
    2b90:	9b a7       	std	Y+43, r25	; 0x2b
    2b92:	8a a7       	std	Y+42, r24	; 0x2a
    2b94:	00 97       	sbiw	r24, 0x00	; 0
    2b96:	09 f4       	brne	.+2      	; 0x2b9a <f_open+0x2c0>
    2b98:	63 c0       	rjmp	.+198    	; 0x2c60 <f_open+0x386>
    2b9a:	dc 01       	movw	r26, r24
    2b9c:	1b 96       	adiw	r26, 0x0b	; 11
    2b9e:	8c 91       	ld	r24, X
    2ba0:	84 fd       	sbrc	r24, 4
    2ba2:	5e c0       	rjmp	.+188    	; 0x2c60 <f_open+0x386>
    2ba4:	e1 ff       	sbrs	r30, 1
    2ba6:	02 c0       	rjmp	.+4      	; 0x2bac <f_open+0x2d2>
    2ba8:	80 fd       	sbrc	r24, 0
    2baa:	57 c0       	rjmp	.+174    	; 0x2c5a <f_open+0x380>
    2bac:	6d 85       	ldd	r22, Y+13	; 0x0d
    2bae:	7e 85       	ldd	r23, Y+14	; 0x0e
    2bb0:	fb 01       	movw	r30, r22
    2bb2:	26 a5       	ldd	r18, Z+46	; 0x2e
    2bb4:	37 a5       	ldd	r19, Z+47	; 0x2f
    2bb6:	40 a9       	ldd	r20, Z+48	; 0x30
    2bb8:	51 a9       	ldd	r21, Z+49	; 0x31
    2bba:	ac a5       	ldd	r26, Y+44	; 0x2c
    2bbc:	bd a5       	ldd	r27, Y+45	; 0x2d
    2bbe:	5a 96       	adiw	r26, 0x1a	; 26
    2bc0:	2d 93       	st	X+, r18
    2bc2:	3d 93       	st	X+, r19
    2bc4:	4d 93       	st	X+, r20
    2bc6:	5c 93       	st	X, r21
    2bc8:	5d 97       	sbiw	r26, 0x1d	; 29
    2bca:	8f 8d       	ldd	r24, Y+31	; 0x1f
    2bcc:	98 a1       	ldd	r25, Y+32	; 0x20
    2bce:	5f 96       	adiw	r26, 0x1f	; 31
    2bd0:	9c 93       	st	X, r25
    2bd2:	8e 93       	st	-X, r24
    2bd4:	5e 97       	sbiw	r26, 0x1e	; 30
    2bd6:	ed a1       	ldd	r30, Y+37	; 0x25
    2bd8:	14 96       	adiw	r26, 0x04	; 4
    2bda:	ec 93       	st	X, r30
    2bdc:	aa a5       	ldd	r26, Y+42	; 0x2a
    2bde:	bb a5       	ldd	r27, Y+43	; 0x2b
    2be0:	54 96       	adiw	r26, 0x14	; 20
    2be2:	8d 91       	ld	r24, X+
    2be4:	9c 91       	ld	r25, X
    2be6:	55 97       	sbiw	r26, 0x15	; 21
    2be8:	a0 e0       	ldi	r26, 0x00	; 0
    2bea:	b0 e0       	ldi	r27, 0x00	; 0
    2bec:	dc 01       	movw	r26, r24
    2bee:	99 27       	eor	r25, r25
    2bf0:	88 27       	eor	r24, r24
    2bf2:	ea a5       	ldd	r30, Y+42	; 0x2a
    2bf4:	fb a5       	ldd	r31, Y+43	; 0x2b
    2bf6:	22 8d       	ldd	r18, Z+26	; 0x1a
    2bf8:	33 8d       	ldd	r19, Z+27	; 0x1b
    2bfa:	40 e0       	ldi	r20, 0x00	; 0
    2bfc:	50 e0       	ldi	r21, 0x00	; 0
    2bfe:	82 2b       	or	r24, r18
    2c00:	93 2b       	or	r25, r19
    2c02:	a4 2b       	or	r26, r20
    2c04:	b5 2b       	or	r27, r21
    2c06:	ec a5       	ldd	r30, Y+44	; 0x2c
    2c08:	fd a5       	ldd	r31, Y+45	; 0x2d
    2c0a:	86 87       	std	Z+14, r24	; 0x0e
    2c0c:	97 87       	std	Z+15, r25	; 0x0f
    2c0e:	a0 8b       	std	Z+16, r26	; 0x10
    2c10:	b1 8b       	std	Z+17, r27	; 0x11
    2c12:	ea a5       	ldd	r30, Y+42	; 0x2a
    2c14:	fb a5       	ldd	r31, Y+43	; 0x2b
    2c16:	84 8d       	ldd	r24, Z+28	; 0x1c
    2c18:	95 8d       	ldd	r25, Z+29	; 0x1d
    2c1a:	a6 8d       	ldd	r26, Z+30	; 0x1e
    2c1c:	b7 8d       	ldd	r27, Z+31	; 0x1f
    2c1e:	ec a5       	ldd	r30, Y+44	; 0x2c
    2c20:	fd a5       	ldd	r31, Y+45	; 0x2d
    2c22:	82 87       	std	Z+10, r24	; 0x0a
    2c24:	93 87       	std	Z+11, r25	; 0x0b
    2c26:	a4 87       	std	Z+12, r26	; 0x0c
    2c28:	b5 87       	std	Z+13, r27	; 0x0d
    2c2a:	16 82       	std	Z+6, r1	; 0x06
    2c2c:	17 82       	std	Z+7, r1	; 0x07
    2c2e:	10 86       	std	Z+8, r1	; 0x08
    2c30:	11 86       	std	Z+9, r1	; 0x09
    2c32:	8f ef       	ldi	r24, 0xFF	; 255
    2c34:	85 83       	std	Z+5, r24	; 0x05
    2c36:	ec a5       	ldd	r30, Y+44	; 0x2c
    2c38:	fd a5       	ldd	r31, Y+45	; 0x2d
    2c3a:	16 8a       	std	Z+22, r1	; 0x16
    2c3c:	17 8a       	std	Z+23, r1	; 0x17
    2c3e:	10 8e       	std	Z+24, r1	; 0x18
    2c40:	11 8e       	std	Z+25, r1	; 0x19
    2c42:	71 83       	std	Z+1, r23	; 0x01
    2c44:	60 83       	st	Z, r22
    2c46:	db 01       	movw	r26, r22
    2c48:	16 96       	adiw	r26, 0x06	; 6
    2c4a:	8d 91       	ld	r24, X+
    2c4c:	9c 91       	ld	r25, X
    2c4e:	17 97       	sbiw	r26, 0x07	; 7
    2c50:	93 83       	std	Z+3, r25	; 0x03
    2c52:	82 83       	std	Z+2, r24	; 0x02
    2c54:	20 e0       	ldi	r18, 0x00	; 0
    2c56:	30 e0       	ldi	r19, 0x00	; 0
    2c58:	05 c0       	rjmp	.+10     	; 0x2c64 <f_open+0x38a>
    2c5a:	27 e0       	ldi	r18, 0x07	; 7
    2c5c:	30 e0       	ldi	r19, 0x00	; 0
    2c5e:	02 c0       	rjmp	.+4      	; 0x2c64 <f_open+0x38a>
    2c60:	24 e0       	ldi	r18, 0x04	; 4
    2c62:	30 e0       	ldi	r19, 0x00	; 0
    2c64:	c9 01       	movw	r24, r18
    2c66:	ad 96       	adiw	r28, 0x2d	; 45
    2c68:	e2 e1       	ldi	r30, 0x12	; 18
    2c6a:	0c 94 6a 2a 	jmp	0x54d4	; 0x54d4 <__epilogue_restores__>
    2c6e:	21 e0       	ldi	r18, 0x01	; 1
    2c70:	30 e0       	ldi	r19, 0x00	; 0
    2c72:	f8 cf       	rjmp	.-16     	; 0x2c64 <f_open+0x38a>
    2c74:	22 e0       	ldi	r18, 0x02	; 2
    2c76:	30 e0       	ldi	r19, 0x00	; 0
    2c78:	f5 cf       	rjmp	.-22     	; 0x2c64 <f_open+0x38a>
    2c7a:	ed 85       	ldd	r30, Y+13	; 0x0d
    2c7c:	fe 85       	ldd	r31, Y+14	; 0x0e
    2c7e:	08 94       	sec
    2c80:	c1 08       	sbc	r12, r1
    2c82:	d1 08       	sbc	r13, r1
    2c84:	e1 08       	sbc	r14, r1
    2c86:	f1 08       	sbc	r15, r1
    2c88:	c2 86       	std	Z+10, r12	; 0x0a
    2c8a:	d3 86       	std	Z+11, r13	; 0x0b
    2c8c:	e4 86       	std	Z+12, r14	; 0x0c
    2c8e:	f5 86       	std	Z+13, r15	; 0x0d
    2c90:	56 cf       	rjmp	.-340    	; 0x2b3e <f_open+0x264>
    2c92:	4b 8d       	ldd	r20, Y+27	; 0x1b
    2c94:	5c 8d       	ldd	r21, Y+28	; 0x1c
    2c96:	6d 8d       	ldd	r22, Y+29	; 0x1d
    2c98:	7e 8d       	ldd	r23, Y+30	; 0x1e
    2c9a:	8d 85       	ldd	r24, Y+13	; 0x0d
    2c9c:	9e 85       	ldd	r25, Y+14	; 0x0e
    2c9e:	0e 94 e5 03 	call	0x7ca	; 0x7ca <move_window>
    2ca2:	9c 01       	movw	r18, r24
    2ca4:	00 97       	sbiw	r24, 0x00	; 0
    2ca6:	09 f4       	brne	.+2      	; 0x2caa <f_open+0x3d0>
    2ca8:	77 ce       	rjmp	.-786    	; 0x2998 <f_open+0xbe>
    2caa:	dc cf       	rjmp	.-72     	; 0x2c64 <f_open+0x38a>

00002cac <wait_ready>:
    2cac:	82 e3       	ldi	r24, 0x32	; 50
    2cae:	80 93 28 01 	sts	0x0128, r24
    2cb2:	8f ef       	ldi	r24, 0xFF	; 255
    2cb4:	8e bd       	out	0x2e, r24	; 46
    2cb6:	0d b4       	in	r0, 0x2d	; 45
    2cb8:	07 fe       	sbrs	r0, 7
    2cba:	fd cf       	rjmp	.-6      	; 0x2cb6 <wait_ready+0xa>
    2cbc:	8e b5       	in	r24, 0x2e	; 46
    2cbe:	2f ef       	ldi	r18, 0xFF	; 255
    2cc0:	2e bd       	out	0x2e, r18	; 46
    2cc2:	0d b4       	in	r0, 0x2d	; 45
    2cc4:	07 fe       	sbrs	r0, 7
    2cc6:	fd cf       	rjmp	.-6      	; 0x2cc2 <wait_ready+0x16>
    2cc8:	9e b5       	in	r25, 0x2e	; 46
    2cca:	9f 3f       	cpi	r25, 0xFF	; 255
    2ccc:	21 f0       	breq	.+8      	; 0x2cd6 <wait_ready+0x2a>
    2cce:	80 91 28 01 	lds	r24, 0x0128
    2cd2:	88 23       	and	r24, r24
    2cd4:	a9 f7       	brne	.-22     	; 0x2cc0 <wait_ready+0x14>
    2cd6:	89 2f       	mov	r24, r25
    2cd8:	08 95       	ret

00002cda <select>:
    2cda:	28 98       	cbi	0x05, 0	; 5
    2cdc:	0e 94 56 16 	call	0x2cac	; 0x2cac <wait_ready>
    2ce0:	8f 3f       	cpi	r24, 0xFF	; 255
    2ce2:	19 f4       	brne	.+6      	; 0x2cea <select+0x10>
    2ce4:	21 e0       	ldi	r18, 0x01	; 1
    2ce6:	30 e0       	ldi	r19, 0x00	; 0
    2ce8:	09 c0       	rjmp	.+18     	; 0x2cfc <select+0x22>
    2cea:	28 9a       	sbi	0x05, 0	; 5
    2cec:	8f ef       	ldi	r24, 0xFF	; 255
    2cee:	8e bd       	out	0x2e, r24	; 46
    2cf0:	0d b4       	in	r0, 0x2d	; 45
    2cf2:	07 fe       	sbrs	r0, 7
    2cf4:	fd cf       	rjmp	.-6      	; 0x2cf0 <select+0x16>
    2cf6:	8e b5       	in	r24, 0x2e	; 46
    2cf8:	20 e0       	ldi	r18, 0x00	; 0
    2cfa:	30 e0       	ldi	r19, 0x00	; 0
    2cfc:	c9 01       	movw	r24, r18
    2cfe:	08 95       	ret

00002d00 <rcvr_datablock>:
    2d00:	fc 01       	movw	r30, r24
    2d02:	84 e1       	ldi	r24, 0x14	; 20
    2d04:	80 93 27 01 	sts	0x0127, r24
    2d08:	9f ef       	ldi	r25, 0xFF	; 255
    2d0a:	9e bd       	out	0x2e, r25	; 46
    2d0c:	0d b4       	in	r0, 0x2d	; 45
    2d0e:	07 fe       	sbrs	r0, 7
    2d10:	fd cf       	rjmp	.-6      	; 0x2d0c <rcvr_datablock+0xc>
    2d12:	8e b5       	in	r24, 0x2e	; 46
    2d14:	8f 3f       	cpi	r24, 0xFF	; 255
    2d16:	29 f4       	brne	.+10     	; 0x2d22 <rcvr_datablock+0x22>
    2d18:	80 91 27 01 	lds	r24, 0x0127
    2d1c:	88 23       	and	r24, r24
    2d1e:	a9 f7       	brne	.-22     	; 0x2d0a <rcvr_datablock+0xa>
    2d20:	2f c0       	rjmp	.+94     	; 0x2d80 <rcvr_datablock+0x80>
    2d22:	8e 3f       	cpi	r24, 0xFE	; 254
    2d24:	69 f5       	brne	.+90     	; 0x2d80 <rcvr_datablock+0x80>
    2d26:	9f ef       	ldi	r25, 0xFF	; 255
    2d28:	9e bd       	out	0x2e, r25	; 46
    2d2a:	0d b4       	in	r0, 0x2d	; 45
    2d2c:	07 fe       	sbrs	r0, 7
    2d2e:	fd cf       	rjmp	.-6      	; 0x2d2a <rcvr_datablock+0x2a>
    2d30:	8e b5       	in	r24, 0x2e	; 46
    2d32:	80 83       	st	Z, r24
    2d34:	9e bd       	out	0x2e, r25	; 46
    2d36:	0d b4       	in	r0, 0x2d	; 45
    2d38:	07 fe       	sbrs	r0, 7
    2d3a:	fd cf       	rjmp	.-6      	; 0x2d36 <rcvr_datablock+0x36>
    2d3c:	8e b5       	in	r24, 0x2e	; 46
    2d3e:	81 83       	std	Z+1, r24	; 0x01
    2d40:	9e bd       	out	0x2e, r25	; 46
    2d42:	0d b4       	in	r0, 0x2d	; 45
    2d44:	07 fe       	sbrs	r0, 7
    2d46:	fd cf       	rjmp	.-6      	; 0x2d42 <rcvr_datablock+0x42>
    2d48:	8e b5       	in	r24, 0x2e	; 46
    2d4a:	82 83       	std	Z+2, r24	; 0x02
    2d4c:	9e bd       	out	0x2e, r25	; 46
    2d4e:	0d b4       	in	r0, 0x2d	; 45
    2d50:	07 fe       	sbrs	r0, 7
    2d52:	fd cf       	rjmp	.-6      	; 0x2d4e <rcvr_datablock+0x4e>
    2d54:	8e b5       	in	r24, 0x2e	; 46
    2d56:	83 83       	std	Z+3, r24	; 0x03
    2d58:	64 50       	subi	r22, 0x04	; 4
    2d5a:	70 40       	sbci	r23, 0x00	; 0
    2d5c:	11 f0       	breq	.+4      	; 0x2d62 <rcvr_datablock+0x62>
    2d5e:	34 96       	adiw	r30, 0x04	; 4
    2d60:	e3 cf       	rjmp	.-58     	; 0x2d28 <rcvr_datablock+0x28>
    2d62:	8f ef       	ldi	r24, 0xFF	; 255
    2d64:	8e bd       	out	0x2e, r24	; 46
    2d66:	0d b4       	in	r0, 0x2d	; 45
    2d68:	07 fe       	sbrs	r0, 7
    2d6a:	fd cf       	rjmp	.-6      	; 0x2d66 <rcvr_datablock+0x66>
    2d6c:	8e b5       	in	r24, 0x2e	; 46
    2d6e:	8f ef       	ldi	r24, 0xFF	; 255
    2d70:	8e bd       	out	0x2e, r24	; 46
    2d72:	0d b4       	in	r0, 0x2d	; 45
    2d74:	07 fe       	sbrs	r0, 7
    2d76:	fd cf       	rjmp	.-6      	; 0x2d72 <rcvr_datablock+0x72>
    2d78:	8e b5       	in	r24, 0x2e	; 46
    2d7a:	21 e0       	ldi	r18, 0x01	; 1
    2d7c:	30 e0       	ldi	r19, 0x00	; 0
    2d7e:	02 c0       	rjmp	.+4      	; 0x2d84 <rcvr_datablock+0x84>
    2d80:	20 e0       	ldi	r18, 0x00	; 0
    2d82:	30 e0       	ldi	r19, 0x00	; 0
    2d84:	c9 01       	movw	r24, r18
    2d86:	08 95       	ret

00002d88 <xmit_datablock>:
    2d88:	1f 93       	push	r17
    2d8a:	cf 93       	push	r28
    2d8c:	df 93       	push	r29
    2d8e:	ec 01       	movw	r28, r24
    2d90:	16 2f       	mov	r17, r22
    2d92:	0e 94 56 16 	call	0x2cac	; 0x2cac <wait_ready>
    2d96:	8f 3f       	cpi	r24, 0xFF	; 255
    2d98:	19 f0       	breq	.+6      	; 0x2da0 <xmit_datablock+0x18>
    2d9a:	20 e0       	ldi	r18, 0x00	; 0
    2d9c:	30 e0       	ldi	r19, 0x00	; 0
    2d9e:	31 c0       	rjmp	.+98     	; 0x2e02 <xmit_datablock+0x7a>
    2da0:	1e bd       	out	0x2e, r17	; 46
    2da2:	0d b4       	in	r0, 0x2d	; 45
    2da4:	07 fe       	sbrs	r0, 7
    2da6:	fd cf       	rjmp	.-6      	; 0x2da2 <xmit_datablock+0x1a>
    2da8:	1d 3f       	cpi	r17, 0xFD	; 253
    2daa:	19 f4       	brne	.+6      	; 0x2db2 <xmit_datablock+0x2a>
    2dac:	21 e0       	ldi	r18, 0x01	; 1
    2dae:	30 e0       	ldi	r19, 0x00	; 0
    2db0:	28 c0       	rjmp	.+80     	; 0x2e02 <xmit_datablock+0x7a>
    2db2:	90 e0       	ldi	r25, 0x00	; 0
    2db4:	88 81       	ld	r24, Y
    2db6:	8e bd       	out	0x2e, r24	; 46
    2db8:	0d b4       	in	r0, 0x2d	; 45
    2dba:	07 fe       	sbrs	r0, 7
    2dbc:	fd cf       	rjmp	.-6      	; 0x2db8 <xmit_datablock+0x30>
    2dbe:	89 81       	ldd	r24, Y+1	; 0x01
    2dc0:	8e bd       	out	0x2e, r24	; 46
    2dc2:	0d b4       	in	r0, 0x2d	; 45
    2dc4:	07 fe       	sbrs	r0, 7
    2dc6:	fd cf       	rjmp	.-6      	; 0x2dc2 <xmit_datablock+0x3a>
    2dc8:	91 50       	subi	r25, 0x01	; 1
    2dca:	11 f0       	breq	.+4      	; 0x2dd0 <xmit_datablock+0x48>
    2dcc:	22 96       	adiw	r28, 0x02	; 2
    2dce:	f2 cf       	rjmp	.-28     	; 0x2db4 <xmit_datablock+0x2c>
    2dd0:	8f ef       	ldi	r24, 0xFF	; 255
    2dd2:	8e bd       	out	0x2e, r24	; 46
    2dd4:	0d b4       	in	r0, 0x2d	; 45
    2dd6:	07 fe       	sbrs	r0, 7
    2dd8:	fd cf       	rjmp	.-6      	; 0x2dd4 <xmit_datablock+0x4c>
    2dda:	8f ef       	ldi	r24, 0xFF	; 255
    2ddc:	8e bd       	out	0x2e, r24	; 46
    2dde:	0d b4       	in	r0, 0x2d	; 45
    2de0:	07 fe       	sbrs	r0, 7
    2de2:	fd cf       	rjmp	.-6      	; 0x2dde <xmit_datablock+0x56>
    2de4:	8f ef       	ldi	r24, 0xFF	; 255
    2de6:	8e bd       	out	0x2e, r24	; 46
    2de8:	0d b4       	in	r0, 0x2d	; 45
    2dea:	07 fe       	sbrs	r0, 7
    2dec:	fd cf       	rjmp	.-6      	; 0x2de8 <xmit_datablock+0x60>
    2dee:	8e b5       	in	r24, 0x2e	; 46
    2df0:	90 e0       	ldi	r25, 0x00	; 0
    2df2:	8f 71       	andi	r24, 0x1F	; 31
    2df4:	85 30       	cpi	r24, 0x05	; 5
    2df6:	09 f0       	breq	.+2      	; 0x2dfa <xmit_datablock+0x72>
    2df8:	91 e0       	ldi	r25, 0x01	; 1
    2dfa:	81 e0       	ldi	r24, 0x01	; 1
    2dfc:	98 27       	eor	r25, r24
    2dfe:	29 2f       	mov	r18, r25
    2e00:	30 e0       	ldi	r19, 0x00	; 0
    2e02:	c9 01       	movw	r24, r18
    2e04:	df 91       	pop	r29
    2e06:	cf 91       	pop	r28
    2e08:	1f 91       	pop	r17
    2e0a:	08 95       	ret

00002e0c <send_cmd>:
    2e0c:	df 92       	push	r13
    2e0e:	ef 92       	push	r14
    2e10:	ff 92       	push	r15
    2e12:	0f 93       	push	r16
    2e14:	1f 93       	push	r17
    2e16:	d8 2e       	mov	r13, r24
    2e18:	7a 01       	movw	r14, r20
    2e1a:	8b 01       	movw	r16, r22
    2e1c:	87 ff       	sbrs	r24, 7
    2e1e:	0c c0       	rjmp	.+24     	; 0x2e38 <send_cmd+0x2c>
    2e20:	87 e7       	ldi	r24, 0x77	; 119
    2e22:	40 e0       	ldi	r20, 0x00	; 0
    2e24:	50 e0       	ldi	r21, 0x00	; 0
    2e26:	60 e0       	ldi	r22, 0x00	; 0
    2e28:	70 e0       	ldi	r23, 0x00	; 0
    2e2a:	0e 94 06 17 	call	0x2e0c	; 0x2e0c <send_cmd>
    2e2e:	82 30       	cpi	r24, 0x02	; 2
    2e30:	08 f0       	brcs	.+2      	; 0x2e34 <send_cmd+0x28>
    2e32:	51 c0       	rjmp	.+162    	; 0x2ed6 <send_cmd+0xca>
    2e34:	8f e7       	ldi	r24, 0x7F	; 127
    2e36:	d8 22       	and	r13, r24
    2e38:	28 9a       	sbi	0x05, 0	; 5
    2e3a:	8f ef       	ldi	r24, 0xFF	; 255
    2e3c:	8e bd       	out	0x2e, r24	; 46
    2e3e:	0d b4       	in	r0, 0x2d	; 45
    2e40:	07 fe       	sbrs	r0, 7
    2e42:	fd cf       	rjmp	.-6      	; 0x2e3e <send_cmd+0x32>
    2e44:	8e b5       	in	r24, 0x2e	; 46
    2e46:	0e 94 6d 16 	call	0x2cda	; 0x2cda <select>
    2e4a:	89 2b       	or	r24, r25
    2e4c:	11 f4       	brne	.+4      	; 0x2e52 <send_cmd+0x46>
    2e4e:	8f ef       	ldi	r24, 0xFF	; 255
    2e50:	42 c0       	rjmp	.+132    	; 0x2ed6 <send_cmd+0xca>
    2e52:	de bc       	out	0x2e, r13	; 46
    2e54:	0d b4       	in	r0, 0x2d	; 45
    2e56:	07 fe       	sbrs	r0, 7
    2e58:	fd cf       	rjmp	.-6      	; 0x2e54 <send_cmd+0x48>
    2e5a:	81 2f       	mov	r24, r17
    2e5c:	99 27       	eor	r25, r25
    2e5e:	aa 27       	eor	r26, r26
    2e60:	bb 27       	eor	r27, r27
    2e62:	8e bd       	out	0x2e, r24	; 46
    2e64:	0d b4       	in	r0, 0x2d	; 45
    2e66:	07 fe       	sbrs	r0, 7
    2e68:	fd cf       	rjmp	.-6      	; 0x2e64 <send_cmd+0x58>
    2e6a:	c8 01       	movw	r24, r16
    2e6c:	aa 27       	eor	r26, r26
    2e6e:	bb 27       	eor	r27, r27
    2e70:	8e bd       	out	0x2e, r24	; 46
    2e72:	0d b4       	in	r0, 0x2d	; 45
    2e74:	07 fe       	sbrs	r0, 7
    2e76:	fd cf       	rjmp	.-6      	; 0x2e72 <send_cmd+0x66>
    2e78:	bb 27       	eor	r27, r27
    2e7a:	a1 2f       	mov	r26, r17
    2e7c:	90 2f       	mov	r25, r16
    2e7e:	8f 2d       	mov	r24, r15
    2e80:	8e bd       	out	0x2e, r24	; 46
    2e82:	0d b4       	in	r0, 0x2d	; 45
    2e84:	07 fe       	sbrs	r0, 7
    2e86:	fd cf       	rjmp	.-6      	; 0x2e82 <send_cmd+0x76>
    2e88:	ee bc       	out	0x2e, r14	; 46
    2e8a:	0d b4       	in	r0, 0x2d	; 45
    2e8c:	07 fe       	sbrs	r0, 7
    2e8e:	fd cf       	rjmp	.-6      	; 0x2e8a <send_cmd+0x7e>
    2e90:	80 e4       	ldi	r24, 0x40	; 64
    2e92:	d8 16       	cp	r13, r24
    2e94:	11 f4       	brne	.+4      	; 0x2e9a <send_cmd+0x8e>
    2e96:	85 e9       	ldi	r24, 0x95	; 149
    2e98:	06 c0       	rjmp	.+12     	; 0x2ea6 <send_cmd+0x9a>
    2e9a:	88 e4       	ldi	r24, 0x48	; 72
    2e9c:	d8 16       	cp	r13, r24
    2e9e:	11 f4       	brne	.+4      	; 0x2ea4 <send_cmd+0x98>
    2ea0:	87 e8       	ldi	r24, 0x87	; 135
    2ea2:	01 c0       	rjmp	.+2      	; 0x2ea6 <send_cmd+0x9a>
    2ea4:	81 e0       	ldi	r24, 0x01	; 1
    2ea6:	8e bd       	out	0x2e, r24	; 46
    2ea8:	0d b4       	in	r0, 0x2d	; 45
    2eaa:	07 fe       	sbrs	r0, 7
    2eac:	fd cf       	rjmp	.-6      	; 0x2ea8 <send_cmd+0x9c>
    2eae:	8c e4       	ldi	r24, 0x4C	; 76
    2eb0:	d8 16       	cp	r13, r24
    2eb2:	31 f4       	brne	.+12     	; 0x2ec0 <send_cmd+0xb4>
    2eb4:	8f ef       	ldi	r24, 0xFF	; 255
    2eb6:	8e bd       	out	0x2e, r24	; 46
    2eb8:	0d b4       	in	r0, 0x2d	; 45
    2eba:	07 fe       	sbrs	r0, 7
    2ebc:	fd cf       	rjmp	.-6      	; 0x2eb8 <send_cmd+0xac>
    2ebe:	8e b5       	in	r24, 0x2e	; 46
    2ec0:	9a e0       	ldi	r25, 0x0A	; 10
    2ec2:	2f ef       	ldi	r18, 0xFF	; 255
    2ec4:	2e bd       	out	0x2e, r18	; 46
    2ec6:	0d b4       	in	r0, 0x2d	; 45
    2ec8:	07 fe       	sbrs	r0, 7
    2eca:	fd cf       	rjmp	.-6      	; 0x2ec6 <send_cmd+0xba>
    2ecc:	8e b5       	in	r24, 0x2e	; 46
    2ece:	87 ff       	sbrs	r24, 7
    2ed0:	02 c0       	rjmp	.+4      	; 0x2ed6 <send_cmd+0xca>
    2ed2:	91 50       	subi	r25, 0x01	; 1
    2ed4:	b9 f7       	brne	.-18     	; 0x2ec4 <send_cmd+0xb8>
    2ed6:	1f 91       	pop	r17
    2ed8:	0f 91       	pop	r16
    2eda:	ff 90       	pop	r15
    2edc:	ef 90       	pop	r14
    2ede:	df 90       	pop	r13
    2ee0:	08 95       	ret

00002ee2 <disk_initialize>:
    2ee2:	a4 e0       	ldi	r26, 0x04	; 4
    2ee4:	b0 e0       	ldi	r27, 0x00	; 0
    2ee6:	e7 e7       	ldi	r30, 0x77	; 119
    2ee8:	f7 e1       	ldi	r31, 0x17	; 23
    2eea:	0c 94 5a 2a 	jmp	0x54b4	; 0x54b4 <__prologue_saves__+0x18>
    2eee:	88 23       	and	r24, r24
    2ef0:	11 f0       	breq	.+4      	; 0x2ef6 <disk_initialize+0x14>
    2ef2:	81 e0       	ldi	r24, 0x01	; 1
    2ef4:	b5 c0       	rjmp	.+362    	; 0x3060 <disk_initialize+0x17e>
    2ef6:	80 91 0f 01 	lds	r24, 0x010F
    2efa:	81 fd       	sbrc	r24, 1
    2efc:	af c0       	rjmp	.+350    	; 0x305c <disk_initialize+0x17a>
    2efe:	38 9a       	sbi	0x07, 0	; 7
    2f00:	87 e0       	ldi	r24, 0x07	; 7
    2f02:	84 b9       	out	0x04, r24	; 4
    2f04:	80 e5       	ldi	r24, 0x50	; 80
    2f06:	8c bd       	out	0x2c, r24	; 44
    2f08:	8a e0       	ldi	r24, 0x0A	; 10
    2f0a:	9f ef       	ldi	r25, 0xFF	; 255
    2f0c:	9e bd       	out	0x2e, r25	; 46
    2f0e:	0d b4       	in	r0, 0x2d	; 45
    2f10:	07 fe       	sbrs	r0, 7
    2f12:	fd cf       	rjmp	.-6      	; 0x2f0e <disk_initialize+0x2c>
    2f14:	2e b5       	in	r18, 0x2e	; 46
    2f16:	81 50       	subi	r24, 0x01	; 1
    2f18:	c9 f7       	brne	.-14     	; 0x2f0c <disk_initialize+0x2a>
    2f1a:	80 e4       	ldi	r24, 0x40	; 64
    2f1c:	40 e0       	ldi	r20, 0x00	; 0
    2f1e:	50 e0       	ldi	r21, 0x00	; 0
    2f20:	60 e0       	ldi	r22, 0x00	; 0
    2f22:	70 e0       	ldi	r23, 0x00	; 0
    2f24:	0e 94 06 17 	call	0x2e0c	; 0x2e0c <send_cmd>
    2f28:	81 30       	cpi	r24, 0x01	; 1
    2f2a:	09 f0       	breq	.+2      	; 0x2f2e <disk_initialize+0x4c>
    2f2c:	7e c0       	rjmp	.+252    	; 0x302a <disk_initialize+0x148>
    2f2e:	84 e6       	ldi	r24, 0x64	; 100
    2f30:	80 93 27 01 	sts	0x0127, r24
    2f34:	88 e4       	ldi	r24, 0x48	; 72
    2f36:	4a ea       	ldi	r20, 0xAA	; 170
    2f38:	51 e0       	ldi	r21, 0x01	; 1
    2f3a:	60 e0       	ldi	r22, 0x00	; 0
    2f3c:	70 e0       	ldi	r23, 0x00	; 0
    2f3e:	0e 94 06 17 	call	0x2e0c	; 0x2e0c <send_cmd>
    2f42:	81 30       	cpi	r24, 0x01	; 1
    2f44:	09 f0       	breq	.+2      	; 0x2f48 <disk_initialize+0x66>
    2f46:	4a c0       	rjmp	.+148    	; 0x2fdc <disk_initialize+0xfa>
    2f48:	7e 01       	movw	r14, r28
    2f4a:	08 94       	sec
    2f4c:	e1 1c       	adc	r14, r1
    2f4e:	f1 1c       	adc	r15, r1
    2f50:	87 01       	movw	r16, r14
    2f52:	9f ef       	ldi	r25, 0xFF	; 255
    2f54:	9e 01       	movw	r18, r28
    2f56:	2b 5f       	subi	r18, 0xFB	; 251
    2f58:	3f 4f       	sbci	r19, 0xFF	; 255
    2f5a:	9e bd       	out	0x2e, r25	; 46
    2f5c:	0d b4       	in	r0, 0x2d	; 45
    2f5e:	07 fe       	sbrs	r0, 7
    2f60:	fd cf       	rjmp	.-6      	; 0x2f5c <disk_initialize+0x7a>
    2f62:	8e b5       	in	r24, 0x2e	; 46
    2f64:	f8 01       	movw	r30, r16
    2f66:	81 93       	st	Z+, r24
    2f68:	8f 01       	movw	r16, r30
    2f6a:	e2 17       	cp	r30, r18
    2f6c:	f3 07       	cpc	r31, r19
    2f6e:	a9 f7       	brne	.-22     	; 0x2f5a <disk_initialize+0x78>
    2f70:	8b 81       	ldd	r24, Y+3	; 0x03
    2f72:	81 30       	cpi	r24, 0x01	; 1
    2f74:	09 f0       	breq	.+2      	; 0x2f78 <disk_initialize+0x96>
    2f76:	59 c0       	rjmp	.+178    	; 0x302a <disk_initialize+0x148>
    2f78:	8c 81       	ldd	r24, Y+4	; 0x04
    2f7a:	8a 3a       	cpi	r24, 0xAA	; 170
    2f7c:	09 f0       	breq	.+2      	; 0x2f80 <disk_initialize+0x9e>
    2f7e:	55 c0       	rjmp	.+170    	; 0x302a <disk_initialize+0x148>
    2f80:	80 91 27 01 	lds	r24, 0x0127
    2f84:	88 23       	and	r24, r24
    2f86:	49 f0       	breq	.+18     	; 0x2f9a <disk_initialize+0xb8>
    2f88:	89 ee       	ldi	r24, 0xE9	; 233
    2f8a:	40 e0       	ldi	r20, 0x00	; 0
    2f8c:	50 e0       	ldi	r21, 0x00	; 0
    2f8e:	60 e0       	ldi	r22, 0x00	; 0
    2f90:	70 e4       	ldi	r23, 0x40	; 64
    2f92:	0e 94 06 17 	call	0x2e0c	; 0x2e0c <send_cmd>
    2f96:	88 23       	and	r24, r24
    2f98:	99 f7       	brne	.-26     	; 0x2f80 <disk_initialize+0x9e>
    2f9a:	80 91 27 01 	lds	r24, 0x0127
    2f9e:	88 23       	and	r24, r24
    2fa0:	09 f4       	brne	.+2      	; 0x2fa4 <disk_initialize+0xc2>
    2fa2:	43 c0       	rjmp	.+134    	; 0x302a <disk_initialize+0x148>
    2fa4:	8a e7       	ldi	r24, 0x7A	; 122
    2fa6:	40 e0       	ldi	r20, 0x00	; 0
    2fa8:	50 e0       	ldi	r21, 0x00	; 0
    2faa:	60 e0       	ldi	r22, 0x00	; 0
    2fac:	70 e0       	ldi	r23, 0x00	; 0
    2fae:	0e 94 06 17 	call	0x2e0c	; 0x2e0c <send_cmd>
    2fb2:	88 23       	and	r24, r24
    2fb4:	d1 f5       	brne	.+116    	; 0x302a <disk_initialize+0x148>
    2fb6:	9f ef       	ldi	r25, 0xFF	; 255
    2fb8:	9e bd       	out	0x2e, r25	; 46
    2fba:	0d b4       	in	r0, 0x2d	; 45
    2fbc:	07 fe       	sbrs	r0, 7
    2fbe:	fd cf       	rjmp	.-6      	; 0x2fba <disk_initialize+0xd8>
    2fc0:	8e b5       	in	r24, 0x2e	; 46
    2fc2:	f7 01       	movw	r30, r14
    2fc4:	81 93       	st	Z+, r24
    2fc6:	7f 01       	movw	r14, r30
    2fc8:	e0 17       	cp	r30, r16
    2fca:	f1 07       	cpc	r31, r17
    2fcc:	a9 f7       	brne	.-22     	; 0x2fb8 <disk_initialize+0xd6>
    2fce:	89 81       	ldd	r24, Y+1	; 0x01
    2fd0:	86 fd       	sbrc	r24, 6
    2fd2:	02 c0       	rjmp	.+4      	; 0x2fd8 <disk_initialize+0xf6>
    2fd4:	14 e0       	ldi	r17, 0x04	; 4
    2fd6:	2a c0       	rjmp	.+84     	; 0x302c <disk_initialize+0x14a>
    2fd8:	1c e0       	ldi	r17, 0x0C	; 12
    2fda:	28 c0       	rjmp	.+80     	; 0x302c <disk_initialize+0x14a>
    2fdc:	89 ee       	ldi	r24, 0xE9	; 233
    2fde:	40 e0       	ldi	r20, 0x00	; 0
    2fe0:	50 e0       	ldi	r21, 0x00	; 0
    2fe2:	60 e0       	ldi	r22, 0x00	; 0
    2fe4:	70 e0       	ldi	r23, 0x00	; 0
    2fe6:	0e 94 06 17 	call	0x2e0c	; 0x2e0c <send_cmd>
    2fea:	82 30       	cpi	r24, 0x02	; 2
    2fec:	18 f0       	brcs	.+6      	; 0x2ff4 <disk_initialize+0x112>
    2fee:	01 e4       	ldi	r16, 0x41	; 65
    2ff0:	11 e0       	ldi	r17, 0x01	; 1
    2ff2:	02 c0       	rjmp	.+4      	; 0x2ff8 <disk_initialize+0x116>
    2ff4:	09 ee       	ldi	r16, 0xE9	; 233
    2ff6:	12 e0       	ldi	r17, 0x02	; 2
    2ff8:	80 91 27 01 	lds	r24, 0x0127
    2ffc:	88 23       	and	r24, r24
    2ffe:	49 f0       	breq	.+18     	; 0x3012 <disk_initialize+0x130>
    3000:	80 2f       	mov	r24, r16
    3002:	40 e0       	ldi	r20, 0x00	; 0
    3004:	50 e0       	ldi	r21, 0x00	; 0
    3006:	60 e0       	ldi	r22, 0x00	; 0
    3008:	70 e0       	ldi	r23, 0x00	; 0
    300a:	0e 94 06 17 	call	0x2e0c	; 0x2e0c <send_cmd>
    300e:	88 23       	and	r24, r24
    3010:	99 f7       	brne	.-26     	; 0x2ff8 <disk_initialize+0x116>
    3012:	80 91 27 01 	lds	r24, 0x0127
    3016:	88 23       	and	r24, r24
    3018:	41 f0       	breq	.+16     	; 0x302a <disk_initialize+0x148>
    301a:	80 e5       	ldi	r24, 0x50	; 80
    301c:	40 e0       	ldi	r20, 0x00	; 0
    301e:	52 e0       	ldi	r21, 0x02	; 2
    3020:	60 e0       	ldi	r22, 0x00	; 0
    3022:	70 e0       	ldi	r23, 0x00	; 0
    3024:	0e 94 06 17 	call	0x2e0c	; 0x2e0c <send_cmd>
    3028:	81 11       	cpse	r24, r1
    302a:	10 e0       	ldi	r17, 0x00	; 0
    302c:	10 93 29 01 	sts	0x0129, r17
    3030:	28 9a       	sbi	0x05, 0	; 5
    3032:	8f ef       	ldi	r24, 0xFF	; 255
    3034:	8e bd       	out	0x2e, r24	; 46
    3036:	0d b4       	in	r0, 0x2d	; 45
    3038:	07 fe       	sbrs	r0, 7
    303a:	fd cf       	rjmp	.-6      	; 0x3036 <disk_initialize+0x154>
    303c:	8e b5       	in	r24, 0x2e	; 46
    303e:	11 23       	and	r17, r17
    3040:	21 f0       	breq	.+8      	; 0x304a <disk_initialize+0x168>
    3042:	80 91 0f 01 	lds	r24, 0x010F
    3046:	8e 7f       	andi	r24, 0xFE	; 254
    3048:	07 c0       	rjmp	.+14     	; 0x3058 <disk_initialize+0x176>
    304a:	28 98       	cbi	0x05, 0	; 5
    304c:	0e 94 56 16 	call	0x2cac	; 0x2cac <wait_ready>
    3050:	1c bc       	out	0x2c, r1	; 44
    3052:	80 91 0f 01 	lds	r24, 0x010F
    3056:	81 60       	ori	r24, 0x01	; 1
    3058:	80 93 0f 01 	sts	0x010F, r24
    305c:	80 91 0f 01 	lds	r24, 0x010F
    3060:	24 96       	adiw	r28, 0x04	; 4
    3062:	e6 e0       	ldi	r30, 0x06	; 6
    3064:	0c 94 76 2a 	jmp	0x54ec	; 0x54ec <__epilogue_restores__+0x18>

00003068 <disk_status>:
    3068:	88 23       	and	r24, r24
    306a:	11 f0       	breq	.+4      	; 0x3070 <disk_status+0x8>
    306c:	81 e0       	ldi	r24, 0x01	; 1
    306e:	08 95       	ret
    3070:	80 91 0f 01 	lds	r24, 0x010F
    3074:	08 95       	ret

00003076 <disk_read>:
    3076:	0f 93       	push	r16
    3078:	cf 93       	push	r28
    307a:	df 93       	push	r29
    307c:	eb 01       	movw	r28, r22
    307e:	88 23       	and	r24, r24
    3080:	09 f0       	breq	.+2      	; 0x3084 <disk_read+0xe>
    3082:	50 c0       	rjmp	.+160    	; 0x3124 <disk_read+0xae>
    3084:	00 23       	and	r16, r16
    3086:	09 f4       	brne	.+2      	; 0x308a <disk_read+0x14>
    3088:	4d c0       	rjmp	.+154    	; 0x3124 <disk_read+0xae>
    308a:	80 91 0f 01 	lds	r24, 0x010F
    308e:	80 ff       	sbrs	r24, 0
    3090:	03 c0       	rjmp	.+6      	; 0x3098 <disk_read+0x22>
    3092:	23 e0       	ldi	r18, 0x03	; 3
    3094:	30 e0       	ldi	r19, 0x00	; 0
    3096:	48 c0       	rjmp	.+144    	; 0x3128 <disk_read+0xb2>
    3098:	80 91 29 01 	lds	r24, 0x0129
    309c:	83 fd       	sbrc	r24, 3
    309e:	07 c0       	rjmp	.+14     	; 0x30ae <disk_read+0x38>
    30a0:	69 e0       	ldi	r22, 0x09	; 9
    30a2:	22 0f       	add	r18, r18
    30a4:	33 1f       	adc	r19, r19
    30a6:	44 1f       	adc	r20, r20
    30a8:	55 1f       	adc	r21, r21
    30aa:	6a 95       	dec	r22
    30ac:	d1 f7       	brne	.-12     	; 0x30a2 <disk_read+0x2c>
    30ae:	01 30       	cpi	r16, 0x01	; 1
    30b0:	89 f4       	brne	.+34     	; 0x30d4 <disk_read+0x5e>
    30b2:	81 e5       	ldi	r24, 0x51	; 81
    30b4:	ba 01       	movw	r22, r20
    30b6:	a9 01       	movw	r20, r18
    30b8:	0e 94 06 17 	call	0x2e0c	; 0x2e0c <send_cmd>
    30bc:	88 23       	and	r24, r24
    30be:	21 f5       	brne	.+72     	; 0x3108 <disk_read+0x92>
    30c0:	ce 01       	movw	r24, r28
    30c2:	60 e0       	ldi	r22, 0x00	; 0
    30c4:	72 e0       	ldi	r23, 0x02	; 2
    30c6:	0e 94 80 16 	call	0x2d00	; 0x2d00 <rcvr_datablock>
    30ca:	00 e0       	ldi	r16, 0x00	; 0
    30cc:	89 2b       	or	r24, r25
    30ce:	e1 f4       	brne	.+56     	; 0x3108 <disk_read+0x92>
    30d0:	01 e0       	ldi	r16, 0x01	; 1
    30d2:	1a c0       	rjmp	.+52     	; 0x3108 <disk_read+0x92>
    30d4:	82 e5       	ldi	r24, 0x52	; 82
    30d6:	ba 01       	movw	r22, r20
    30d8:	a9 01       	movw	r20, r18
    30da:	0e 94 06 17 	call	0x2e0c	; 0x2e0c <send_cmd>
    30de:	88 23       	and	r24, r24
    30e0:	99 f4       	brne	.+38     	; 0x3108 <disk_read+0x92>
    30e2:	ce 01       	movw	r24, r28
    30e4:	60 e0       	ldi	r22, 0x00	; 0
    30e6:	72 e0       	ldi	r23, 0x02	; 2
    30e8:	0e 94 80 16 	call	0x2d00	; 0x2d00 <rcvr_datablock>
    30ec:	89 2b       	or	r24, r25
    30ee:	29 f0       	breq	.+10     	; 0x30fa <disk_read+0x84>
    30f0:	01 50       	subi	r16, 0x01	; 1
    30f2:	19 f0       	breq	.+6      	; 0x30fa <disk_read+0x84>
    30f4:	c0 50       	subi	r28, 0x00	; 0
    30f6:	de 4f       	sbci	r29, 0xFE	; 254
    30f8:	f4 cf       	rjmp	.-24     	; 0x30e2 <disk_read+0x6c>
    30fa:	8c e4       	ldi	r24, 0x4C	; 76
    30fc:	40 e0       	ldi	r20, 0x00	; 0
    30fe:	50 e0       	ldi	r21, 0x00	; 0
    3100:	60 e0       	ldi	r22, 0x00	; 0
    3102:	70 e0       	ldi	r23, 0x00	; 0
    3104:	0e 94 06 17 	call	0x2e0c	; 0x2e0c <send_cmd>
    3108:	28 9a       	sbi	0x05, 0	; 5
    310a:	8f ef       	ldi	r24, 0xFF	; 255
    310c:	8e bd       	out	0x2e, r24	; 46
    310e:	0d b4       	in	r0, 0x2d	; 45
    3110:	07 fe       	sbrs	r0, 7
    3112:	fd cf       	rjmp	.-6      	; 0x310e <disk_read+0x98>
    3114:	8e b5       	in	r24, 0x2e	; 46
    3116:	20 e0       	ldi	r18, 0x00	; 0
    3118:	30 e0       	ldi	r19, 0x00	; 0
    311a:	00 23       	and	r16, r16
    311c:	29 f0       	breq	.+10     	; 0x3128 <disk_read+0xb2>
    311e:	21 e0       	ldi	r18, 0x01	; 1
    3120:	30 e0       	ldi	r19, 0x00	; 0
    3122:	02 c0       	rjmp	.+4      	; 0x3128 <disk_read+0xb2>
    3124:	24 e0       	ldi	r18, 0x04	; 4
    3126:	30 e0       	ldi	r19, 0x00	; 0
    3128:	c9 01       	movw	r24, r18
    312a:	df 91       	pop	r29
    312c:	cf 91       	pop	r28
    312e:	0f 91       	pop	r16
    3130:	08 95       	ret

00003132 <disk_write>:
    3132:	cf 92       	push	r12
    3134:	df 92       	push	r13
    3136:	ef 92       	push	r14
    3138:	ff 92       	push	r15
    313a:	0f 93       	push	r16
    313c:	cf 93       	push	r28
    313e:	df 93       	push	r29
    3140:	eb 01       	movw	r28, r22
    3142:	69 01       	movw	r12, r18
    3144:	7a 01       	movw	r14, r20
    3146:	88 23       	and	r24, r24
    3148:	09 f0       	breq	.+2      	; 0x314c <disk_write+0x1a>
    314a:	5f c0       	rjmp	.+190    	; 0x320a <disk_write+0xd8>
    314c:	00 23       	and	r16, r16
    314e:	09 f4       	brne	.+2      	; 0x3152 <disk_write+0x20>
    3150:	5c c0       	rjmp	.+184    	; 0x320a <disk_write+0xd8>
    3152:	80 91 0f 01 	lds	r24, 0x010F
    3156:	80 ff       	sbrs	r24, 0
    3158:	03 c0       	rjmp	.+6      	; 0x3160 <disk_write+0x2e>
    315a:	23 e0       	ldi	r18, 0x03	; 3
    315c:	30 e0       	ldi	r19, 0x00	; 0
    315e:	57 c0       	rjmp	.+174    	; 0x320e <disk_write+0xdc>
    3160:	80 91 0f 01 	lds	r24, 0x010F
    3164:	82 ff       	sbrs	r24, 2
    3166:	03 c0       	rjmp	.+6      	; 0x316e <disk_write+0x3c>
    3168:	22 e0       	ldi	r18, 0x02	; 2
    316a:	30 e0       	ldi	r19, 0x00	; 0
    316c:	50 c0       	rjmp	.+160    	; 0x320e <disk_write+0xdc>
    316e:	80 91 29 01 	lds	r24, 0x0129
    3172:	90 e0       	ldi	r25, 0x00	; 0
    3174:	83 fd       	sbrc	r24, 3
    3176:	07 c0       	rjmp	.+14     	; 0x3186 <disk_write+0x54>
    3178:	79 e0       	ldi	r23, 0x09	; 9
    317a:	cc 0c       	add	r12, r12
    317c:	dd 1c       	adc	r13, r13
    317e:	ee 1c       	adc	r14, r14
    3180:	ff 1c       	adc	r15, r15
    3182:	7a 95       	dec	r23
    3184:	d1 f7       	brne	.-12     	; 0x317a <disk_write+0x48>
    3186:	01 30       	cpi	r16, 0x01	; 1
    3188:	69 f4       	brne	.+26     	; 0x31a4 <disk_write+0x72>
    318a:	88 e5       	ldi	r24, 0x58	; 88
    318c:	b7 01       	movw	r22, r14
    318e:	a6 01       	movw	r20, r12
    3190:	0e 94 06 17 	call	0x2e0c	; 0x2e0c <send_cmd>
    3194:	88 23       	and	r24, r24
    3196:	59 f5       	brne	.+86     	; 0x31ee <disk_write+0xbc>
    3198:	ce 01       	movw	r24, r28
    319a:	6e ef       	ldi	r22, 0xFE	; 254
    319c:	0e 94 c4 16 	call	0x2d88	; 0x2d88 <xmit_datablock>
    31a0:	00 e0       	ldi	r16, 0x00	; 0
    31a2:	22 c0       	rjmp	.+68     	; 0x31e8 <disk_write+0xb6>
    31a4:	86 70       	andi	r24, 0x06	; 6
    31a6:	90 70       	andi	r25, 0x00	; 0
    31a8:	89 2b       	or	r24, r25
    31aa:	39 f0       	breq	.+14     	; 0x31ba <disk_write+0x88>
    31ac:	40 2f       	mov	r20, r16
    31ae:	50 e0       	ldi	r21, 0x00	; 0
    31b0:	60 e0       	ldi	r22, 0x00	; 0
    31b2:	70 e0       	ldi	r23, 0x00	; 0
    31b4:	87 ed       	ldi	r24, 0xD7	; 215
    31b6:	0e 94 06 17 	call	0x2e0c	; 0x2e0c <send_cmd>
    31ba:	89 e5       	ldi	r24, 0x59	; 89
    31bc:	b7 01       	movw	r22, r14
    31be:	a6 01       	movw	r20, r12
    31c0:	0e 94 06 17 	call	0x2e0c	; 0x2e0c <send_cmd>
    31c4:	88 23       	and	r24, r24
    31c6:	99 f4       	brne	.+38     	; 0x31ee <disk_write+0xbc>
    31c8:	ce 01       	movw	r24, r28
    31ca:	6c ef       	ldi	r22, 0xFC	; 252
    31cc:	0e 94 c4 16 	call	0x2d88	; 0x2d88 <xmit_datablock>
    31d0:	89 2b       	or	r24, r25
    31d2:	29 f0       	breq	.+10     	; 0x31de <disk_write+0xac>
    31d4:	01 50       	subi	r16, 0x01	; 1
    31d6:	19 f0       	breq	.+6      	; 0x31de <disk_write+0xac>
    31d8:	c0 50       	subi	r28, 0x00	; 0
    31da:	de 4f       	sbci	r29, 0xFE	; 254
    31dc:	f5 cf       	rjmp	.-22     	; 0x31c8 <disk_write+0x96>
    31de:	80 e0       	ldi	r24, 0x00	; 0
    31e0:	90 e0       	ldi	r25, 0x00	; 0
    31e2:	6d ef       	ldi	r22, 0xFD	; 253
    31e4:	0e 94 c4 16 	call	0x2d88	; 0x2d88 <xmit_datablock>
    31e8:	89 2b       	or	r24, r25
    31ea:	09 f4       	brne	.+2      	; 0x31ee <disk_write+0xbc>
    31ec:	01 e0       	ldi	r16, 0x01	; 1
    31ee:	28 9a       	sbi	0x05, 0	; 5
    31f0:	8f ef       	ldi	r24, 0xFF	; 255
    31f2:	8e bd       	out	0x2e, r24	; 46
    31f4:	0d b4       	in	r0, 0x2d	; 45
    31f6:	07 fe       	sbrs	r0, 7
    31f8:	fd cf       	rjmp	.-6      	; 0x31f4 <disk_write+0xc2>
    31fa:	8e b5       	in	r24, 0x2e	; 46
    31fc:	20 e0       	ldi	r18, 0x00	; 0
    31fe:	30 e0       	ldi	r19, 0x00	; 0
    3200:	00 23       	and	r16, r16
    3202:	29 f0       	breq	.+10     	; 0x320e <disk_write+0xdc>
    3204:	21 e0       	ldi	r18, 0x01	; 1
    3206:	30 e0       	ldi	r19, 0x00	; 0
    3208:	02 c0       	rjmp	.+4      	; 0x320e <disk_write+0xdc>
    320a:	24 e0       	ldi	r18, 0x04	; 4
    320c:	30 e0       	ldi	r19, 0x00	; 0
    320e:	c9 01       	movw	r24, r18
    3210:	df 91       	pop	r29
    3212:	cf 91       	pop	r28
    3214:	0f 91       	pop	r16
    3216:	ff 90       	pop	r15
    3218:	ef 90       	pop	r14
    321a:	df 90       	pop	r13
    321c:	cf 90       	pop	r12
    321e:	08 95       	ret

00003220 <disk_ioctl>:
    3220:	a0 e1       	ldi	r26, 0x10	; 16
    3222:	b0 e0       	ldi	r27, 0x00	; 0
    3224:	e6 e1       	ldi	r30, 0x16	; 22
    3226:	f9 e1       	ldi	r31, 0x19	; 25
    3228:	0c 94 5b 2a 	jmp	0x54b6	; 0x54b6 <__prologue_saves__+0x1a>
    322c:	8a 01       	movw	r16, r20
    322e:	88 23       	and	r24, r24
    3230:	09 f0       	breq	.+2      	; 0x3234 <disk_ioctl+0x14>
    3232:	8b c1       	rjmp	.+790    	; 0x354a <disk_ioctl+0x32a>
    3234:	64 30       	cpi	r22, 0x04	; 4
    3236:	01 f5       	brne	.+64     	; 0x3278 <disk_ioctl+0x58>
    3238:	fa 01       	movw	r30, r20
    323a:	80 81       	ld	r24, Z
    323c:	81 30       	cpi	r24, 0x01	; 1
    323e:	81 f0       	breq	.+32     	; 0x3260 <disk_ioctl+0x40>
    3240:	81 30       	cpi	r24, 0x01	; 1
    3242:	20 f0       	brcs	.+8      	; 0x324c <disk_ioctl+0x2c>
    3244:	82 30       	cpi	r24, 0x02	; 2
    3246:	09 f0       	breq	.+2      	; 0x324a <disk_ioctl+0x2a>
    3248:	80 c1       	rjmp	.+768    	; 0x354a <disk_ioctl+0x32a>
    324a:	10 c0       	rjmp	.+32     	; 0x326c <disk_ioctl+0x4c>
    324c:	28 98       	cbi	0x05, 0	; 5
    324e:	0e 94 56 16 	call	0x2cac	; 0x2cac <wait_ready>
    3252:	1c bc       	out	0x2c, r1	; 44
    3254:	80 91 0f 01 	lds	r24, 0x010F
    3258:	81 60       	ori	r24, 0x01	; 1
    325a:	80 93 0f 01 	sts	0x010F, r24
    325e:	09 c0       	rjmp	.+18     	; 0x3272 <disk_ioctl+0x52>
    3260:	38 9a       	sbi	0x07, 0	; 7
    3262:	87 e0       	ldi	r24, 0x07	; 7
    3264:	84 b9       	out	0x04, r24	; 4
    3266:	80 e5       	ldi	r24, 0x50	; 80
    3268:	8c bd       	out	0x2c, r24	; 44
    326a:	03 c0       	rjmp	.+6      	; 0x3272 <disk_ioctl+0x52>
    326c:	81 e0       	ldi	r24, 0x01	; 1
    326e:	fa 01       	movw	r30, r20
    3270:	81 83       	std	Z+1, r24	; 0x01
    3272:	20 e0       	ldi	r18, 0x00	; 0
    3274:	30 e0       	ldi	r19, 0x00	; 0
    3276:	6b c1       	rjmp	.+726    	; 0x354e <disk_ioctl+0x32e>
    3278:	80 91 0f 01 	lds	r24, 0x010F
    327c:	80 ff       	sbrs	r24, 0
    327e:	03 c0       	rjmp	.+6      	; 0x3286 <disk_ioctl+0x66>
    3280:	23 e0       	ldi	r18, 0x03	; 3
    3282:	30 e0       	ldi	r19, 0x00	; 0
    3284:	64 c1       	rjmp	.+712    	; 0x354e <disk_ioctl+0x32e>
    3286:	e6 2f       	mov	r30, r22
    3288:	f0 e0       	ldi	r31, 0x00	; 0
    328a:	ef 30       	cpi	r30, 0x0F	; 15
    328c:	f1 05       	cpc	r31, r1
    328e:	20 f4       	brcc	.+8      	; 0x3298 <disk_ioctl+0x78>
    3290:	e6 5b       	subi	r30, 0xB6	; 182
    3292:	ff 4f       	sbci	r31, 0xFF	; 255
    3294:	0c 94 85 2a 	jmp	0x550a	; 0x550a <__tablejump2__>
    3298:	24 e0       	ldi	r18, 0x04	; 4
    329a:	30 e0       	ldi	r19, 0x00	; 0
    329c:	4e c1       	rjmp	.+668    	; 0x353a <disk_ioctl+0x31a>
    329e:	0e 94 6d 16 	call	0x2cda	; 0x2cda <select>
    32a2:	89 2b       	or	r24, r25
    32a4:	09 f4       	brne	.+2      	; 0x32a8 <disk_ioctl+0x88>
    32a6:	47 c1       	rjmp	.+654    	; 0x3536 <disk_ioctl+0x316>
    32a8:	28 9a       	sbi	0x05, 0	; 5
    32aa:	8f ef       	ldi	r24, 0xFF	; 255
    32ac:	8e bd       	out	0x2e, r24	; 46
    32ae:	0d b4       	in	r0, 0x2d	; 45
    32b0:	07 fe       	sbrs	r0, 7
    32b2:	fd cf       	rjmp	.-6      	; 0x32ae <disk_ioctl+0x8e>
    32b4:	8e b5       	in	r24, 0x2e	; 46
    32b6:	f7 c0       	rjmp	.+494    	; 0x34a6 <disk_ioctl+0x286>
    32b8:	89 e4       	ldi	r24, 0x49	; 73
    32ba:	40 e0       	ldi	r20, 0x00	; 0
    32bc:	50 e0       	ldi	r21, 0x00	; 0
    32be:	60 e0       	ldi	r22, 0x00	; 0
    32c0:	70 e0       	ldi	r23, 0x00	; 0
    32c2:	0e 94 06 17 	call	0x2e0c	; 0x2e0c <send_cmd>
    32c6:	88 23       	and	r24, r24
    32c8:	09 f0       	breq	.+2      	; 0x32cc <disk_ioctl+0xac>
    32ca:	35 c1       	rjmp	.+618    	; 0x3536 <disk_ioctl+0x316>
    32cc:	ce 01       	movw	r24, r28
    32ce:	01 96       	adiw	r24, 0x01	; 1
    32d0:	60 e1       	ldi	r22, 0x10	; 16
    32d2:	70 e0       	ldi	r23, 0x00	; 0
    32d4:	0e 94 80 16 	call	0x2d00	; 0x2d00 <rcvr_datablock>
    32d8:	89 2b       	or	r24, r25
    32da:	09 f4       	brne	.+2      	; 0x32de <disk_ioctl+0xbe>
    32dc:	2c c1       	rjmp	.+600    	; 0x3536 <disk_ioctl+0x316>
    32de:	89 81       	ldd	r24, Y+1	; 0x01
    32e0:	82 95       	swap	r24
    32e2:	86 95       	lsr	r24
    32e4:	86 95       	lsr	r24
    32e6:	83 70       	andi	r24, 0x03	; 3
    32e8:	7a 85       	ldd	r23, Y+10	; 0x0a
    32ea:	49 85       	ldd	r20, Y+9	; 0x09
    32ec:	81 30       	cpi	r24, 0x01	; 1
    32ee:	89 f4       	brne	.+34     	; 0x3312 <disk_ioctl+0xf2>
    32f0:	87 2f       	mov	r24, r23
    32f2:	90 e0       	ldi	r25, 0x00	; 0
    32f4:	01 96       	adiw	r24, 0x01	; 1
    32f6:	34 2f       	mov	r19, r20
    32f8:	20 e0       	ldi	r18, 0x00	; 0
    32fa:	82 0f       	add	r24, r18
    32fc:	93 1f       	adc	r25, r19
    32fe:	a0 e0       	ldi	r26, 0x00	; 0
    3300:	b0 e0       	ldi	r27, 0x00	; 0
    3302:	2a e0       	ldi	r18, 0x0A	; 10
    3304:	88 0f       	add	r24, r24
    3306:	99 1f       	adc	r25, r25
    3308:	aa 1f       	adc	r26, r26
    330a:	bb 1f       	adc	r27, r27
    330c:	2a 95       	dec	r18
    330e:	d1 f7       	brne	.-12     	; 0x3304 <disk_ioctl+0xe4>
    3310:	c5 c0       	rjmp	.+394    	; 0x349c <disk_ioctl+0x27c>
    3312:	42 95       	swap	r20
    3314:	46 95       	lsr	r20
    3316:	46 95       	lsr	r20
    3318:	43 70       	andi	r20, 0x03	; 3
    331a:	28 85       	ldd	r18, Y+8	; 0x08
    331c:	30 e0       	ldi	r19, 0x00	; 0
    331e:	22 0f       	add	r18, r18
    3320:	33 1f       	adc	r19, r19
    3322:	22 0f       	add	r18, r18
    3324:	33 1f       	adc	r19, r19
    3326:	24 0f       	add	r18, r20
    3328:	31 1d       	adc	r19, r1
    332a:	2f 5f       	subi	r18, 0xFF	; 255
    332c:	3f 4f       	sbci	r19, 0xFF	; 255
    332e:	8f 81       	ldd	r24, Y+7	; 0x07
    3330:	90 e0       	ldi	r25, 0x00	; 0
    3332:	83 70       	andi	r24, 0x03	; 3
    3334:	90 70       	andi	r25, 0x00	; 0
    3336:	98 2f       	mov	r25, r24
    3338:	88 27       	eor	r24, r24
    333a:	99 0f       	add	r25, r25
    333c:	99 0f       	add	r25, r25
    333e:	28 0f       	add	r18, r24
    3340:	39 1f       	adc	r19, r25
    3342:	40 e0       	ldi	r20, 0x00	; 0
    3344:	50 e0       	ldi	r21, 0x00	; 0
    3346:	8e 81       	ldd	r24, Y+6	; 0x06
    3348:	8f 70       	andi	r24, 0x0F	; 15
    334a:	6b 85       	ldd	r22, Y+11	; 0x0b
    334c:	66 1f       	adc	r22, r22
    334e:	66 27       	eor	r22, r22
    3350:	66 1f       	adc	r22, r22
    3352:	86 0f       	add	r24, r22
    3354:	8e 5f       	subi	r24, 0xFE	; 254
    3356:	73 70       	andi	r23, 0x03	; 3
    3358:	77 0f       	add	r23, r23
    335a:	87 0f       	add	r24, r23
    335c:	90 e0       	ldi	r25, 0x00	; 0
    335e:	09 97       	sbiw	r24, 0x09	; 9
    3360:	04 c0       	rjmp	.+8      	; 0x336a <disk_ioctl+0x14a>
    3362:	22 0f       	add	r18, r18
    3364:	33 1f       	adc	r19, r19
    3366:	44 1f       	adc	r20, r20
    3368:	55 1f       	adc	r21, r21
    336a:	8a 95       	dec	r24
    336c:	d2 f7       	brpl	.-12     	; 0x3362 <disk_ioctl+0x142>
    336e:	f8 01       	movw	r30, r16
    3370:	20 83       	st	Z, r18
    3372:	31 83       	std	Z+1, r19	; 0x01
    3374:	42 83       	std	Z+2, r20	; 0x02
    3376:	53 83       	std	Z+3, r21	; 0x03
    3378:	96 c0       	rjmp	.+300    	; 0x34a6 <disk_ioctl+0x286>
    337a:	80 e0       	ldi	r24, 0x00	; 0
    337c:	92 e0       	ldi	r25, 0x02	; 2
    337e:	fa 01       	movw	r30, r20
    3380:	91 83       	std	Z+1, r25	; 0x01
    3382:	80 83       	st	Z, r24
    3384:	90 c0       	rjmp	.+288    	; 0x34a6 <disk_ioctl+0x286>
    3386:	80 91 29 01 	lds	r24, 0x0129
    338a:	f8 2e       	mov	r15, r24
    338c:	82 ff       	sbrs	r24, 2
    338e:	31 c0       	rjmp	.+98     	; 0x33f2 <disk_ioctl+0x1d2>
    3390:	8d ec       	ldi	r24, 0xCD	; 205
    3392:	40 e0       	ldi	r20, 0x00	; 0
    3394:	50 e0       	ldi	r21, 0x00	; 0
    3396:	60 e0       	ldi	r22, 0x00	; 0
    3398:	70 e0       	ldi	r23, 0x00	; 0
    339a:	0e 94 06 17 	call	0x2e0c	; 0x2e0c <send_cmd>
    339e:	88 23       	and	r24, r24
    33a0:	09 f0       	breq	.+2      	; 0x33a4 <disk_ioctl+0x184>
    33a2:	c9 c0       	rjmp	.+402    	; 0x3536 <disk_ioctl+0x316>
    33a4:	8f ef       	ldi	r24, 0xFF	; 255
    33a6:	8e bd       	out	0x2e, r24	; 46
    33a8:	0d b4       	in	r0, 0x2d	; 45
    33aa:	07 fe       	sbrs	r0, 7
    33ac:	fd cf       	rjmp	.-6      	; 0x33a8 <disk_ioctl+0x188>
    33ae:	8e b5       	in	r24, 0x2e	; 46
    33b0:	ce 01       	movw	r24, r28
    33b2:	01 96       	adiw	r24, 0x01	; 1
    33b4:	60 e1       	ldi	r22, 0x10	; 16
    33b6:	70 e0       	ldi	r23, 0x00	; 0
    33b8:	0e 94 80 16 	call	0x2d00	; 0x2d00 <rcvr_datablock>
    33bc:	89 2b       	or	r24, r25
    33be:	09 f4       	brne	.+2      	; 0x33c2 <disk_ioctl+0x1a2>
    33c0:	ba c0       	rjmp	.+372    	; 0x3536 <disk_ioctl+0x316>
    33c2:	80 e3       	ldi	r24, 0x30	; 48
    33c4:	9f ef       	ldi	r25, 0xFF	; 255
    33c6:	9e bd       	out	0x2e, r25	; 46
    33c8:	0d b4       	in	r0, 0x2d	; 45
    33ca:	07 fe       	sbrs	r0, 7
    33cc:	fd cf       	rjmp	.-6      	; 0x33c8 <disk_ioctl+0x1a8>
    33ce:	2e b5       	in	r18, 0x2e	; 46
    33d0:	81 50       	subi	r24, 0x01	; 1
    33d2:	c9 f7       	brne	.-14     	; 0x33c6 <disk_ioctl+0x1a6>
    33d4:	2b 85       	ldd	r18, Y+11	; 0x0b
    33d6:	22 95       	swap	r18
    33d8:	2f 70       	andi	r18, 0x0F	; 15
    33da:	80 e1       	ldi	r24, 0x10	; 16
    33dc:	90 e0       	ldi	r25, 0x00	; 0
    33de:	a0 e0       	ldi	r26, 0x00	; 0
    33e0:	b0 e0       	ldi	r27, 0x00	; 0
    33e2:	04 c0       	rjmp	.+8      	; 0x33ec <disk_ioctl+0x1cc>
    33e4:	88 0f       	add	r24, r24
    33e6:	99 1f       	adc	r25, r25
    33e8:	aa 1f       	adc	r26, r26
    33ea:	bb 1f       	adc	r27, r27
    33ec:	2a 95       	dec	r18
    33ee:	d2 f7       	brpl	.-12     	; 0x33e4 <disk_ioctl+0x1c4>
    33f0:	55 c0       	rjmp	.+170    	; 0x349c <disk_ioctl+0x27c>
    33f2:	89 e4       	ldi	r24, 0x49	; 73
    33f4:	40 e0       	ldi	r20, 0x00	; 0
    33f6:	50 e0       	ldi	r21, 0x00	; 0
    33f8:	60 e0       	ldi	r22, 0x00	; 0
    33fa:	70 e0       	ldi	r23, 0x00	; 0
    33fc:	0e 94 06 17 	call	0x2e0c	; 0x2e0c <send_cmd>
    3400:	88 23       	and	r24, r24
    3402:	09 f0       	breq	.+2      	; 0x3406 <disk_ioctl+0x1e6>
    3404:	98 c0       	rjmp	.+304    	; 0x3536 <disk_ioctl+0x316>
    3406:	ce 01       	movw	r24, r28
    3408:	01 96       	adiw	r24, 0x01	; 1
    340a:	60 e1       	ldi	r22, 0x10	; 16
    340c:	70 e0       	ldi	r23, 0x00	; 0
    340e:	0e 94 80 16 	call	0x2d00	; 0x2d00 <rcvr_datablock>
    3412:	89 2b       	or	r24, r25
    3414:	09 f4       	brne	.+2      	; 0x3418 <disk_ioctl+0x1f8>
    3416:	8f c0       	rjmp	.+286    	; 0x3536 <disk_ioctl+0x316>
    3418:	4b 85       	ldd	r20, Y+11	; 0x0b
    341a:	8c 85       	ldd	r24, Y+12	; 0x0c
    341c:	f1 fe       	sbrs	r15, 1
    341e:	1b c0       	rjmp	.+54     	; 0x3456 <disk_ioctl+0x236>
    3420:	88 1f       	adc	r24, r24
    3422:	88 27       	eor	r24, r24
    3424:	88 1f       	adc	r24, r24
    3426:	90 e0       	ldi	r25, 0x00	; 0
    3428:	01 96       	adiw	r24, 0x01	; 1
    342a:	24 2f       	mov	r18, r20
    342c:	30 e0       	ldi	r19, 0x00	; 0
    342e:	2f 73       	andi	r18, 0x3F	; 63
    3430:	30 70       	andi	r19, 0x00	; 0
    3432:	22 0f       	add	r18, r18
    3434:	33 1f       	adc	r19, r19
    3436:	82 0f       	add	r24, r18
    3438:	93 1f       	adc	r25, r19
    343a:	2e 85       	ldd	r18, Y+14	; 0x0e
    343c:	22 95       	swap	r18
    343e:	26 95       	lsr	r18
    3440:	26 95       	lsr	r18
    3442:	23 70       	andi	r18, 0x03	; 3
    3444:	30 e0       	ldi	r19, 0x00	; 0
    3446:	21 50       	subi	r18, 0x01	; 1
    3448:	30 40       	sbci	r19, 0x00	; 0
    344a:	02 c0       	rjmp	.+4      	; 0x3450 <disk_ioctl+0x230>
    344c:	88 0f       	add	r24, r24
    344e:	99 1f       	adc	r25, r25
    3450:	2a 95       	dec	r18
    3452:	e2 f7       	brpl	.-8      	; 0x344c <disk_ioctl+0x22c>
    3454:	21 c0       	rjmp	.+66     	; 0x3498 <disk_ioctl+0x278>
    3456:	28 2f       	mov	r18, r24
    3458:	30 e0       	ldi	r19, 0x00	; 0
    345a:	23 70       	andi	r18, 0x03	; 3
    345c:	30 70       	andi	r19, 0x00	; 0
    345e:	f3 e0       	ldi	r31, 0x03	; 3
    3460:	22 0f       	add	r18, r18
    3462:	33 1f       	adc	r19, r19
    3464:	fa 95       	dec	r31
    3466:	e1 f7       	brne	.-8      	; 0x3460 <disk_ioctl+0x240>
    3468:	82 95       	swap	r24
    346a:	86 95       	lsr	r24
    346c:	87 70       	andi	r24, 0x07	; 7
    346e:	28 0f       	add	r18, r24
    3470:	31 1d       	adc	r19, r1
    3472:	2f 5f       	subi	r18, 0xFF	; 255
    3474:	3f 4f       	sbci	r19, 0xFF	; 255
    3476:	84 2f       	mov	r24, r20
    3478:	90 e0       	ldi	r25, 0x00	; 0
    347a:	8c 77       	andi	r24, 0x7C	; 124
    347c:	90 70       	andi	r25, 0x00	; 0
    347e:	95 95       	asr	r25
    3480:	87 95       	ror	r24
    3482:	95 95       	asr	r25
    3484:	87 95       	ror	r24
    3486:	01 96       	adiw	r24, 0x01	; 1
    3488:	ac 01       	movw	r20, r24
    348a:	24 9f       	mul	r18, r20
    348c:	c0 01       	movw	r24, r0
    348e:	25 9f       	mul	r18, r21
    3490:	90 0d       	add	r25, r0
    3492:	34 9f       	mul	r19, r20
    3494:	90 0d       	add	r25, r0
    3496:	11 24       	eor	r1, r1
    3498:	a0 e0       	ldi	r26, 0x00	; 0
    349a:	b0 e0       	ldi	r27, 0x00	; 0
    349c:	f8 01       	movw	r30, r16
    349e:	80 83       	st	Z, r24
    34a0:	91 83       	std	Z+1, r25	; 0x01
    34a2:	a2 83       	std	Z+2, r26	; 0x02
    34a4:	b3 83       	std	Z+3, r27	; 0x03
    34a6:	20 e0       	ldi	r18, 0x00	; 0
    34a8:	30 e0       	ldi	r19, 0x00	; 0
    34aa:	47 c0       	rjmp	.+142    	; 0x353a <disk_ioctl+0x31a>
    34ac:	80 91 29 01 	lds	r24, 0x0129
    34b0:	fa 01       	movw	r30, r20
    34b2:	80 83       	st	Z, r24
    34b4:	f8 cf       	rjmp	.-16     	; 0x34a6 <disk_ioctl+0x286>
    34b6:	89 e4       	ldi	r24, 0x49	; 73
    34b8:	01 c0       	rjmp	.+2      	; 0x34bc <disk_ioctl+0x29c>
    34ba:	8a e4       	ldi	r24, 0x4A	; 74
    34bc:	40 e0       	ldi	r20, 0x00	; 0
    34be:	50 e0       	ldi	r21, 0x00	; 0
    34c0:	60 e0       	ldi	r22, 0x00	; 0
    34c2:	70 e0       	ldi	r23, 0x00	; 0
    34c4:	0e 94 06 17 	call	0x2e0c	; 0x2e0c <send_cmd>
    34c8:	88 23       	and	r24, r24
    34ca:	a9 f5       	brne	.+106    	; 0x3536 <disk_ioctl+0x316>
    34cc:	c8 01       	movw	r24, r16
    34ce:	60 e1       	ldi	r22, 0x10	; 16
    34d0:	70 e0       	ldi	r23, 0x00	; 0
    34d2:	2b c0       	rjmp	.+86     	; 0x352a <disk_ioctl+0x30a>
    34d4:	8a e7       	ldi	r24, 0x7A	; 122
    34d6:	40 e0       	ldi	r20, 0x00	; 0
    34d8:	50 e0       	ldi	r21, 0x00	; 0
    34da:	60 e0       	ldi	r22, 0x00	; 0
    34dc:	70 e0       	ldi	r23, 0x00	; 0
    34de:	0e 94 06 17 	call	0x2e0c	; 0x2e0c <send_cmd>
    34e2:	88 23       	and	r24, r24
    34e4:	41 f5       	brne	.+80     	; 0x3536 <disk_ioctl+0x316>
    34e6:	f8 01       	movw	r30, r16
    34e8:	9f ef       	ldi	r25, 0xFF	; 255
    34ea:	98 01       	movw	r18, r16
    34ec:	2d 5f       	subi	r18, 0xFD	; 253
    34ee:	3f 4f       	sbci	r19, 0xFF	; 255
    34f0:	9e bd       	out	0x2e, r25	; 46
    34f2:	0d b4       	in	r0, 0x2d	; 45
    34f4:	07 fe       	sbrs	r0, 7
    34f6:	fd cf       	rjmp	.-6      	; 0x34f2 <disk_ioctl+0x2d2>
    34f8:	8e b5       	in	r24, 0x2e	; 46
    34fa:	80 83       	st	Z, r24
    34fc:	e2 17       	cp	r30, r18
    34fe:	f3 07       	cpc	r31, r19
    3500:	91 f2       	breq	.-92     	; 0x34a6 <disk_ioctl+0x286>
    3502:	31 96       	adiw	r30, 0x01	; 1
    3504:	f5 cf       	rjmp	.-22     	; 0x34f0 <disk_ioctl+0x2d0>
    3506:	8d ec       	ldi	r24, 0xCD	; 205
    3508:	40 e0       	ldi	r20, 0x00	; 0
    350a:	50 e0       	ldi	r21, 0x00	; 0
    350c:	60 e0       	ldi	r22, 0x00	; 0
    350e:	70 e0       	ldi	r23, 0x00	; 0
    3510:	0e 94 06 17 	call	0x2e0c	; 0x2e0c <send_cmd>
    3514:	88 23       	and	r24, r24
    3516:	79 f4       	brne	.+30     	; 0x3536 <disk_ioctl+0x316>
    3518:	8f ef       	ldi	r24, 0xFF	; 255
    351a:	8e bd       	out	0x2e, r24	; 46
    351c:	0d b4       	in	r0, 0x2d	; 45
    351e:	07 fe       	sbrs	r0, 7
    3520:	fd cf       	rjmp	.-6      	; 0x351c <disk_ioctl+0x2fc>
    3522:	8e b5       	in	r24, 0x2e	; 46
    3524:	c8 01       	movw	r24, r16
    3526:	60 e4       	ldi	r22, 0x40	; 64
    3528:	70 e0       	ldi	r23, 0x00	; 0
    352a:	0e 94 80 16 	call	0x2d00	; 0x2d00 <rcvr_datablock>
    352e:	20 e0       	ldi	r18, 0x00	; 0
    3530:	30 e0       	ldi	r19, 0x00	; 0
    3532:	89 2b       	or	r24, r25
    3534:	11 f4       	brne	.+4      	; 0x353a <disk_ioctl+0x31a>
    3536:	21 e0       	ldi	r18, 0x01	; 1
    3538:	30 e0       	ldi	r19, 0x00	; 0
    353a:	28 9a       	sbi	0x05, 0	; 5
    353c:	8f ef       	ldi	r24, 0xFF	; 255
    353e:	8e bd       	out	0x2e, r24	; 46
    3540:	0d b4       	in	r0, 0x2d	; 45
    3542:	07 fe       	sbrs	r0, 7
    3544:	fd cf       	rjmp	.-6      	; 0x3540 <disk_ioctl+0x320>
    3546:	8e b5       	in	r24, 0x2e	; 46
    3548:	02 c0       	rjmp	.+4      	; 0x354e <disk_ioctl+0x32e>
    354a:	24 e0       	ldi	r18, 0x04	; 4
    354c:	30 e0       	ldi	r19, 0x00	; 0
    354e:	c9 01       	movw	r24, r18
    3550:	60 96       	adiw	r28, 0x10	; 16
    3552:	e5 e0       	ldi	r30, 0x05	; 5
    3554:	0c 94 77 2a 	jmp	0x54ee	; 0x54ee <__epilogue_restores__+0x1a>

00003558 <disk_timerproc>:
    3558:	80 91 27 01 	lds	r24, 0x0127
    355c:	88 23       	and	r24, r24
    355e:	19 f0       	breq	.+6      	; 0x3566 <disk_timerproc+0xe>
    3560:	81 50       	subi	r24, 0x01	; 1
    3562:	80 93 27 01 	sts	0x0127, r24
    3566:	80 91 28 01 	lds	r24, 0x0128
    356a:	88 23       	and	r24, r24
    356c:	19 f0       	breq	.+6      	; 0x3574 <disk_timerproc+0x1c>
    356e:	81 50       	subi	r24, 0x01	; 1
    3570:	80 93 28 01 	sts	0x0128, r24
    3574:	08 95       	ret

00003576 <rtc_gettime>:
    3576:	fc 01       	movw	r30, r24
    3578:	81 e0       	ldi	r24, 0x01	; 1
    357a:	87 83       	std	Z+7, r24	; 0x07
    357c:	82 e0       	ldi	r24, 0x02	; 2
    357e:	86 83       	std	Z+6, r24	; 0x06
    3580:	83 e0       	ldi	r24, 0x03	; 3
    3582:	85 83       	std	Z+5, r24	; 0x05
    3584:	84 e0       	ldi	r24, 0x04	; 4
    3586:	83 83       	std	Z+3, r24	; 0x03
    3588:	85 e0       	ldi	r24, 0x05	; 5
    358a:	82 83       	std	Z+2, r24	; 0x02
    358c:	86 ed       	ldi	r24, 0xD6	; 214
    358e:	97 e0       	ldi	r25, 0x07	; 7
    3590:	91 83       	std	Z+1, r25	; 0x01
    3592:	80 83       	st	Z, r24
    3594:	81 e0       	ldi	r24, 0x01	; 1
    3596:	90 e0       	ldi	r25, 0x00	; 0
    3598:	08 95       	ret

0000359a <rtc_settime>:
    359a:	81 e0       	ldi	r24, 0x01	; 1
    359c:	90 e0       	ldi	r25, 0x00	; 0
    359e:	08 95       	ret

000035a0 <rtc_init>:
    35a0:	81 e0       	ldi	r24, 0x01	; 1
    35a2:	90 e0       	ldi	r25, 0x00	; 0
    35a4:	08 95       	ret

000035a6 <can_clear_all_mob>:
    35a6:	90 e0       	ldi	r25, 0x00	; 0
    35a8:	89 2f       	mov	r24, r25
    35aa:	82 95       	swap	r24
    35ac:	80 7f       	andi	r24, 0xF0	; 240
    35ae:	80 93 ed 00 	sts	0x00ED, r24
    35b2:	ee ee       	ldi	r30, 0xEE	; 238
    35b4:	f0 e0       	ldi	r31, 0x00	; 0
    35b6:	11 92       	st	Z+, r1
    35b8:	e8 3f       	cpi	r30, 0xF8	; 248
    35ba:	f1 05       	cpc	r31, r1
    35bc:	e1 f7       	brne	.-8      	; 0x35b6 <can_clear_all_mob+0x10>
    35be:	9f 5f       	subi	r25, 0xFF	; 255
    35c0:	9f 30       	cpi	r25, 0x0F	; 15
    35c2:	91 f7       	brne	.-28     	; 0x35a8 <can_clear_all_mob+0x2>
    35c4:	08 95       	ret

000035c6 <can_get_mob_free>:
    35c6:	20 91 ed 00 	lds	r18, 0x00ED
    35ca:	90 e0       	ldi	r25, 0x00	; 0
    35cc:	89 2f       	mov	r24, r25
    35ce:	82 95       	swap	r24
    35d0:	80 7f       	andi	r24, 0xF0	; 240
    35d2:	80 93 ed 00 	sts	0x00ED, r24
    35d6:	80 91 ef 00 	lds	r24, 0x00EF
    35da:	80 7c       	andi	r24, 0xC0	; 192
    35dc:	19 f4       	brne	.+6      	; 0x35e4 <can_get_mob_free+0x1e>
    35de:	20 93 ed 00 	sts	0x00ED, r18
    35e2:	06 c0       	rjmp	.+12     	; 0x35f0 <can_get_mob_free+0x2a>
    35e4:	9f 5f       	subi	r25, 0xFF	; 255
    35e6:	9f 30       	cpi	r25, 0x0F	; 15
    35e8:	89 f7       	brne	.-30     	; 0x35cc <can_get_mob_free+0x6>
    35ea:	20 93 ed 00 	sts	0x00ED, r18
    35ee:	9f ef       	ldi	r25, 0xFF	; 255
    35f0:	89 2f       	mov	r24, r25
    35f2:	08 95       	ret

000035f4 <can_get_mob_status>:
    35f4:	80 91 ef 00 	lds	r24, 0x00EF
    35f8:	80 7c       	andi	r24, 0xC0	; 192
    35fa:	11 f4       	brne	.+4      	; 0x3600 <can_get_mob_status+0xc>
    35fc:	8f ef       	ldi	r24, 0xFF	; 255
    35fe:	08 95       	ret
    3600:	90 91 ee 00 	lds	r25, 0x00EE
    3604:	89 2f       	mov	r24, r25
    3606:	80 7e       	andi	r24, 0xE0	; 224
    3608:	80 32       	cpi	r24, 0x20	; 32
    360a:	31 f0       	breq	.+12     	; 0x3618 <can_get_mob_status+0x24>
    360c:	80 34       	cpi	r24, 0x40	; 64
    360e:	21 f0       	breq	.+8      	; 0x3618 <can_get_mob_status+0x24>
    3610:	80 3a       	cpi	r24, 0xA0	; 160
    3612:	11 f0       	breq	.+4      	; 0x3618 <can_get_mob_status+0x24>
    3614:	89 2f       	mov	r24, r25
    3616:	8f 71       	andi	r24, 0x1F	; 31
    3618:	08 95       	ret

0000361a <can_get_data>:
    361a:	ac 01       	movw	r20, r24
    361c:	20 e0       	ldi	r18, 0x00	; 0
    361e:	06 c0       	rjmp	.+12     	; 0x362c <can_get_data+0x12>
    3620:	80 91 fa 00 	lds	r24, 0x00FA
    3624:	e4 0f       	add	r30, r20
    3626:	f5 1f       	adc	r31, r21
    3628:	80 83       	st	Z, r24
    362a:	2f 5f       	subi	r18, 0xFF	; 255
    362c:	80 91 ef 00 	lds	r24, 0x00EF
    3630:	e2 2f       	mov	r30, r18
    3632:	f0 e0       	ldi	r31, 0x00	; 0
    3634:	90 e0       	ldi	r25, 0x00	; 0
    3636:	8f 70       	andi	r24, 0x0F	; 15
    3638:	90 70       	andi	r25, 0x00	; 0
    363a:	e8 17       	cp	r30, r24
    363c:	f9 07       	cpc	r31, r25
    363e:	84 f3       	brlt	.-32     	; 0x3620 <can_get_data+0x6>
    3640:	08 95       	ret

00003642 <can_auto_baudrate>:
    3642:	9f 92       	push	r9
    3644:	af 92       	push	r10
    3646:	bf 92       	push	r11
    3648:	cf 92       	push	r12
    364a:	df 92       	push	r13
    364c:	ef 92       	push	r14
    364e:	ff 92       	push	r15
    3650:	0f 93       	push	r16
    3652:	1f 93       	push	r17
    3654:	88 23       	and	r24, r24
    3656:	61 f4       	brne	.+24     	; 0x3670 <can_auto_baudrate+0x2e>
    3658:	dd 24       	eor	r13, r13
    365a:	d3 94       	inc	r13
    365c:	b3 e0       	ldi	r27, 0x03	; 3
    365e:	a8 e0       	ldi	r26, 0x08	; 8
    3660:	62 e0       	ldi	r22, 0x02	; 2
    3662:	72 e0       	ldi	r23, 0x02	; 2
    3664:	50 e0       	ldi	r21, 0x00	; 0
    3666:	11 e0       	ldi	r17, 0x01	; 1
    3668:	40 e0       	ldi	r20, 0x00	; 0
    366a:	ff 24       	eor	r15, r15
    366c:	f3 94       	inc	r15
    366e:	54 c0       	rjmp	.+168    	; 0x3718 <can_auto_baudrate+0xd6>
    3670:	80 91 e2 00 	lds	r24, 0x00E2
    3674:	8e 77       	andi	r24, 0x7E	; 126
    3676:	19 f4       	brne	.+6      	; 0x367e <can_auto_baudrate+0x3c>
    3678:	dd 24       	eor	r13, r13
    367a:	d3 94       	inc	r13
    367c:	09 c0       	rjmp	.+18     	; 0x3690 <can_auto_baudrate+0x4e>
    367e:	80 91 e2 00 	lds	r24, 0x00E2
    3682:	90 e0       	ldi	r25, 0x00	; 0
    3684:	8e 77       	andi	r24, 0x7E	; 126
    3686:	90 70       	andi	r25, 0x00	; 0
    3688:	95 95       	asr	r25
    368a:	87 95       	ror	r24
    368c:	d8 2e       	mov	r13, r24
    368e:	d3 94       	inc	r13
    3690:	80 91 e3 00 	lds	r24, 0x00E3
    3694:	8e 70       	andi	r24, 0x0E	; 14
    3696:	11 f4       	brne	.+4      	; 0x369c <can_auto_baudrate+0x5a>
    3698:	b1 e0       	ldi	r27, 0x01	; 1
    369a:	09 c0       	rjmp	.+18     	; 0x36ae <can_auto_baudrate+0x6c>
    369c:	80 91 e3 00 	lds	r24, 0x00E3
    36a0:	90 e0       	ldi	r25, 0x00	; 0
    36a2:	8e 70       	andi	r24, 0x0E	; 14
    36a4:	90 70       	andi	r25, 0x00	; 0
    36a6:	95 95       	asr	r25
    36a8:	87 95       	ror	r24
    36aa:	b8 2f       	mov	r27, r24
    36ac:	bf 5f       	subi	r27, 0xFF	; 255
    36ae:	80 91 e4 00 	lds	r24, 0x00E4
    36b2:	8e 70       	andi	r24, 0x0E	; 14
    36b4:	83 30       	cpi	r24, 0x03	; 3
    36b6:	10 f4       	brcc	.+4      	; 0x36bc <can_auto_baudrate+0x7a>
    36b8:	62 e0       	ldi	r22, 0x02	; 2
    36ba:	09 c0       	rjmp	.+18     	; 0x36ce <can_auto_baudrate+0x8c>
    36bc:	80 91 e4 00 	lds	r24, 0x00E4
    36c0:	90 e0       	ldi	r25, 0x00	; 0
    36c2:	8e 70       	andi	r24, 0x0E	; 14
    36c4:	90 70       	andi	r25, 0x00	; 0
    36c6:	95 95       	asr	r25
    36c8:	87 95       	ror	r24
    36ca:	68 2f       	mov	r22, r24
    36cc:	6f 5f       	subi	r22, 0xFF	; 255
    36ce:	80 91 e4 00 	lds	r24, 0x00E4
    36d2:	80 77       	andi	r24, 0x70	; 112
    36d4:	81 31       	cpi	r24, 0x11	; 17
    36d6:	10 f4       	brcc	.+4      	; 0x36dc <can_auto_baudrate+0x9a>
    36d8:	72 e0       	ldi	r23, 0x02	; 2
    36da:	0c c0       	rjmp	.+24     	; 0x36f4 <can_auto_baudrate+0xb2>
    36dc:	80 91 e4 00 	lds	r24, 0x00E4
    36e0:	90 e0       	ldi	r25, 0x00	; 0
    36e2:	80 77       	andi	r24, 0x70	; 112
    36e4:	90 70       	andi	r25, 0x00	; 0
    36e6:	24 e0       	ldi	r18, 0x04	; 4
    36e8:	95 95       	asr	r25
    36ea:	87 95       	ror	r24
    36ec:	2a 95       	dec	r18
    36ee:	e1 f7       	brne	.-8      	; 0x36e8 <can_auto_baudrate+0xa6>
    36f0:	78 2f       	mov	r23, r24
    36f2:	7f 5f       	subi	r23, 0xFF	; 255
    36f4:	8b 2f       	mov	r24, r27
    36f6:	90 e0       	ldi	r25, 0x00	; 0
    36f8:	86 0f       	add	r24, r22
    36fa:	91 1d       	adc	r25, r1
    36fc:	87 0f       	add	r24, r23
    36fe:	91 1d       	adc	r25, r1
    3700:	08 97       	sbiw	r24, 0x08	; 8
    3702:	14 f4       	brge	.+4      	; 0x3708 <can_auto_baudrate+0xc6>
    3704:	a8 e0       	ldi	r26, 0x08	; 8
    3706:	04 c0       	rjmp	.+8      	; 0x3710 <can_auto_baudrate+0xce>
    3708:	ab 2f       	mov	r26, r27
    370a:	af 5f       	subi	r26, 0xFF	; 255
    370c:	a6 0f       	add	r26, r22
    370e:	a7 0f       	add	r26, r23
    3710:	51 e0       	ldi	r21, 0x01	; 1
    3712:	10 e0       	ldi	r17, 0x00	; 0
    3714:	41 e0       	ldi	r20, 0x01	; 1
    3716:	ff 24       	eor	r15, r15
    3718:	90 e0       	ldi	r25, 0x00	; 0
    371a:	89 2f       	mov	r24, r25
    371c:	82 95       	swap	r24
    371e:	80 7f       	andi	r24, 0xF0	; 240
    3720:	80 93 ed 00 	sts	0x00ED, r24
    3724:	ee ee       	ldi	r30, 0xEE	; 238
    3726:	f0 e0       	ldi	r31, 0x00	; 0
    3728:	11 92       	st	Z+, r1
    372a:	e8 3f       	cpi	r30, 0xF8	; 248
    372c:	f1 05       	cpc	r31, r1
    372e:	e1 f7       	brne	.-8      	; 0x3728 <can_auto_baudrate+0xe6>
    3730:	9f 5f       	subi	r25, 0xFF	; 255
    3732:	9f 30       	cpi	r25, 0x0F	; 15
    3734:	91 f7       	brne	.-28     	; 0x371a <can_auto_baudrate+0xd8>
    3736:	ee 24       	eor	r14, r14
    3738:	e0 e0       	ldi	r30, 0x00	; 0
    373a:	f0 e0       	ldi	r31, 0x00	; 0
    373c:	cc 24       	eor	r12, r12
    373e:	90 e8       	ldi	r25, 0x80	; 128
    3740:	a9 2e       	mov	r10, r25
    3742:	8a e0       	ldi	r24, 0x0A	; 10
    3744:	98 2e       	mov	r9, r24
    3746:	bb 24       	eor	r11, r11
    3748:	ba 94       	dec	r11
    374a:	81 e0       	ldi	r24, 0x01	; 1
    374c:	f8 16       	cp	r15, r24
    374e:	09 f0       	breq	.+2      	; 0x3752 <can_auto_baudrate+0x110>
    3750:	43 c0       	rjmp	.+134    	; 0x37d8 <can_auto_baudrate+0x196>
    3752:	f0 92 d8 00 	sts	0x00D8, r15
    3756:	31 96       	adiw	r30, 0x01	; 1
    3758:	8d 2d       	mov	r24, r13
    375a:	81 50       	subi	r24, 0x01	; 1
    375c:	88 0f       	add	r24, r24
    375e:	80 93 e2 00 	sts	0x00E2, r24
    3762:	27 2f       	mov	r18, r23
    3764:	26 95       	lsr	r18
    3766:	30 e0       	ldi	r19, 0x00	; 0
    3768:	21 50       	subi	r18, 0x01	; 1
    376a:	30 40       	sbci	r19, 0x00	; 0
    376c:	05 e0       	ldi	r16, 0x05	; 5
    376e:	22 0f       	add	r18, r18
    3770:	33 1f       	adc	r19, r19
    3772:	0a 95       	dec	r16
    3774:	e1 f7       	brne	.-8      	; 0x376e <can_auto_baudrate+0x12c>
    3776:	8b 2f       	mov	r24, r27
    3778:	90 e0       	ldi	r25, 0x00	; 0
    377a:	01 97       	sbiw	r24, 0x01	; 1
    377c:	88 0f       	add	r24, r24
    377e:	99 1f       	adc	r25, r25
    3780:	28 2b       	or	r18, r24
    3782:	20 93 e3 00 	sts	0x00E3, r18
    3786:	27 2f       	mov	r18, r23
    3788:	30 e0       	ldi	r19, 0x00	; 0
    378a:	21 50       	subi	r18, 0x01	; 1
    378c:	30 40       	sbci	r19, 0x00	; 0
    378e:	04 e0       	ldi	r16, 0x04	; 4
    3790:	22 0f       	add	r18, r18
    3792:	33 1f       	adc	r19, r19
    3794:	0a 95       	dec	r16
    3796:	e1 f7       	brne	.-8      	; 0x3790 <can_auto_baudrate+0x14e>
    3798:	86 2f       	mov	r24, r22
    379a:	90 e0       	ldi	r25, 0x00	; 0
    379c:	01 97       	sbiw	r24, 0x01	; 1
    379e:	88 0f       	add	r24, r24
    37a0:	99 1f       	adc	r25, r25
    37a2:	28 2b       	or	r18, r24
    37a4:	21 60       	ori	r18, 0x01	; 1
    37a6:	20 93 e4 00 	sts	0x00E4, r18
    37aa:	cf 01       	movw	r24, r30
    37ac:	23 e0       	ldi	r18, 0x03	; 3
    37ae:	96 95       	lsr	r25
    37b0:	87 95       	ror	r24
    37b2:	2a 95       	dec	r18
    37b4:	e1 f7       	brne	.-8      	; 0x37ae <can_auto_baudrate+0x16c>
    37b6:	80 93 e5 00 	sts	0x00E5, r24
    37ba:	10 92 ed 00 	sts	0x00ED, r1
    37be:	10 92 ee 00 	sts	0x00EE, r1
    37c2:	a0 92 ef 00 	sts	0x00EF, r10
    37c6:	90 92 d8 00 	sts	0x00D8, r9
    37ca:	80 91 d9 00 	lds	r24, 0x00D9
    37ce:	82 ff       	sbrs	r24, 2
    37d0:	fc cf       	rjmp	.-8      	; 0x37ca <can_auto_baudrate+0x188>
    37d2:	b0 92 da 00 	sts	0x00DA, r11
    37d6:	ee 24       	eor	r14, r14
    37d8:	01 e0       	ldi	r16, 0x01	; 1
    37da:	3a c0       	rjmp	.+116    	; 0x3850 <can_auto_baudrate+0x20e>
    37dc:	80 91 ee 00 	lds	r24, 0x00EE
    37e0:	90 e0       	ldi	r25, 0x00	; 0
    37e2:	85 ff       	sbrs	r24, 5
    37e4:	10 c0       	rjmp	.+32     	; 0x3806 <can_auto_baudrate+0x1c4>
    37e6:	80 91 ef 00 	lds	r24, 0x00EF
    37ea:	8f 73       	andi	r24, 0x3F	; 63
    37ec:	80 93 ef 00 	sts	0x00EF, r24
    37f0:	10 92 d8 00 	sts	0x00D8, r1
    37f4:	80 91 d9 00 	lds	r24, 0x00D9
    37f8:	82 fd       	sbrc	r24, 2
    37fa:	fc cf       	rjmp	.-8      	; 0x37f4 <can_auto_baudrate+0x1b2>
    37fc:	00 e0       	ldi	r16, 0x00	; 0
    37fe:	10 e0       	ldi	r17, 0x00	; 0
    3800:	cc 24       	eor	r12, r12
    3802:	c3 94       	inc	r12
    3804:	81 c0       	rjmp	.+258    	; 0x3908 <can_auto_baudrate+0x2c6>
    3806:	8f 71       	andi	r24, 0x1F	; 31
    3808:	90 70       	andi	r25, 0x00	; 0
    380a:	89 2b       	or	r24, r25
    380c:	11 f0       	breq	.+4      	; 0x3812 <can_auto_baudrate+0x1d0>
    380e:	10 e0       	ldi	r17, 0x00	; 0
    3810:	41 e0       	ldi	r20, 0x01	; 1
    3812:	80 91 da 00 	lds	r24, 0x00DA
    3816:	28 2f       	mov	r18, r24
    3818:	30 e0       	ldi	r19, 0x00	; 0
    381a:	85 ff       	sbrs	r24, 5
    381c:	11 c0       	rjmp	.+34     	; 0x3840 <can_auto_baudrate+0x1fe>
    381e:	ee 20       	and	r14, r14
    3820:	41 f4       	brne	.+16     	; 0x3832 <can_auto_baudrate+0x1f0>
    3822:	80 91 da 00 	lds	r24, 0x00DA
    3826:	80 62       	ori	r24, 0x20	; 32
    3828:	80 93 da 00 	sts	0x00DA, r24
    382c:	ee 24       	eor	r14, r14
    382e:	e3 94       	inc	r14
    3830:	07 c0       	rjmp	.+14     	; 0x3840 <can_auto_baudrate+0x1fe>
    3832:	80 91 da 00 	lds	r24, 0x00DA
    3836:	80 62       	ori	r24, 0x20	; 32
    3838:	80 93 da 00 	sts	0x00DA, r24
    383c:	10 e0       	ldi	r17, 0x00	; 0
    383e:	41 e0       	ldi	r20, 0x01	; 1
    3840:	2f 70       	andi	r18, 0x0F	; 15
    3842:	30 70       	andi	r19, 0x00	; 0
    3844:	23 2b       	or	r18, r19
    3846:	21 f0       	breq	.+8      	; 0x3850 <can_auto_baudrate+0x20e>
    3848:	10 e0       	ldi	r17, 0x00	; 0
    384a:	ff 24       	eor	r15, r15
    384c:	f3 94       	inc	r15
    384e:	03 c0       	rjmp	.+6      	; 0x3856 <can_auto_baudrate+0x214>
    3850:	11 30       	cpi	r17, 0x01	; 1
    3852:	21 f2       	breq	.-120    	; 0x37dc <can_auto_baudrate+0x19a>
    3854:	56 c0       	rjmp	.+172    	; 0x3902 <can_auto_baudrate+0x2c0>
    3856:	51 11       	cpse	r21, r1
    3858:	6f 5f       	subi	r22, 0xFF	; 255
    385a:	69 30       	cpi	r22, 0x09	; 9
    385c:	f8 f0       	brcs	.+62     	; 0x389c <can_auto_baudrate+0x25a>
    385e:	78 30       	cpi	r23, 0x08	; 8
    3860:	e8 f0       	brcs	.+58     	; 0x389c <can_auto_baudrate+0x25a>
    3862:	a9 31       	cpi	r26, 0x19	; 25
    3864:	11 f0       	breq	.+4      	; 0x386a <can_auto_baudrate+0x228>
    3866:	af 5f       	subi	r26, 0xFF	; 255
    3868:	05 c0       	rjmp	.+10     	; 0x3874 <can_auto_baudrate+0x232>
    386a:	80 e4       	ldi	r24, 0x40	; 64
    386c:	d8 16       	cp	r13, r24
    386e:	21 f0       	breq	.+8      	; 0x3878 <can_auto_baudrate+0x236>
    3870:	d3 94       	inc	r13
    3872:	a8 e0       	ldi	r26, 0x08	; 8
    3874:	62 e0       	ldi	r22, 0x02	; 2
    3876:	14 c0       	rjmp	.+40     	; 0x38a0 <can_auto_baudrate+0x25e>
    3878:	80 91 ef 00 	lds	r24, 0x00EF
    387c:	8f 73       	andi	r24, 0x3F	; 63
    387e:	80 93 ef 00 	sts	0x00EF, r24
    3882:	10 92 d8 00 	sts	0x00D8, r1
    3886:	80 91 d9 00 	lds	r24, 0x00D9
    388a:	82 fd       	sbrc	r24, 2
    388c:	fc cf       	rjmp	.-8      	; 0x3886 <can_auto_baudrate+0x244>
    388e:	a8 e0       	ldi	r26, 0x08	; 8
    3890:	62 e0       	ldi	r22, 0x02	; 2
    3892:	72 e0       	ldi	r23, 0x02	; 2
    3894:	50 e0       	ldi	r21, 0x00	; 0
    3896:	00 e0       	ldi	r16, 0x00	; 0
    3898:	cc 24       	eor	r12, r12
    389a:	36 c0       	rjmp	.+108    	; 0x3908 <can_auto_baudrate+0x2c6>
    389c:	66 30       	cpi	r22, 0x06	; 6
    389e:	10 f4       	brcc	.+4      	; 0x38a4 <can_auto_baudrate+0x262>
    38a0:	76 2f       	mov	r23, r22
    38a2:	0a c0       	rjmp	.+20     	; 0x38b8 <can_auto_baudrate+0x276>
    38a4:	26 2f       	mov	r18, r22
    38a6:	30 e0       	ldi	r19, 0x00	; 0
    38a8:	87 2f       	mov	r24, r23
    38aa:	90 e0       	ldi	r25, 0x00	; 0
    38ac:	01 96       	adiw	r24, 0x01	; 1
    38ae:	82 17       	cp	r24, r18
    38b0:	93 07       	cpc	r25, r19
    38b2:	14 f4       	brge	.+4      	; 0x38b8 <can_auto_baudrate+0x276>
    38b4:	7f 5f       	subi	r23, 0xFF	; 255
    38b6:	67 2f       	mov	r22, r23
    38b8:	b7 2f       	mov	r27, r23
    38ba:	b6 0f       	add	r27, r22
    38bc:	b0 95       	com	r27
    38be:	ba 0f       	add	r27, r26
    38c0:	8b 2f       	mov	r24, r27
    38c2:	81 50       	subi	r24, 0x01	; 1
    38c4:	88 30       	cpi	r24, 0x08	; 8
    38c6:	40 f6       	brcc	.-112    	; 0x3858 <can_auto_baudrate+0x216>
    38c8:	47 2f       	mov	r20, r23
    38ca:	50 e0       	ldi	r21, 0x00	; 0
    38cc:	26 2f       	mov	r18, r22
    38ce:	30 e0       	ldi	r19, 0x00	; 0
    38d0:	2f 5f       	subi	r18, 0xFF	; 255
    38d2:	3f 4f       	sbci	r19, 0xFF	; 255
    38d4:	2b 0f       	add	r18, r27
    38d6:	31 1d       	adc	r19, r1
    38d8:	ca 01       	movw	r24, r20
    38da:	88 0f       	add	r24, r24
    38dc:	99 1f       	adc	r25, r25
    38de:	88 0f       	add	r24, r24
    38e0:	99 1f       	adc	r25, r25
    38e2:	82 17       	cp	r24, r18
    38e4:	93 07       	cpc	r25, r19
    38e6:	0c f4       	brge	.+2      	; 0x38ea <can_auto_baudrate+0x2a8>
    38e8:	b7 cf       	rjmp	.-146    	; 0x3858 <can_auto_baudrate+0x216>
    38ea:	ca 01       	movw	r24, r20
    38ec:	88 0f       	add	r24, r24
    38ee:	99 1f       	adc	r25, r25
    38f0:	84 0f       	add	r24, r20
    38f2:	95 1f       	adc	r25, r21
    38f4:	28 17       	cp	r18, r24
    38f6:	39 07       	cpc	r19, r25
    38f8:	0c f4       	brge	.+2      	; 0x38fc <can_auto_baudrate+0x2ba>
    38fa:	ae cf       	rjmp	.-164    	; 0x3858 <can_auto_baudrate+0x216>
    38fc:	51 e0       	ldi	r21, 0x01	; 1
    38fe:	11 e0       	ldi	r17, 0x01	; 1
    3900:	03 c0       	rjmp	.+6      	; 0x3908 <can_auto_baudrate+0x2c6>
    3902:	41 30       	cpi	r20, 0x01	; 1
    3904:	09 f4       	brne	.+2      	; 0x3908 <can_auto_baudrate+0x2c6>
    3906:	a7 cf       	rjmp	.-178    	; 0x3856 <can_auto_baudrate+0x214>
    3908:	40 e0       	ldi	r20, 0x00	; 0
    390a:	01 30       	cpi	r16, 0x01	; 1
    390c:	09 f4       	brne	.+2      	; 0x3910 <can_auto_baudrate+0x2ce>
    390e:	1d cf       	rjmp	.-454    	; 0x374a <can_auto_baudrate+0x108>
    3910:	8c 2d       	mov	r24, r12
    3912:	1f 91       	pop	r17
    3914:	0f 91       	pop	r16
    3916:	ff 90       	pop	r15
    3918:	ef 90       	pop	r14
    391a:	df 90       	pop	r13
    391c:	cf 90       	pop	r12
    391e:	bf 90       	pop	r11
    3920:	af 90       	pop	r10
    3922:	9f 90       	pop	r9
    3924:	08 95       	ret

00003926 <can_fixed_baudrate>:
    3926:	81 e0       	ldi	r24, 0x01	; 1
    3928:	80 93 d8 00 	sts	0x00D8, r24
    392c:	86 e0       	ldi	r24, 0x06	; 6
    392e:	80 93 e2 00 	sts	0x00E2, r24
    3932:	80 93 e3 00 	sts	0x00E3, r24
    3936:	84 e2       	ldi	r24, 0x24	; 36
    3938:	80 93 e4 00 	sts	0x00E4, r24
    393c:	81 e0       	ldi	r24, 0x01	; 1
    393e:	08 95       	ret

00003940 <can_get_status>:
    3940:	1f 93       	push	r17
    3942:	cf 93       	push	r28
    3944:	df 93       	push	r29
    3946:	ec 01       	movw	r28, r24
    3948:	8a 85       	ldd	r24, Y+10	; 0x0a
    394a:	88 23       	and	r24, r24
    394c:	09 f4       	brne	.+2      	; 0x3950 <can_get_status+0x10>
    394e:	86 c0       	rjmp	.+268    	; 0x3a5c <can_get_status+0x11c>
    3950:	8f 31       	cpi	r24, 0x1F	; 31
    3952:	09 f4       	brne	.+2      	; 0x3956 <can_get_status+0x16>
    3954:	83 c0       	rjmp	.+262    	; 0x3a5c <can_get_status+0x11c>
    3956:	8f 3f       	cpi	r24, 0xFF	; 255
    3958:	09 f4       	brne	.+2      	; 0x395c <can_get_status+0x1c>
    395a:	80 c0       	rjmp	.+256    	; 0x3a5c <can_get_status+0x11c>
    395c:	88 81       	ld	r24, Y
    395e:	82 95       	swap	r24
    3960:	80 7f       	andi	r24, 0xF0	; 240
    3962:	80 93 ed 00 	sts	0x00ED, r24
    3966:	0e 94 fa 1a 	call	0x35f4	; 0x35f4 <can_get_mob_status>
    396a:	18 2f       	mov	r17, r24
    396c:	80 32       	cpi	r24, 0x20	; 32
    396e:	71 f0       	breq	.+28     	; 0x398c <can_get_status+0x4c>
    3970:	81 32       	cpi	r24, 0x21	; 33
    3972:	18 f4       	brcc	.+6      	; 0x397a <can_get_status+0x3a>
    3974:	88 23       	and	r24, r24
    3976:	41 f0       	breq	.+16     	; 0x3988 <can_get_status+0x48>
    3978:	69 c0       	rjmp	.+210    	; 0x3a4c <can_get_status+0x10c>
    397a:	80 34       	cpi	r24, 0x40	; 64
    397c:	09 f4       	brne	.+2      	; 0x3980 <can_get_status+0x40>
    397e:	5c c0       	rjmp	.+184    	; 0x3a38 <can_get_status+0xf8>
    3980:	80 3a       	cpi	r24, 0xA0	; 160
    3982:	09 f0       	breq	.+2      	; 0x3986 <can_get_status+0x46>
    3984:	63 c0       	rjmp	.+198    	; 0x3a4c <can_get_status+0x10c>
    3986:	02 c0       	rjmp	.+4      	; 0x398c <can_get_status+0x4c>
    3988:	81 e0       	ldi	r24, 0x01	; 1
    398a:	69 c0       	rjmp	.+210    	; 0x3a5e <can_get_status+0x11e>
    398c:	80 91 ef 00 	lds	r24, 0x00EF
    3990:	8f 70       	andi	r24, 0x0F	; 15
    3992:	8f 83       	std	Y+7, r24	; 0x07
    3994:	88 85       	ldd	r24, Y+8	; 0x08
    3996:	99 85       	ldd	r25, Y+9	; 0x09
    3998:	0e 94 0d 1b 	call	0x361a	; 0x361a <can_get_data>
    399c:	80 91 f0 00 	lds	r24, 0x00F0
    39a0:	90 e0       	ldi	r25, 0x00	; 0
    39a2:	84 70       	andi	r24, 0x04	; 4
    39a4:	90 70       	andi	r25, 0x00	; 0
    39a6:	95 95       	asr	r25
    39a8:	87 95       	ror	r24
    39aa:	95 95       	asr	r25
    39ac:	87 95       	ror	r24
    39ae:	8b 87       	std	Y+11, r24	; 0x0b
    39b0:	80 91 ef 00 	lds	r24, 0x00EF
    39b4:	fe 01       	movw	r30, r28
    39b6:	33 96       	adiw	r30, 0x03	; 3
    39b8:	84 ff       	sbrs	r24, 4
    39ba:	2b c0       	rjmp	.+86     	; 0x3a12 <can_get_status+0xd2>
    39bc:	81 e0       	ldi	r24, 0x01	; 1
    39be:	8c 87       	std	Y+12, r24	; 0x0c
    39c0:	80 91 f3 00 	lds	r24, 0x00F3
    39c4:	86 95       	lsr	r24
    39c6:	86 95       	lsr	r24
    39c8:	86 95       	lsr	r24
    39ca:	83 83       	std	Z+3, r24	; 0x03
    39cc:	90 91 f2 00 	lds	r25, 0x00F2
    39d0:	80 91 f3 00 	lds	r24, 0x00F3
    39d4:	82 95       	swap	r24
    39d6:	88 0f       	add	r24, r24
    39d8:	80 7e       	andi	r24, 0xE0	; 224
    39da:	96 95       	lsr	r25
    39dc:	96 95       	lsr	r25
    39de:	96 95       	lsr	r25
    39e0:	89 0f       	add	r24, r25
    39e2:	82 83       	std	Z+2, r24	; 0x02
    39e4:	90 91 f1 00 	lds	r25, 0x00F1
    39e8:	80 91 f2 00 	lds	r24, 0x00F2
    39ec:	82 95       	swap	r24
    39ee:	88 0f       	add	r24, r24
    39f0:	80 7e       	andi	r24, 0xE0	; 224
    39f2:	96 95       	lsr	r25
    39f4:	96 95       	lsr	r25
    39f6:	96 95       	lsr	r25
    39f8:	89 0f       	add	r24, r25
    39fa:	81 83       	std	Z+1, r24	; 0x01
    39fc:	90 91 f0 00 	lds	r25, 0x00F0
    3a00:	80 91 f1 00 	lds	r24, 0x00F1
    3a04:	82 95       	swap	r24
    3a06:	88 0f       	add	r24, r24
    3a08:	80 7e       	andi	r24, 0xE0	; 224
    3a0a:	96 95       	lsr	r25
    3a0c:	96 95       	lsr	r25
    3a0e:	96 95       	lsr	r25
    3a10:	11 c0       	rjmp	.+34     	; 0x3a34 <can_get_status+0xf4>
    3a12:	1c 86       	std	Y+12, r1	; 0x0c
    3a14:	80 91 f3 00 	lds	r24, 0x00F3
    3a18:	82 95       	swap	r24
    3a1a:	86 95       	lsr	r24
    3a1c:	87 70       	andi	r24, 0x07	; 7
    3a1e:	81 83       	std	Z+1, r24	; 0x01
    3a20:	90 91 f2 00 	lds	r25, 0x00F2
    3a24:	80 91 f3 00 	lds	r24, 0x00F3
    3a28:	88 0f       	add	r24, r24
    3a2a:	88 0f       	add	r24, r24
    3a2c:	88 0f       	add	r24, r24
    3a2e:	92 95       	swap	r25
    3a30:	96 95       	lsr	r25
    3a32:	97 70       	andi	r25, 0x07	; 7
    3a34:	89 0f       	add	r24, r25
    3a36:	8b 83       	std	Y+3, r24	; 0x03
    3a38:	1a 87       	std	Y+10, r17	; 0x0a
    3a3a:	80 91 ef 00 	lds	r24, 0x00EF
    3a3e:	8f 73       	andi	r24, 0x3F	; 63
    3a40:	80 93 ef 00 	sts	0x00EF, r24
    3a44:	10 92 ee 00 	sts	0x00EE, r1
    3a48:	80 e0       	ldi	r24, 0x00	; 0
    3a4a:	09 c0       	rjmp	.+18     	; 0x3a5e <can_get_status+0x11e>
    3a4c:	1a 87       	std	Y+10, r17	; 0x0a
    3a4e:	80 91 ef 00 	lds	r24, 0x00EF
    3a52:	8f 73       	andi	r24, 0x3F	; 63
    3a54:	80 93 ef 00 	sts	0x00EF, r24
    3a58:	10 92 ee 00 	sts	0x00EE, r1
    3a5c:	82 e0       	ldi	r24, 0x02	; 2
    3a5e:	df 91       	pop	r29
    3a60:	cf 91       	pop	r28
    3a62:	1f 91       	pop	r17
    3a64:	08 95       	ret

00003a66 <can_cmd>:
    3a66:	a4 e0       	ldi	r26, 0x04	; 4
    3a68:	b0 e0       	ldi	r27, 0x00	; 0
    3a6a:	e9 e3       	ldi	r30, 0x39	; 57
    3a6c:	fd e1       	ldi	r31, 0x1D	; 29
    3a6e:	0c 94 5c 2a 	jmp	0x54b8	; 0x54b8 <__prologue_saves__+0x1c>
    3a72:	8c 01       	movw	r16, r24
    3a74:	dc 01       	movw	r26, r24
    3a76:	11 96       	adiw	r26, 0x01	; 1
    3a78:	8d 91       	ld	r24, X+
    3a7a:	9c 91       	ld	r25, X
    3a7c:	12 97       	sbiw	r26, 0x02	; 2
    3a7e:	0c 97       	sbiw	r24, 0x0c	; 12
    3a80:	a9 f4       	brne	.+42     	; 0x3aac <can_cmd+0x46>
    3a82:	1a 96       	adiw	r26, 0x0a	; 10
    3a84:	8c 91       	ld	r24, X
    3a86:	1a 97       	sbiw	r26, 0x0a	; 10
    3a88:	80 36       	cpi	r24, 0x60	; 96
    3a8a:	69 f4       	brne	.+26     	; 0x3aa6 <can_cmd+0x40>
    3a8c:	8c 91       	ld	r24, X
    3a8e:	82 95       	swap	r24
    3a90:	80 7f       	andi	r24, 0xF0	; 240
    3a92:	80 93 ed 00 	sts	0x00ED, r24
    3a96:	80 91 ef 00 	lds	r24, 0x00EF
    3a9a:	8f 73       	andi	r24, 0x3F	; 63
    3a9c:	80 93 ef 00 	sts	0x00EF, r24
    3aa0:	10 92 ee 00 	sts	0x00EE, r1
    3aa4:	1c 92       	st	X, r1
    3aa6:	f8 01       	movw	r30, r16
    3aa8:	12 86       	std	Z+10, r1	; 0x0a
    3aaa:	0c c1       	rjmp	.+536    	; 0x3cc4 <can_cmd+0x25e>
    3aac:	0e 94 e3 1a 	call	0x35c6	; 0x35c6 <can_get_mob_free>
    3ab0:	98 2f       	mov	r25, r24
    3ab2:	8f 3f       	cpi	r24, 0xFF	; 255
    3ab4:	09 f4       	brne	.+2      	; 0x3ab8 <can_cmd+0x52>
    3ab6:	d2 c4       	rjmp	.+2468   	; 0x445c <can_cmd+0x9f6>
    3ab8:	80 e6       	ldi	r24, 0x60	; 96
    3aba:	d8 01       	movw	r26, r16
    3abc:	1a 96       	adiw	r26, 0x0a	; 10
    3abe:	8c 93       	st	X, r24
    3ac0:	1a 97       	sbiw	r26, 0x0a	; 10
    3ac2:	9c 93       	st	X, r25
    3ac4:	92 95       	swap	r25
    3ac6:	90 7f       	andi	r25, 0xF0	; 240
    3ac8:	90 93 ed 00 	sts	0x00ED, r25
    3acc:	ee ee       	ldi	r30, 0xEE	; 238
    3ace:	f0 e0       	ldi	r31, 0x00	; 0
    3ad0:	11 92       	st	Z+, r1
    3ad2:	e8 3f       	cpi	r30, 0xF8	; 248
    3ad4:	f1 05       	cpc	r31, r1
    3ad6:	e1 f7       	brne	.-8      	; 0x3ad0 <can_cmd+0x6a>
    3ad8:	d8 01       	movw	r26, r16
    3ada:	11 96       	adiw	r26, 0x01	; 1
    3adc:	ed 91       	ld	r30, X+
    3ade:	fc 91       	ld	r31, X
    3ae0:	12 97       	sbiw	r26, 0x02	; 2
    3ae2:	31 97       	sbiw	r30, 0x01	; 1
    3ae4:	eb 30       	cpi	r30, 0x0B	; 11
    3ae6:	f1 05       	cpc	r31, r1
    3ae8:	08 f0       	brcs	.+2      	; 0x3aec <can_cmd+0x86>
    3aea:	b4 c4       	rjmp	.+2408   	; 0x4454 <can_cmd+0x9ee>
    3aec:	e7 5a       	subi	r30, 0xA7	; 167
    3aee:	ff 4f       	sbci	r31, 0xFF	; 255
    3af0:	0c 94 85 2a 	jmp	0x550a	; 0x550a <__tablejump2__>
    3af4:	f8 01       	movw	r30, r16
    3af6:	47 81       	ldd	r20, Z+7	; 0x07
    3af8:	90 e0       	ldi	r25, 0x00	; 0
    3afa:	be c3       	rjmp	.+1916   	; 0x4278 <can_cmd+0x812>
    3afc:	d8 01       	movw	r26, r16
    3afe:	1c 96       	adiw	r26, 0x0c	; 12
    3b00:	8c 91       	ld	r24, X
    3b02:	f8 01       	movw	r30, r16
    3b04:	33 96       	adiw	r30, 0x03	; 3
    3b06:	88 23       	and	r24, r24
    3b08:	91 f1       	breq	.+100    	; 0x3b6e <can_cmd+0x108>
    3b0a:	32 81       	ldd	r19, Z+2	; 0x02
    3b0c:	93 2f       	mov	r25, r19
    3b0e:	92 95       	swap	r25
    3b10:	96 95       	lsr	r25
    3b12:	97 70       	andi	r25, 0x07	; 7
    3b14:	83 81       	ldd	r24, Z+3	; 0x03
    3b16:	88 0f       	add	r24, r24
    3b18:	88 0f       	add	r24, r24
    3b1a:	88 0f       	add	r24, r24
    3b1c:	98 0f       	add	r25, r24
    3b1e:	90 93 f3 00 	sts	0x00F3, r25
    3b22:	21 81       	ldd	r18, Z+1	; 0x01
    3b24:	82 2f       	mov	r24, r18
    3b26:	82 95       	swap	r24
    3b28:	86 95       	lsr	r24
    3b2a:	87 70       	andi	r24, 0x07	; 7
    3b2c:	33 0f       	add	r19, r19
    3b2e:	33 0f       	add	r19, r19
    3b30:	33 0f       	add	r19, r19
    3b32:	83 0f       	add	r24, r19
    3b34:	80 93 f2 00 	sts	0x00F2, r24
    3b38:	f8 01       	movw	r30, r16
    3b3a:	93 81       	ldd	r25, Z+3	; 0x03
    3b3c:	22 0f       	add	r18, r18
    3b3e:	22 0f       	add	r18, r18
    3b40:	22 0f       	add	r18, r18
    3b42:	89 2f       	mov	r24, r25
    3b44:	82 95       	swap	r24
    3b46:	86 95       	lsr	r24
    3b48:	87 70       	andi	r24, 0x07	; 7
    3b4a:	28 0f       	add	r18, r24
    3b4c:	20 93 f1 00 	sts	0x00F1, r18
    3b50:	99 0f       	add	r25, r25
    3b52:	99 0f       	add	r25, r25
    3b54:	99 0f       	add	r25, r25
    3b56:	90 93 f0 00 	sts	0x00F0, r25
    3b5a:	80 91 ef 00 	lds	r24, 0x00EF
    3b5e:	80 61       	ori	r24, 0x10	; 16
    3b60:	80 93 ef 00 	sts	0x00EF, r24
    3b64:	d8 01       	movw	r26, r16
    3b66:	17 96       	adiw	r26, 0x07	; 7
    3b68:	2c 91       	ld	r18, X
    3b6a:	90 e0       	ldi	r25, 0x00	; 0
    3b6c:	22 c0       	rjmp	.+68     	; 0x3bb2 <can_cmd+0x14c>
    3b6e:	d8 01       	movw	r26, r16
    3b70:	13 96       	adiw	r26, 0x03	; 3
    3b72:	2c 91       	ld	r18, X
    3b74:	81 81       	ldd	r24, Z+1	; 0x01
    3b76:	82 95       	swap	r24
    3b78:	88 0f       	add	r24, r24
    3b7a:	80 7e       	andi	r24, 0xE0	; 224
    3b7c:	92 2f       	mov	r25, r18
    3b7e:	96 95       	lsr	r25
    3b80:	96 95       	lsr	r25
    3b82:	96 95       	lsr	r25
    3b84:	89 0f       	add	r24, r25
    3b86:	80 93 f3 00 	sts	0x00F3, r24
    3b8a:	22 95       	swap	r18
    3b8c:	22 0f       	add	r18, r18
    3b8e:	20 7e       	andi	r18, 0xE0	; 224
    3b90:	20 93 f2 00 	sts	0x00F2, r18
    3b94:	80 91 ef 00 	lds	r24, 0x00EF
    3b98:	8f 7e       	andi	r24, 0xEF	; 239
    3b9a:	e2 cf       	rjmp	.-60     	; 0x3b60 <can_cmd+0xfa>
    3b9c:	d8 01       	movw	r26, r16
    3b9e:	18 96       	adiw	r26, 0x08	; 8
    3ba0:	ed 91       	ld	r30, X+
    3ba2:	fc 91       	ld	r31, X
    3ba4:	19 97       	sbiw	r26, 0x09	; 9
    3ba6:	e9 0f       	add	r30, r25
    3ba8:	f1 1d       	adc	r31, r1
    3baa:	80 81       	ld	r24, Z
    3bac:	80 93 fa 00 	sts	0x00FA, r24
    3bb0:	9f 5f       	subi	r25, 0xFF	; 255
    3bb2:	92 17       	cp	r25, r18
    3bb4:	98 f3       	brcs	.-26     	; 0x3b9c <can_cmd+0x136>
    3bb6:	f8 01       	movw	r30, r16
    3bb8:	83 85       	ldd	r24, Z+11	; 0x0b
    3bba:	88 23       	and	r24, r24
    3bbc:	21 f0       	breq	.+8      	; 0x3bc6 <can_cmd+0x160>
    3bbe:	80 91 f0 00 	lds	r24, 0x00F0
    3bc2:	84 60       	ori	r24, 0x04	; 4
    3bc4:	03 c0       	rjmp	.+6      	; 0x3bcc <can_cmd+0x166>
    3bc6:	80 91 f0 00 	lds	r24, 0x00F0
    3bca:	8b 7f       	andi	r24, 0xFB	; 251
    3bcc:	80 93 f0 00 	sts	0x00F0, r24
    3bd0:	80 91 ef 00 	lds	r24, 0x00EF
    3bd4:	28 2b       	or	r18, r24
    3bd6:	20 93 ef 00 	sts	0x00EF, r18
    3bda:	6a c0       	rjmp	.+212    	; 0x3cb0 <can_cmd+0x24a>
    3bdc:	d8 01       	movw	r26, r16
    3bde:	1c 96       	adiw	r26, 0x0c	; 12
    3be0:	8c 91       	ld	r24, X
    3be2:	f8 01       	movw	r30, r16
    3be4:	33 96       	adiw	r30, 0x03	; 3
    3be6:	88 23       	and	r24, r24
    3be8:	91 f1       	breq	.+100    	; 0x3c4e <can_cmd+0x1e8>
    3bea:	32 81       	ldd	r19, Z+2	; 0x02
    3bec:	93 2f       	mov	r25, r19
    3bee:	92 95       	swap	r25
    3bf0:	96 95       	lsr	r25
    3bf2:	97 70       	andi	r25, 0x07	; 7
    3bf4:	83 81       	ldd	r24, Z+3	; 0x03
    3bf6:	88 0f       	add	r24, r24
    3bf8:	88 0f       	add	r24, r24
    3bfa:	88 0f       	add	r24, r24
    3bfc:	98 0f       	add	r25, r24
    3bfe:	90 93 f3 00 	sts	0x00F3, r25
    3c02:	21 81       	ldd	r18, Z+1	; 0x01
    3c04:	82 2f       	mov	r24, r18
    3c06:	82 95       	swap	r24
    3c08:	86 95       	lsr	r24
    3c0a:	87 70       	andi	r24, 0x07	; 7
    3c0c:	33 0f       	add	r19, r19
    3c0e:	33 0f       	add	r19, r19
    3c10:	33 0f       	add	r19, r19
    3c12:	83 0f       	add	r24, r19
    3c14:	80 93 f2 00 	sts	0x00F2, r24
    3c18:	f8 01       	movw	r30, r16
    3c1a:	93 81       	ldd	r25, Z+3	; 0x03
    3c1c:	22 0f       	add	r18, r18
    3c1e:	22 0f       	add	r18, r18
    3c20:	22 0f       	add	r18, r18
    3c22:	89 2f       	mov	r24, r25
    3c24:	82 95       	swap	r24
    3c26:	86 95       	lsr	r24
    3c28:	87 70       	andi	r24, 0x07	; 7
    3c2a:	28 0f       	add	r18, r24
    3c2c:	20 93 f1 00 	sts	0x00F1, r18
    3c30:	99 0f       	add	r25, r25
    3c32:	99 0f       	add	r25, r25
    3c34:	99 0f       	add	r25, r25
    3c36:	90 93 f0 00 	sts	0x00F0, r25
    3c3a:	80 91 ef 00 	lds	r24, 0x00EF
    3c3e:	80 61       	ori	r24, 0x10	; 16
    3c40:	80 93 ef 00 	sts	0x00EF, r24
    3c44:	d8 01       	movw	r26, r16
    3c46:	17 96       	adiw	r26, 0x07	; 7
    3c48:	2c 91       	ld	r18, X
    3c4a:	90 e0       	ldi	r25, 0x00	; 0
    3c4c:	22 c0       	rjmp	.+68     	; 0x3c92 <can_cmd+0x22c>
    3c4e:	d8 01       	movw	r26, r16
    3c50:	13 96       	adiw	r26, 0x03	; 3
    3c52:	2c 91       	ld	r18, X
    3c54:	81 81       	ldd	r24, Z+1	; 0x01
    3c56:	82 95       	swap	r24
    3c58:	88 0f       	add	r24, r24
    3c5a:	80 7e       	andi	r24, 0xE0	; 224
    3c5c:	92 2f       	mov	r25, r18
    3c5e:	96 95       	lsr	r25
    3c60:	96 95       	lsr	r25
    3c62:	96 95       	lsr	r25
    3c64:	89 0f       	add	r24, r25
    3c66:	80 93 f3 00 	sts	0x00F3, r24
    3c6a:	22 95       	swap	r18
    3c6c:	22 0f       	add	r18, r18
    3c6e:	20 7e       	andi	r18, 0xE0	; 224
    3c70:	20 93 f2 00 	sts	0x00F2, r18
    3c74:	80 91 ef 00 	lds	r24, 0x00EF
    3c78:	8f 7e       	andi	r24, 0xEF	; 239
    3c7a:	e2 cf       	rjmp	.-60     	; 0x3c40 <can_cmd+0x1da>
    3c7c:	d8 01       	movw	r26, r16
    3c7e:	18 96       	adiw	r26, 0x08	; 8
    3c80:	ed 91       	ld	r30, X+
    3c82:	fc 91       	ld	r31, X
    3c84:	19 97       	sbiw	r26, 0x09	; 9
    3c86:	e9 0f       	add	r30, r25
    3c88:	f1 1d       	adc	r31, r1
    3c8a:	80 81       	ld	r24, Z
    3c8c:	80 93 fa 00 	sts	0x00FA, r24
    3c90:	9f 5f       	subi	r25, 0xFF	; 255
    3c92:	92 17       	cp	r25, r18
    3c94:	98 f3       	brcs	.-26     	; 0x3c7c <can_cmd+0x216>
    3c96:	f8 01       	movw	r30, r16
    3c98:	13 86       	std	Z+11, r1	; 0x0b
    3c9a:	80 91 f0 00 	lds	r24, 0x00F0
    3c9e:	8b 7f       	andi	r24, 0xFB	; 251
    3ca0:	80 93 f0 00 	sts	0x00F0, r24
    3ca4:	80 91 ef 00 	lds	r24, 0x00EF
    3ca8:	97 81       	ldd	r25, Z+7	; 0x07
    3caa:	89 2b       	or	r24, r25
    3cac:	80 93 ef 00 	sts	0x00EF, r24
    3cb0:	80 91 ef 00 	lds	r24, 0x00EF
    3cb4:	8f 73       	andi	r24, 0x3F	; 63
    3cb6:	80 93 ef 00 	sts	0x00EF, r24
    3cba:	80 91 ef 00 	lds	r24, 0x00EF
    3cbe:	80 64       	ori	r24, 0x40	; 64
    3cc0:	80 93 ef 00 	sts	0x00EF, r24
    3cc4:	80 e0       	ldi	r24, 0x00	; 0
    3cc6:	ce c3       	rjmp	.+1948   	; 0x4464 <can_cmd+0x9fe>
    3cc8:	d8 01       	movw	r26, r16
    3cca:	1c 96       	adiw	r26, 0x0c	; 12
    3ccc:	8c 91       	ld	r24, X
    3cce:	f8 01       	movw	r30, r16
    3cd0:	33 96       	adiw	r30, 0x03	; 3
    3cd2:	88 23       	and	r24, r24
    3cd4:	61 f1       	breq	.+88     	; 0x3d2e <can_cmd+0x2c8>
    3cd6:	32 81       	ldd	r19, Z+2	; 0x02
    3cd8:	93 2f       	mov	r25, r19
    3cda:	92 95       	swap	r25
    3cdc:	96 95       	lsr	r25
    3cde:	97 70       	andi	r25, 0x07	; 7
    3ce0:	83 81       	ldd	r24, Z+3	; 0x03
    3ce2:	88 0f       	add	r24, r24
    3ce4:	88 0f       	add	r24, r24
    3ce6:	88 0f       	add	r24, r24
    3ce8:	98 0f       	add	r25, r24
    3cea:	90 93 f3 00 	sts	0x00F3, r25
    3cee:	21 81       	ldd	r18, Z+1	; 0x01
    3cf0:	82 2f       	mov	r24, r18
    3cf2:	82 95       	swap	r24
    3cf4:	86 95       	lsr	r24
    3cf6:	87 70       	andi	r24, 0x07	; 7
    3cf8:	33 0f       	add	r19, r19
    3cfa:	33 0f       	add	r19, r19
    3cfc:	33 0f       	add	r19, r19
    3cfe:	83 0f       	add	r24, r19
    3d00:	80 93 f2 00 	sts	0x00F2, r24
    3d04:	f8 01       	movw	r30, r16
    3d06:	93 81       	ldd	r25, Z+3	; 0x03
    3d08:	22 0f       	add	r18, r18
    3d0a:	22 0f       	add	r18, r18
    3d0c:	22 0f       	add	r18, r18
    3d0e:	89 2f       	mov	r24, r25
    3d10:	82 95       	swap	r24
    3d12:	86 95       	lsr	r24
    3d14:	87 70       	andi	r24, 0x07	; 7
    3d16:	28 0f       	add	r18, r24
    3d18:	20 93 f1 00 	sts	0x00F1, r18
    3d1c:	99 0f       	add	r25, r25
    3d1e:	99 0f       	add	r25, r25
    3d20:	99 0f       	add	r25, r25
    3d22:	90 93 f0 00 	sts	0x00F0, r25
    3d26:	80 91 ef 00 	lds	r24, 0x00EF
    3d2a:	80 61       	ori	r24, 0x10	; 16
    3d2c:	16 c0       	rjmp	.+44     	; 0x3d5a <can_cmd+0x2f4>
    3d2e:	d8 01       	movw	r26, r16
    3d30:	13 96       	adiw	r26, 0x03	; 3
    3d32:	2c 91       	ld	r18, X
    3d34:	81 81       	ldd	r24, Z+1	; 0x01
    3d36:	82 95       	swap	r24
    3d38:	88 0f       	add	r24, r24
    3d3a:	80 7e       	andi	r24, 0xE0	; 224
    3d3c:	92 2f       	mov	r25, r18
    3d3e:	96 95       	lsr	r25
    3d40:	96 95       	lsr	r25
    3d42:	96 95       	lsr	r25
    3d44:	89 0f       	add	r24, r25
    3d46:	80 93 f3 00 	sts	0x00F3, r24
    3d4a:	22 95       	swap	r18
    3d4c:	22 0f       	add	r18, r18
    3d4e:	20 7e       	andi	r18, 0xE0	; 224
    3d50:	20 93 f2 00 	sts	0x00F2, r18
    3d54:	80 91 ef 00 	lds	r24, 0x00EF
    3d58:	8f 7e       	andi	r24, 0xEF	; 239
    3d5a:	80 93 ef 00 	sts	0x00EF, r24
    3d5e:	81 e0       	ldi	r24, 0x01	; 1
    3d60:	f8 01       	movw	r30, r16
    3d62:	83 87       	std	Z+11, r24	; 0x0b
    3d64:	80 91 f0 00 	lds	r24, 0x00F0
    3d68:	84 60       	ori	r24, 0x04	; 4
    3d6a:	9a cf       	rjmp	.-204    	; 0x3ca0 <can_cmd+0x23a>
    3d6c:	19 82       	std	Y+1, r1	; 0x01
    3d6e:	1a 82       	std	Y+2, r1	; 0x02
    3d70:	1b 82       	std	Y+3, r1	; 0x03
    3d72:	1c 82       	std	Y+4, r1	; 0x04
    3d74:	fe 01       	movw	r30, r28
    3d76:	31 96       	adiw	r30, 0x01	; 1
    3d78:	32 81       	ldd	r19, Z+2	; 0x02
    3d7a:	93 2f       	mov	r25, r19
    3d7c:	92 95       	swap	r25
    3d7e:	96 95       	lsr	r25
    3d80:	97 70       	andi	r25, 0x07	; 7
    3d82:	83 81       	ldd	r24, Z+3	; 0x03
    3d84:	88 0f       	add	r24, r24
    3d86:	88 0f       	add	r24, r24
    3d88:	88 0f       	add	r24, r24
    3d8a:	98 0f       	add	r25, r24
    3d8c:	90 93 f7 00 	sts	0x00F7, r25
    3d90:	21 81       	ldd	r18, Z+1	; 0x01
    3d92:	82 2f       	mov	r24, r18
    3d94:	82 95       	swap	r24
    3d96:	86 95       	lsr	r24
    3d98:	87 70       	andi	r24, 0x07	; 7
    3d9a:	33 0f       	add	r19, r19
    3d9c:	33 0f       	add	r19, r19
    3d9e:	33 0f       	add	r19, r19
    3da0:	83 0f       	add	r24, r19
    3da2:	80 93 f6 00 	sts	0x00F6, r24
    3da6:	99 81       	ldd	r25, Y+1	; 0x01
    3da8:	22 0f       	add	r18, r18
    3daa:	22 0f       	add	r18, r18
    3dac:	22 0f       	add	r18, r18
    3dae:	89 2f       	mov	r24, r25
    3db0:	82 95       	swap	r24
    3db2:	86 95       	lsr	r24
    3db4:	87 70       	andi	r24, 0x07	; 7
    3db6:	28 0f       	add	r18, r24
    3db8:	20 93 f5 00 	sts	0x00F5, r18
    3dbc:	99 0f       	add	r25, r25
    3dbe:	99 0f       	add	r25, r25
    3dc0:	99 0f       	add	r25, r25
    3dc2:	90 93 f4 00 	sts	0x00F4, r25
    3dc6:	80 91 ef 00 	lds	r24, 0x00EF
    3dca:	d8 01       	movw	r26, r16
    3dcc:	17 96       	adiw	r26, 0x07	; 7
    3dce:	9c 91       	ld	r25, X
    3dd0:	89 2b       	or	r24, r25
    3dd2:	80 93 ef 00 	sts	0x00EF, r24
    3dd6:	80 91 f4 00 	lds	r24, 0x00F4
    3dda:	8b 7f       	andi	r24, 0xFB	; 251
    3ddc:	80 93 f4 00 	sts	0x00F4, r24
    3de0:	91 c2       	rjmp	.+1314   	; 0x4304 <can_cmd+0x89e>
    3de2:	19 82       	std	Y+1, r1	; 0x01
    3de4:	1a 82       	std	Y+2, r1	; 0x02
    3de6:	1b 82       	std	Y+3, r1	; 0x03
    3de8:	1c 82       	std	Y+4, r1	; 0x04
    3dea:	fe 01       	movw	r30, r28
    3dec:	31 96       	adiw	r30, 0x01	; 1
    3dee:	32 81       	ldd	r19, Z+2	; 0x02
    3df0:	93 2f       	mov	r25, r19
    3df2:	92 95       	swap	r25
    3df4:	96 95       	lsr	r25
    3df6:	97 70       	andi	r25, 0x07	; 7
    3df8:	83 81       	ldd	r24, Z+3	; 0x03
    3dfa:	88 0f       	add	r24, r24
    3dfc:	88 0f       	add	r24, r24
    3dfe:	88 0f       	add	r24, r24
    3e00:	98 0f       	add	r25, r24
    3e02:	90 93 f7 00 	sts	0x00F7, r25
    3e06:	21 81       	ldd	r18, Z+1	; 0x01
    3e08:	82 2f       	mov	r24, r18
    3e0a:	82 95       	swap	r24
    3e0c:	86 95       	lsr	r24
    3e0e:	87 70       	andi	r24, 0x07	; 7
    3e10:	33 0f       	add	r19, r19
    3e12:	33 0f       	add	r19, r19
    3e14:	33 0f       	add	r19, r19
    3e16:	83 0f       	add	r24, r19
    3e18:	80 93 f6 00 	sts	0x00F6, r24
    3e1c:	99 81       	ldd	r25, Y+1	; 0x01
    3e1e:	22 0f       	add	r18, r18
    3e20:	22 0f       	add	r18, r18
    3e22:	22 0f       	add	r18, r18
    3e24:	89 2f       	mov	r24, r25
    3e26:	82 95       	swap	r24
    3e28:	86 95       	lsr	r24
    3e2a:	87 70       	andi	r24, 0x07	; 7
    3e2c:	28 0f       	add	r18, r24
    3e2e:	20 93 f5 00 	sts	0x00F5, r18
    3e32:	99 0f       	add	r25, r25
    3e34:	99 0f       	add	r25, r25
    3e36:	99 0f       	add	r25, r25
    3e38:	90 93 f4 00 	sts	0x00F4, r25
    3e3c:	80 91 ef 00 	lds	r24, 0x00EF
    3e40:	f8 01       	movw	r30, r16
    3e42:	97 81       	ldd	r25, Z+7	; 0x07
    3e44:	89 2b       	or	r24, r25
    3e46:	80 93 ef 00 	sts	0x00EF, r24
    3e4a:	13 86       	std	Z+11, r1	; 0x0b
    3e4c:	80 91 f4 00 	lds	r24, 0x00F4
    3e50:	84 60       	ori	r24, 0x04	; 4
    3e52:	80 93 f4 00 	sts	0x00F4, r24
    3e56:	80 91 f0 00 	lds	r24, 0x00F0
    3e5a:	8b 7f       	andi	r24, 0xFB	; 251
    3e5c:	80 93 f0 00 	sts	0x00F0, r24
    3e60:	51 c2       	rjmp	.+1186   	; 0x4304 <can_cmd+0x89e>
    3e62:	19 82       	std	Y+1, r1	; 0x01
    3e64:	1a 82       	std	Y+2, r1	; 0x02
    3e66:	1b 82       	std	Y+3, r1	; 0x03
    3e68:	1c 82       	std	Y+4, r1	; 0x04
    3e6a:	fe 01       	movw	r30, r28
    3e6c:	31 96       	adiw	r30, 0x01	; 1
    3e6e:	32 81       	ldd	r19, Z+2	; 0x02
    3e70:	93 2f       	mov	r25, r19
    3e72:	92 95       	swap	r25
    3e74:	96 95       	lsr	r25
    3e76:	97 70       	andi	r25, 0x07	; 7
    3e78:	83 81       	ldd	r24, Z+3	; 0x03
    3e7a:	88 0f       	add	r24, r24
    3e7c:	88 0f       	add	r24, r24
    3e7e:	88 0f       	add	r24, r24
    3e80:	98 0f       	add	r25, r24
    3e82:	90 93 f7 00 	sts	0x00F7, r25
    3e86:	21 81       	ldd	r18, Z+1	; 0x01
    3e88:	82 2f       	mov	r24, r18
    3e8a:	82 95       	swap	r24
    3e8c:	86 95       	lsr	r24
    3e8e:	87 70       	andi	r24, 0x07	; 7
    3e90:	33 0f       	add	r19, r19
    3e92:	33 0f       	add	r19, r19
    3e94:	33 0f       	add	r19, r19
    3e96:	83 0f       	add	r24, r19
    3e98:	80 93 f6 00 	sts	0x00F6, r24
    3e9c:	99 81       	ldd	r25, Y+1	; 0x01
    3e9e:	22 0f       	add	r18, r18
    3ea0:	22 0f       	add	r18, r18
    3ea2:	22 0f       	add	r18, r18
    3ea4:	89 2f       	mov	r24, r25
    3ea6:	82 95       	swap	r24
    3ea8:	86 95       	lsr	r24
    3eaa:	87 70       	andi	r24, 0x07	; 7
    3eac:	28 0f       	add	r18, r24
    3eae:	20 93 f5 00 	sts	0x00F5, r18
    3eb2:	99 0f       	add	r25, r25
    3eb4:	99 0f       	add	r25, r25
    3eb6:	99 0f       	add	r25, r25
    3eb8:	90 93 f4 00 	sts	0x00F4, r25
    3ebc:	80 91 ef 00 	lds	r24, 0x00EF
    3ec0:	d8 01       	movw	r26, r16
    3ec2:	17 96       	adiw	r26, 0x07	; 7
    3ec4:	9c 91       	ld	r25, X
    3ec6:	17 97       	sbiw	r26, 0x07	; 7
    3ec8:	89 2b       	or	r24, r25
    3eca:	80 93 ef 00 	sts	0x00EF, r24
    3ece:	81 e0       	ldi	r24, 0x01	; 1
    3ed0:	1b 96       	adiw	r26, 0x0b	; 11
    3ed2:	8c 93       	st	X, r24
    3ed4:	80 91 f4 00 	lds	r24, 0x00F4
    3ed8:	84 60       	ori	r24, 0x04	; 4
    3eda:	80 93 f4 00 	sts	0x00F4, r24
    3ede:	80 91 f0 00 	lds	r24, 0x00F0
    3ee2:	84 60       	ori	r24, 0x04	; 4
    3ee4:	80 93 f0 00 	sts	0x00F0, r24
    3ee8:	80 91 ef 00 	lds	r24, 0x00EF
    3eec:	8f 7d       	andi	r24, 0xDF	; 223
    3eee:	08 c2       	rjmp	.+1040   	; 0x4300 <can_cmd+0x89a>
    3ef0:	f8 01       	movw	r30, r16
    3ef2:	84 85       	ldd	r24, Z+12	; 0x0c
    3ef4:	33 96       	adiw	r30, 0x03	; 3
    3ef6:	88 23       	and	r24, r24
    3ef8:	69 f1       	breq	.+90     	; 0x3f54 <can_cmd+0x4ee>
    3efa:	32 81       	ldd	r19, Z+2	; 0x02
    3efc:	93 2f       	mov	r25, r19
    3efe:	92 95       	swap	r25
    3f00:	96 95       	lsr	r25
    3f02:	97 70       	andi	r25, 0x07	; 7
    3f04:	83 81       	ldd	r24, Z+3	; 0x03
    3f06:	88 0f       	add	r24, r24
    3f08:	88 0f       	add	r24, r24
    3f0a:	88 0f       	add	r24, r24
    3f0c:	98 0f       	add	r25, r24
    3f0e:	90 93 f3 00 	sts	0x00F3, r25
    3f12:	21 81       	ldd	r18, Z+1	; 0x01
    3f14:	82 2f       	mov	r24, r18
    3f16:	82 95       	swap	r24
    3f18:	86 95       	lsr	r24
    3f1a:	87 70       	andi	r24, 0x07	; 7
    3f1c:	33 0f       	add	r19, r19
    3f1e:	33 0f       	add	r19, r19
    3f20:	33 0f       	add	r19, r19
    3f22:	83 0f       	add	r24, r19
    3f24:	80 93 f2 00 	sts	0x00F2, r24
    3f28:	d8 01       	movw	r26, r16
    3f2a:	13 96       	adiw	r26, 0x03	; 3
    3f2c:	9c 91       	ld	r25, X
    3f2e:	22 0f       	add	r18, r18
    3f30:	22 0f       	add	r18, r18
    3f32:	22 0f       	add	r18, r18
    3f34:	89 2f       	mov	r24, r25
    3f36:	82 95       	swap	r24
    3f38:	86 95       	lsr	r24
    3f3a:	87 70       	andi	r24, 0x07	; 7
    3f3c:	28 0f       	add	r18, r24
    3f3e:	20 93 f1 00 	sts	0x00F1, r18
    3f42:	99 0f       	add	r25, r25
    3f44:	99 0f       	add	r25, r25
    3f46:	99 0f       	add	r25, r25
    3f48:	90 93 f0 00 	sts	0x00F0, r25
    3f4c:	80 91 ef 00 	lds	r24, 0x00EF
    3f50:	80 61       	ori	r24, 0x10	; 16
    3f52:	16 c0       	rjmp	.+44     	; 0x3f80 <can_cmd+0x51a>
    3f54:	d8 01       	movw	r26, r16
    3f56:	13 96       	adiw	r26, 0x03	; 3
    3f58:	2c 91       	ld	r18, X
    3f5a:	81 81       	ldd	r24, Z+1	; 0x01
    3f5c:	82 95       	swap	r24
    3f5e:	88 0f       	add	r24, r24
    3f60:	80 7e       	andi	r24, 0xE0	; 224
    3f62:	92 2f       	mov	r25, r18
    3f64:	96 95       	lsr	r25
    3f66:	96 95       	lsr	r25
    3f68:	96 95       	lsr	r25
    3f6a:	89 0f       	add	r24, r25
    3f6c:	80 93 f3 00 	sts	0x00F3, r24
    3f70:	22 95       	swap	r18
    3f72:	22 0f       	add	r18, r18
    3f74:	20 7e       	andi	r18, 0xE0	; 224
    3f76:	20 93 f2 00 	sts	0x00F2, r18
    3f7a:	80 91 ef 00 	lds	r24, 0x00EF
    3f7e:	8f 7e       	andi	r24, 0xEF	; 239
    3f80:	80 93 ef 00 	sts	0x00EF, r24
    3f84:	8f ef       	ldi	r24, 0xFF	; 255
    3f86:	9f ef       	ldi	r25, 0xFF	; 255
    3f88:	af ef       	ldi	r26, 0xFF	; 255
    3f8a:	bf ef       	ldi	r27, 0xFF	; 255
    3f8c:	89 83       	std	Y+1, r24	; 0x01
    3f8e:	9a 83       	std	Y+2, r25	; 0x02
    3f90:	ab 83       	std	Y+3, r26	; 0x03
    3f92:	bc 83       	std	Y+4, r27	; 0x04
    3f94:	fe 01       	movw	r30, r28
    3f96:	31 96       	adiw	r30, 0x01	; 1
    3f98:	32 81       	ldd	r19, Z+2	; 0x02
    3f9a:	93 2f       	mov	r25, r19
    3f9c:	92 95       	swap	r25
    3f9e:	96 95       	lsr	r25
    3fa0:	97 70       	andi	r25, 0x07	; 7
    3fa2:	83 81       	ldd	r24, Z+3	; 0x03
    3fa4:	88 0f       	add	r24, r24
    3fa6:	88 0f       	add	r24, r24
    3fa8:	88 0f       	add	r24, r24
    3faa:	98 0f       	add	r25, r24
    3fac:	90 93 f7 00 	sts	0x00F7, r25
    3fb0:	21 81       	ldd	r18, Z+1	; 0x01
    3fb2:	82 2f       	mov	r24, r18
    3fb4:	82 95       	swap	r24
    3fb6:	86 95       	lsr	r24
    3fb8:	87 70       	andi	r24, 0x07	; 7
    3fba:	33 0f       	add	r19, r19
    3fbc:	33 0f       	add	r19, r19
    3fbe:	33 0f       	add	r19, r19
    3fc0:	83 0f       	add	r24, r19
    3fc2:	80 93 f6 00 	sts	0x00F6, r24
    3fc6:	99 81       	ldd	r25, Y+1	; 0x01
    3fc8:	22 0f       	add	r18, r18
    3fca:	22 0f       	add	r18, r18
    3fcc:	22 0f       	add	r18, r18
    3fce:	89 2f       	mov	r24, r25
    3fd0:	82 95       	swap	r24
    3fd2:	86 95       	lsr	r24
    3fd4:	87 70       	andi	r24, 0x07	; 7
    3fd6:	28 0f       	add	r18, r24
    3fd8:	20 93 f5 00 	sts	0x00F5, r18
    3fdc:	99 0f       	add	r25, r25
    3fde:	99 0f       	add	r25, r25
    3fe0:	99 0f       	add	r25, r25
    3fe2:	90 93 f4 00 	sts	0x00F4, r25
    3fe6:	80 91 ef 00 	lds	r24, 0x00EF
    3fea:	f8 01       	movw	r30, r16
    3fec:	97 81       	ldd	r25, Z+7	; 0x07
    3fee:	89 2b       	or	r24, r25
    3ff0:	80 93 ef 00 	sts	0x00EF, r24
    3ff4:	80 91 f4 00 	lds	r24, 0x00F4
    3ff8:	8b 7f       	andi	r24, 0xFB	; 251
    3ffa:	80 93 f4 00 	sts	0x00F4, r24
    3ffe:	80 91 f4 00 	lds	r24, 0x00F4
    4002:	81 60       	ori	r24, 0x01	; 1
    4004:	80 93 f4 00 	sts	0x00F4, r24
    4008:	80 91 ef 00 	lds	r24, 0x00EF
    400c:	8f 73       	andi	r24, 0x3F	; 63
    400e:	80 93 ef 00 	sts	0x00EF, r24
    4012:	80 91 ef 00 	lds	r24, 0x00EF
    4016:	80 68       	ori	r24, 0x80	; 128
    4018:	53 ce       	rjmp	.-858    	; 0x3cc0 <can_cmd+0x25a>
    401a:	d8 01       	movw	r26, r16
    401c:	1c 96       	adiw	r26, 0x0c	; 12
    401e:	8c 91       	ld	r24, X
    4020:	f8 01       	movw	r30, r16
    4022:	33 96       	adiw	r30, 0x03	; 3
    4024:	88 23       	and	r24, r24
    4026:	61 f1       	breq	.+88     	; 0x4080 <can_cmd+0x61a>
    4028:	32 81       	ldd	r19, Z+2	; 0x02
    402a:	93 2f       	mov	r25, r19
    402c:	92 95       	swap	r25
    402e:	96 95       	lsr	r25
    4030:	97 70       	andi	r25, 0x07	; 7
    4032:	83 81       	ldd	r24, Z+3	; 0x03
    4034:	88 0f       	add	r24, r24
    4036:	88 0f       	add	r24, r24
    4038:	88 0f       	add	r24, r24
    403a:	98 0f       	add	r25, r24
    403c:	90 93 f3 00 	sts	0x00F3, r25
    4040:	21 81       	ldd	r18, Z+1	; 0x01
    4042:	82 2f       	mov	r24, r18
    4044:	82 95       	swap	r24
    4046:	86 95       	lsr	r24
    4048:	87 70       	andi	r24, 0x07	; 7
    404a:	33 0f       	add	r19, r19
    404c:	33 0f       	add	r19, r19
    404e:	33 0f       	add	r19, r19
    4050:	83 0f       	add	r24, r19
    4052:	80 93 f2 00 	sts	0x00F2, r24
    4056:	f8 01       	movw	r30, r16
    4058:	93 81       	ldd	r25, Z+3	; 0x03
    405a:	22 0f       	add	r18, r18
    405c:	22 0f       	add	r18, r18
    405e:	22 0f       	add	r18, r18
    4060:	89 2f       	mov	r24, r25
    4062:	82 95       	swap	r24
    4064:	86 95       	lsr	r24
    4066:	87 70       	andi	r24, 0x07	; 7
    4068:	28 0f       	add	r18, r24
    406a:	20 93 f1 00 	sts	0x00F1, r18
    406e:	99 0f       	add	r25, r25
    4070:	99 0f       	add	r25, r25
    4072:	99 0f       	add	r25, r25
    4074:	90 93 f0 00 	sts	0x00F0, r25
    4078:	80 91 ef 00 	lds	r24, 0x00EF
    407c:	80 61       	ori	r24, 0x10	; 16
    407e:	16 c0       	rjmp	.+44     	; 0x40ac <can_cmd+0x646>
    4080:	d8 01       	movw	r26, r16
    4082:	13 96       	adiw	r26, 0x03	; 3
    4084:	2c 91       	ld	r18, X
    4086:	81 81       	ldd	r24, Z+1	; 0x01
    4088:	82 95       	swap	r24
    408a:	88 0f       	add	r24, r24
    408c:	80 7e       	andi	r24, 0xE0	; 224
    408e:	92 2f       	mov	r25, r18
    4090:	96 95       	lsr	r25
    4092:	96 95       	lsr	r25
    4094:	96 95       	lsr	r25
    4096:	89 0f       	add	r24, r25
    4098:	80 93 f3 00 	sts	0x00F3, r24
    409c:	22 95       	swap	r18
    409e:	22 0f       	add	r18, r18
    40a0:	20 7e       	andi	r18, 0xE0	; 224
    40a2:	20 93 f2 00 	sts	0x00F2, r18
    40a6:	80 91 ef 00 	lds	r24, 0x00EF
    40aa:	8f 7e       	andi	r24, 0xEF	; 239
    40ac:	80 93 ef 00 	sts	0x00EF, r24
    40b0:	8f ef       	ldi	r24, 0xFF	; 255
    40b2:	9f ef       	ldi	r25, 0xFF	; 255
    40b4:	af ef       	ldi	r26, 0xFF	; 255
    40b6:	bf ef       	ldi	r27, 0xFF	; 255
    40b8:	89 83       	std	Y+1, r24	; 0x01
    40ba:	9a 83       	std	Y+2, r25	; 0x02
    40bc:	ab 83       	std	Y+3, r26	; 0x03
    40be:	bc 83       	std	Y+4, r27	; 0x04
    40c0:	fe 01       	movw	r30, r28
    40c2:	31 96       	adiw	r30, 0x01	; 1
    40c4:	32 81       	ldd	r19, Z+2	; 0x02
    40c6:	93 2f       	mov	r25, r19
    40c8:	92 95       	swap	r25
    40ca:	96 95       	lsr	r25
    40cc:	97 70       	andi	r25, 0x07	; 7
    40ce:	83 81       	ldd	r24, Z+3	; 0x03
    40d0:	88 0f       	add	r24, r24
    40d2:	88 0f       	add	r24, r24
    40d4:	88 0f       	add	r24, r24
    40d6:	98 0f       	add	r25, r24
    40d8:	90 93 f7 00 	sts	0x00F7, r25
    40dc:	21 81       	ldd	r18, Z+1	; 0x01
    40de:	82 2f       	mov	r24, r18
    40e0:	82 95       	swap	r24
    40e2:	86 95       	lsr	r24
    40e4:	87 70       	andi	r24, 0x07	; 7
    40e6:	33 0f       	add	r19, r19
    40e8:	33 0f       	add	r19, r19
    40ea:	33 0f       	add	r19, r19
    40ec:	83 0f       	add	r24, r19
    40ee:	80 93 f6 00 	sts	0x00F6, r24
    40f2:	99 81       	ldd	r25, Y+1	; 0x01
    40f4:	22 0f       	add	r18, r18
    40f6:	22 0f       	add	r18, r18
    40f8:	22 0f       	add	r18, r18
    40fa:	89 2f       	mov	r24, r25
    40fc:	82 95       	swap	r24
    40fe:	86 95       	lsr	r24
    4100:	87 70       	andi	r24, 0x07	; 7
    4102:	28 0f       	add	r18, r24
    4104:	20 93 f5 00 	sts	0x00F5, r18
    4108:	99 0f       	add	r25, r25
    410a:	99 0f       	add	r25, r25
    410c:	99 0f       	add	r25, r25
    410e:	90 93 f4 00 	sts	0x00F4, r25
    4112:	80 91 ef 00 	lds	r24, 0x00EF
    4116:	f8 01       	movw	r30, r16
    4118:	97 81       	ldd	r25, Z+7	; 0x07
    411a:	89 2b       	or	r24, r25
    411c:	80 93 ef 00 	sts	0x00EF, r24
    4120:	13 86       	std	Z+11, r1	; 0x0b
    4122:	80 91 f4 00 	lds	r24, 0x00F4
    4126:	84 60       	ori	r24, 0x04	; 4
    4128:	80 93 f4 00 	sts	0x00F4, r24
    412c:	80 91 f0 00 	lds	r24, 0x00F0
    4130:	8b 7f       	andi	r24, 0xFB	; 251
    4132:	80 93 f0 00 	sts	0x00F0, r24
    4136:	63 cf       	rjmp	.-314    	; 0x3ffe <can_cmd+0x598>
    4138:	d8 01       	movw	r26, r16
    413a:	1c 96       	adiw	r26, 0x0c	; 12
    413c:	8c 91       	ld	r24, X
    413e:	f8 01       	movw	r30, r16
    4140:	33 96       	adiw	r30, 0x03	; 3
    4142:	88 23       	and	r24, r24
    4144:	61 f1       	breq	.+88     	; 0x419e <can_cmd+0x738>
    4146:	32 81       	ldd	r19, Z+2	; 0x02
    4148:	93 2f       	mov	r25, r19
    414a:	92 95       	swap	r25
    414c:	96 95       	lsr	r25
    414e:	97 70       	andi	r25, 0x07	; 7
    4150:	83 81       	ldd	r24, Z+3	; 0x03
    4152:	88 0f       	add	r24, r24
    4154:	88 0f       	add	r24, r24
    4156:	88 0f       	add	r24, r24
    4158:	98 0f       	add	r25, r24
    415a:	90 93 f3 00 	sts	0x00F3, r25
    415e:	21 81       	ldd	r18, Z+1	; 0x01
    4160:	82 2f       	mov	r24, r18
    4162:	82 95       	swap	r24
    4164:	86 95       	lsr	r24
    4166:	87 70       	andi	r24, 0x07	; 7
    4168:	33 0f       	add	r19, r19
    416a:	33 0f       	add	r19, r19
    416c:	33 0f       	add	r19, r19
    416e:	83 0f       	add	r24, r19
    4170:	80 93 f2 00 	sts	0x00F2, r24
    4174:	f8 01       	movw	r30, r16
    4176:	93 81       	ldd	r25, Z+3	; 0x03
    4178:	22 0f       	add	r18, r18
    417a:	22 0f       	add	r18, r18
    417c:	22 0f       	add	r18, r18
    417e:	89 2f       	mov	r24, r25
    4180:	82 95       	swap	r24
    4182:	86 95       	lsr	r24
    4184:	87 70       	andi	r24, 0x07	; 7
    4186:	28 0f       	add	r18, r24
    4188:	20 93 f1 00 	sts	0x00F1, r18
    418c:	99 0f       	add	r25, r25
    418e:	99 0f       	add	r25, r25
    4190:	99 0f       	add	r25, r25
    4192:	90 93 f0 00 	sts	0x00F0, r25
    4196:	80 91 ef 00 	lds	r24, 0x00EF
    419a:	80 61       	ori	r24, 0x10	; 16
    419c:	16 c0       	rjmp	.+44     	; 0x41ca <can_cmd+0x764>
    419e:	d8 01       	movw	r26, r16
    41a0:	13 96       	adiw	r26, 0x03	; 3
    41a2:	2c 91       	ld	r18, X
    41a4:	81 81       	ldd	r24, Z+1	; 0x01
    41a6:	82 95       	swap	r24
    41a8:	88 0f       	add	r24, r24
    41aa:	80 7e       	andi	r24, 0xE0	; 224
    41ac:	92 2f       	mov	r25, r18
    41ae:	96 95       	lsr	r25
    41b0:	96 95       	lsr	r25
    41b2:	96 95       	lsr	r25
    41b4:	89 0f       	add	r24, r25
    41b6:	80 93 f3 00 	sts	0x00F3, r24
    41ba:	22 95       	swap	r18
    41bc:	22 0f       	add	r18, r18
    41be:	20 7e       	andi	r18, 0xE0	; 224
    41c0:	20 93 f2 00 	sts	0x00F2, r18
    41c4:	80 91 ef 00 	lds	r24, 0x00EF
    41c8:	8f 7e       	andi	r24, 0xEF	; 239
    41ca:	80 93 ef 00 	sts	0x00EF, r24
    41ce:	8f ef       	ldi	r24, 0xFF	; 255
    41d0:	9f ef       	ldi	r25, 0xFF	; 255
    41d2:	af ef       	ldi	r26, 0xFF	; 255
    41d4:	bf ef       	ldi	r27, 0xFF	; 255
    41d6:	89 83       	std	Y+1, r24	; 0x01
    41d8:	9a 83       	std	Y+2, r25	; 0x02
    41da:	ab 83       	std	Y+3, r26	; 0x03
    41dc:	bc 83       	std	Y+4, r27	; 0x04
    41de:	fe 01       	movw	r30, r28
    41e0:	31 96       	adiw	r30, 0x01	; 1
    41e2:	32 81       	ldd	r19, Z+2	; 0x02
    41e4:	93 2f       	mov	r25, r19
    41e6:	92 95       	swap	r25
    41e8:	96 95       	lsr	r25
    41ea:	97 70       	andi	r25, 0x07	; 7
    41ec:	83 81       	ldd	r24, Z+3	; 0x03
    41ee:	88 0f       	add	r24, r24
    41f0:	88 0f       	add	r24, r24
    41f2:	88 0f       	add	r24, r24
    41f4:	98 0f       	add	r25, r24
    41f6:	90 93 f7 00 	sts	0x00F7, r25
    41fa:	21 81       	ldd	r18, Z+1	; 0x01
    41fc:	82 2f       	mov	r24, r18
    41fe:	82 95       	swap	r24
    4200:	86 95       	lsr	r24
    4202:	87 70       	andi	r24, 0x07	; 7
    4204:	33 0f       	add	r19, r19
    4206:	33 0f       	add	r19, r19
    4208:	33 0f       	add	r19, r19
    420a:	83 0f       	add	r24, r19
    420c:	80 93 f6 00 	sts	0x00F6, r24
    4210:	99 81       	ldd	r25, Y+1	; 0x01
    4212:	22 0f       	add	r18, r18
    4214:	22 0f       	add	r18, r18
    4216:	22 0f       	add	r18, r18
    4218:	89 2f       	mov	r24, r25
    421a:	82 95       	swap	r24
    421c:	86 95       	lsr	r24
    421e:	87 70       	andi	r24, 0x07	; 7
    4220:	28 0f       	add	r18, r24
    4222:	20 93 f5 00 	sts	0x00F5, r18
    4226:	99 0f       	add	r25, r25
    4228:	99 0f       	add	r25, r25
    422a:	99 0f       	add	r25, r25
    422c:	90 93 f4 00 	sts	0x00F4, r25
    4230:	80 91 ef 00 	lds	r24, 0x00EF
    4234:	f8 01       	movw	r30, r16
    4236:	97 81       	ldd	r25, Z+7	; 0x07
    4238:	89 2b       	or	r24, r25
    423a:	80 93 ef 00 	sts	0x00EF, r24
    423e:	81 e0       	ldi	r24, 0x01	; 1
    4240:	83 87       	std	Z+11, r24	; 0x0b
    4242:	80 91 f4 00 	lds	r24, 0x00F4
    4246:	84 60       	ori	r24, 0x04	; 4
    4248:	80 93 f4 00 	sts	0x00F4, r24
    424c:	80 91 f0 00 	lds	r24, 0x00F0
    4250:	84 60       	ori	r24, 0x04	; 4
    4252:	80 93 f0 00 	sts	0x00F0, r24
    4256:	80 91 ef 00 	lds	r24, 0x00EF
    425a:	8f 7d       	andi	r24, 0xDF	; 223
    425c:	80 93 ef 00 	sts	0x00EF, r24
    4260:	ce ce       	rjmp	.-612    	; 0x3ffe <can_cmd+0x598>
    4262:	d8 01       	movw	r26, r16
    4264:	18 96       	adiw	r26, 0x08	; 8
    4266:	ed 91       	ld	r30, X+
    4268:	fc 91       	ld	r31, X
    426a:	19 97       	sbiw	r26, 0x09	; 9
    426c:	e9 0f       	add	r30, r25
    426e:	f1 1d       	adc	r31, r1
    4270:	80 81       	ld	r24, Z
    4272:	80 93 fa 00 	sts	0x00FA, r24
    4276:	9f 5f       	subi	r25, 0xFF	; 255
    4278:	94 17       	cp	r25, r20
    427a:	98 f3       	brcs	.-26     	; 0x4262 <can_cmd+0x7fc>
    427c:	19 82       	std	Y+1, r1	; 0x01
    427e:	1a 82       	std	Y+2, r1	; 0x02
    4280:	1b 82       	std	Y+3, r1	; 0x03
    4282:	1c 82       	std	Y+4, r1	; 0x04
    4284:	fe 01       	movw	r30, r28
    4286:	31 96       	adiw	r30, 0x01	; 1
    4288:	32 81       	ldd	r19, Z+2	; 0x02
    428a:	93 2f       	mov	r25, r19
    428c:	92 95       	swap	r25
    428e:	96 95       	lsr	r25
    4290:	97 70       	andi	r25, 0x07	; 7
    4292:	83 81       	ldd	r24, Z+3	; 0x03
    4294:	88 0f       	add	r24, r24
    4296:	88 0f       	add	r24, r24
    4298:	88 0f       	add	r24, r24
    429a:	98 0f       	add	r25, r24
    429c:	90 93 f7 00 	sts	0x00F7, r25
    42a0:	21 81       	ldd	r18, Z+1	; 0x01
    42a2:	82 2f       	mov	r24, r18
    42a4:	82 95       	swap	r24
    42a6:	86 95       	lsr	r24
    42a8:	87 70       	andi	r24, 0x07	; 7
    42aa:	33 0f       	add	r19, r19
    42ac:	33 0f       	add	r19, r19
    42ae:	33 0f       	add	r19, r19
    42b0:	83 0f       	add	r24, r19
    42b2:	80 93 f6 00 	sts	0x00F6, r24
    42b6:	99 81       	ldd	r25, Y+1	; 0x01
    42b8:	22 0f       	add	r18, r18
    42ba:	22 0f       	add	r18, r18
    42bc:	22 0f       	add	r18, r18
    42be:	89 2f       	mov	r24, r25
    42c0:	82 95       	swap	r24
    42c2:	86 95       	lsr	r24
    42c4:	87 70       	andi	r24, 0x07	; 7
    42c6:	28 0f       	add	r18, r24
    42c8:	20 93 f5 00 	sts	0x00F5, r18
    42cc:	99 0f       	add	r25, r25
    42ce:	99 0f       	add	r25, r25
    42d0:	99 0f       	add	r25, r25
    42d2:	90 93 f4 00 	sts	0x00F4, r25
    42d6:	80 91 ef 00 	lds	r24, 0x00EF
    42da:	48 2b       	or	r20, r24
    42dc:	40 93 ef 00 	sts	0x00EF, r20
    42e0:	81 e0       	ldi	r24, 0x01	; 1
    42e2:	f8 01       	movw	r30, r16
    42e4:	83 87       	std	Z+11, r24	; 0x0b
    42e6:	80 91 f4 00 	lds	r24, 0x00F4
    42ea:	84 60       	ori	r24, 0x04	; 4
    42ec:	80 93 f4 00 	sts	0x00F4, r24
    42f0:	80 91 f0 00 	lds	r24, 0x00F0
    42f4:	84 60       	ori	r24, 0x04	; 4
    42f6:	80 93 f0 00 	sts	0x00F0, r24
    42fa:	80 91 ef 00 	lds	r24, 0x00EF
    42fe:	80 62       	ori	r24, 0x20	; 32
    4300:	80 93 ef 00 	sts	0x00EF, r24
    4304:	80 91 f4 00 	lds	r24, 0x00F4
    4308:	8e 7f       	andi	r24, 0xFE	; 254
    430a:	7c ce       	rjmp	.-776    	; 0x4004 <can_cmd+0x59e>
    430c:	d8 01       	movw	r26, r16
    430e:	1c 96       	adiw	r26, 0x0c	; 12
    4310:	8c 91       	ld	r24, X
    4312:	f8 01       	movw	r30, r16
    4314:	33 96       	adiw	r30, 0x03	; 3
    4316:	88 23       	and	r24, r24
    4318:	91 f1       	breq	.+100    	; 0x437e <can_cmd+0x918>
    431a:	32 81       	ldd	r19, Z+2	; 0x02
    431c:	93 2f       	mov	r25, r19
    431e:	92 95       	swap	r25
    4320:	96 95       	lsr	r25
    4322:	97 70       	andi	r25, 0x07	; 7
    4324:	83 81       	ldd	r24, Z+3	; 0x03
    4326:	88 0f       	add	r24, r24
    4328:	88 0f       	add	r24, r24
    432a:	88 0f       	add	r24, r24
    432c:	98 0f       	add	r25, r24
    432e:	90 93 f3 00 	sts	0x00F3, r25
    4332:	21 81       	ldd	r18, Z+1	; 0x01
    4334:	82 2f       	mov	r24, r18
    4336:	82 95       	swap	r24
    4338:	86 95       	lsr	r24
    433a:	87 70       	andi	r24, 0x07	; 7
    433c:	33 0f       	add	r19, r19
    433e:	33 0f       	add	r19, r19
    4340:	33 0f       	add	r19, r19
    4342:	83 0f       	add	r24, r19
    4344:	80 93 f2 00 	sts	0x00F2, r24
    4348:	f8 01       	movw	r30, r16
    434a:	93 81       	ldd	r25, Z+3	; 0x03
    434c:	22 0f       	add	r18, r18
    434e:	22 0f       	add	r18, r18
    4350:	22 0f       	add	r18, r18
    4352:	89 2f       	mov	r24, r25
    4354:	82 95       	swap	r24
    4356:	86 95       	lsr	r24
    4358:	87 70       	andi	r24, 0x07	; 7
    435a:	28 0f       	add	r18, r24
    435c:	20 93 f1 00 	sts	0x00F1, r18
    4360:	99 0f       	add	r25, r25
    4362:	99 0f       	add	r25, r25
    4364:	99 0f       	add	r25, r25
    4366:	90 93 f0 00 	sts	0x00F0, r25
    436a:	80 91 ef 00 	lds	r24, 0x00EF
    436e:	80 61       	ori	r24, 0x10	; 16
    4370:	80 93 ef 00 	sts	0x00EF, r24
    4374:	d8 01       	movw	r26, r16
    4376:	17 96       	adiw	r26, 0x07	; 7
    4378:	4c 91       	ld	r20, X
    437a:	90 e0       	ldi	r25, 0x00	; 0
    437c:	22 c0       	rjmp	.+68     	; 0x43c2 <can_cmd+0x95c>
    437e:	d8 01       	movw	r26, r16
    4380:	13 96       	adiw	r26, 0x03	; 3
    4382:	2c 91       	ld	r18, X
    4384:	81 81       	ldd	r24, Z+1	; 0x01
    4386:	82 95       	swap	r24
    4388:	88 0f       	add	r24, r24
    438a:	80 7e       	andi	r24, 0xE0	; 224
    438c:	92 2f       	mov	r25, r18
    438e:	96 95       	lsr	r25
    4390:	96 95       	lsr	r25
    4392:	96 95       	lsr	r25
    4394:	89 0f       	add	r24, r25
    4396:	80 93 f3 00 	sts	0x00F3, r24
    439a:	22 95       	swap	r18
    439c:	22 0f       	add	r18, r18
    439e:	20 7e       	andi	r18, 0xE0	; 224
    43a0:	20 93 f2 00 	sts	0x00F2, r18
    43a4:	80 91 ef 00 	lds	r24, 0x00EF
    43a8:	8f 7e       	andi	r24, 0xEF	; 239
    43aa:	e2 cf       	rjmp	.-60     	; 0x4370 <can_cmd+0x90a>
    43ac:	d8 01       	movw	r26, r16
    43ae:	18 96       	adiw	r26, 0x08	; 8
    43b0:	ed 91       	ld	r30, X+
    43b2:	fc 91       	ld	r31, X
    43b4:	19 97       	sbiw	r26, 0x09	; 9
    43b6:	e9 0f       	add	r30, r25
    43b8:	f1 1d       	adc	r31, r1
    43ba:	80 81       	ld	r24, Z
    43bc:	80 93 fa 00 	sts	0x00FA, r24
    43c0:	9f 5f       	subi	r25, 0xFF	; 255
    43c2:	94 17       	cp	r25, r20
    43c4:	98 f3       	brcs	.-26     	; 0x43ac <can_cmd+0x946>
    43c6:	8f ef       	ldi	r24, 0xFF	; 255
    43c8:	9f ef       	ldi	r25, 0xFF	; 255
    43ca:	af ef       	ldi	r26, 0xFF	; 255
    43cc:	bf ef       	ldi	r27, 0xFF	; 255
    43ce:	89 83       	std	Y+1, r24	; 0x01
    43d0:	9a 83       	std	Y+2, r25	; 0x02
    43d2:	ab 83       	std	Y+3, r26	; 0x03
    43d4:	bc 83       	std	Y+4, r27	; 0x04
    43d6:	fe 01       	movw	r30, r28
    43d8:	31 96       	adiw	r30, 0x01	; 1
    43da:	32 81       	ldd	r19, Z+2	; 0x02
    43dc:	93 2f       	mov	r25, r19
    43de:	92 95       	swap	r25
    43e0:	96 95       	lsr	r25
    43e2:	97 70       	andi	r25, 0x07	; 7
    43e4:	83 81       	ldd	r24, Z+3	; 0x03
    43e6:	88 0f       	add	r24, r24
    43e8:	88 0f       	add	r24, r24
    43ea:	88 0f       	add	r24, r24
    43ec:	98 0f       	add	r25, r24
    43ee:	90 93 f7 00 	sts	0x00F7, r25
    43f2:	21 81       	ldd	r18, Z+1	; 0x01
    43f4:	82 2f       	mov	r24, r18
    43f6:	82 95       	swap	r24
    43f8:	86 95       	lsr	r24
    43fa:	87 70       	andi	r24, 0x07	; 7
    43fc:	33 0f       	add	r19, r19
    43fe:	33 0f       	add	r19, r19
    4400:	33 0f       	add	r19, r19
    4402:	83 0f       	add	r24, r19
    4404:	80 93 f6 00 	sts	0x00F6, r24
    4408:	99 81       	ldd	r25, Y+1	; 0x01
    440a:	22 0f       	add	r18, r18
    440c:	22 0f       	add	r18, r18
    440e:	22 0f       	add	r18, r18
    4410:	89 2f       	mov	r24, r25
    4412:	82 95       	swap	r24
    4414:	86 95       	lsr	r24
    4416:	87 70       	andi	r24, 0x07	; 7
    4418:	28 0f       	add	r18, r24
    441a:	20 93 f5 00 	sts	0x00F5, r18
    441e:	99 0f       	add	r25, r25
    4420:	99 0f       	add	r25, r25
    4422:	99 0f       	add	r25, r25
    4424:	90 93 f4 00 	sts	0x00F4, r25
    4428:	80 91 ef 00 	lds	r24, 0x00EF
    442c:	48 2b       	or	r20, r24
    442e:	40 93 ef 00 	sts	0x00EF, r20
    4432:	81 e0       	ldi	r24, 0x01	; 1
    4434:	f8 01       	movw	r30, r16
    4436:	83 87       	std	Z+11, r24	; 0x0b
    4438:	80 91 f4 00 	lds	r24, 0x00F4
    443c:	84 60       	ori	r24, 0x04	; 4
    443e:	80 93 f4 00 	sts	0x00F4, r24
    4442:	80 91 f0 00 	lds	r24, 0x00F0
    4446:	84 60       	ori	r24, 0x04	; 4
    4448:	80 93 f0 00 	sts	0x00F0, r24
    444c:	80 91 ef 00 	lds	r24, 0x00EF
    4450:	80 62       	ori	r24, 0x20	; 32
    4452:	04 cf       	rjmp	.-504    	; 0x425c <can_cmd+0x7f6>
    4454:	d8 01       	movw	r26, r16
    4456:	1a 96       	adiw	r26, 0x0a	; 10
    4458:	1c 92       	st	X, r1
    445a:	34 cc       	rjmp	.-1944   	; 0x3cc4 <can_cmd+0x25e>
    445c:	8f e1       	ldi	r24, 0x1F	; 31
    445e:	f8 01       	movw	r30, r16
    4460:	82 87       	std	Z+10, r24	; 0x0a
    4462:	8f ef       	ldi	r24, 0xFF	; 255
    4464:	24 96       	adiw	r28, 0x04	; 4
    4466:	e4 e0       	ldi	r30, 0x04	; 4
    4468:	0c 94 78 2a 	jmp	0x54f0	; 0x54f0 <__epilogue_restores__+0x1c>

0000446c <can_init>:
    446c:	0e 94 93 1c 	call	0x3926	; 0x3926 <can_fixed_baudrate>
    4470:	88 23       	and	r24, r24
    4472:	41 f0       	breq	.+16     	; 0x4484 <can_init+0x18>
    4474:	0e 94 d3 1a 	call	0x35a6	; 0x35a6 <can_clear_all_mob>
    4478:	80 91 d8 00 	lds	r24, 0x00D8
    447c:	82 60       	ori	r24, 0x02	; 2
    447e:	80 93 d8 00 	sts	0x00D8, r24
    4482:	81 e0       	ldi	r24, 0x01	; 1
    4484:	08 95       	ret

00004486 <init_can_data_mobs>:

U8 tx_remote_buffer[8];
st_cmd_t tx_remote_msg;

void init_can_data_mobs(void)
{
    4486:	a6 ea       	ldi	r26, 0xA6	; 166
    4488:	b8 e0       	ldi	r27, 0x08	; 8
    448a:	41 e7       	ldi	r20, 0x71	; 113
    448c:	58 e0       	ldi	r21, 0x08	; 8
    448e:	20 e0       	ldi	r18, 0x00	; 0
    4490:	30 e0       	ldi	r19, 0x00	; 0
    U8 i,j;

    for (i=0; i<num_of_response_mobs; i++) {
        response_msg[i].pt_data = &response_buffer[i][0];
    4492:	11 96       	adiw	r26, 0x01	; 1
    4494:	5c 93       	st	X, r21
    4496:	4e 93       	st	-X, r20
        response_msg[i].status = 0;
    4498:	12 96       	adiw	r26, 0x02	; 2
    449a:	1c 92       	st	X, r1
    449c:	12 97       	sbiw	r26, 0x02	; 2
    449e:	f9 01       	movw	r30, r18
    44a0:	83 e0       	ldi	r24, 0x03	; 3
    44a2:	ee 0f       	add	r30, r30
    44a4:	ff 1f       	adc	r31, r31
    44a6:	8a 95       	dec	r24
    44a8:	e1 f7       	brne	.-8      	; 0x44a2 <init_can_data_mobs+0x1c>
    44aa:	ef 58       	subi	r30, 0x8F	; 143
    44ac:	f7 4f       	sbci	r31, 0xF7	; 247
    44ae:	80 e0       	ldi	r24, 0x00	; 0
        for (j=0; j<9; j++) {
                response_buffer[i][j] = 0;
    44b0:	11 92       	st	Z+, r1
    U8 i,j;

    for (i=0; i<num_of_response_mobs; i++) {
        response_msg[i].pt_data = &response_buffer[i][0];
        response_msg[i].status = 0;
        for (j=0; j<9; j++) {
    44b2:	8f 5f       	subi	r24, 0xFF	; 255
    44b4:	89 30       	cpi	r24, 0x09	; 9
    44b6:	e1 f7       	brne	.-8      	; 0x44b0 <init_can_data_mobs+0x2a>
    44b8:	2f 5f       	subi	r18, 0xFF	; 255
    44ba:	3f 4f       	sbci	r19, 0xFF	; 255
    44bc:	1d 96       	adiw	r26, 0x0d	; 13
    44be:	48 5f       	subi	r20, 0xF8	; 248
    44c0:	5f 4f       	sbci	r21, 0xFF	; 255

void init_can_data_mobs(void)
{
    U8 i,j;

    for (i=0; i<num_of_response_mobs; i++) {
    44c2:	22 30       	cpi	r18, 0x02	; 2
    44c4:	31 05       	cpc	r19, r1
    44c6:	29 f7       	brne	.-54     	; 0x4492 <init_can_data_mobs+0xc>
        response_msg[i].status = 0;
        for (j=0; j<9; j++) {
                response_buffer[i][j] = 0;
        }
    }
}
    44c8:	08 95       	ret

000044ca <can_data_mob_setup>:

void can_data_mob_setup(U8 mob_num)
{
    44ca:	cf 93       	push	r28
    44cc:	df 93       	push	r29
    response_msg[mob_num].id.std = 128;
    44ce:	48 2f       	mov	r20, r24
    44d0:	50 e0       	ldi	r21, 0x00	; 0
    44d2:	2d e0       	ldi	r18, 0x0D	; 13
    44d4:	30 e0       	ldi	r19, 0x00	; 0
    44d6:	42 9f       	mul	r20, r18
    44d8:	f0 01       	movw	r30, r0
    44da:	43 9f       	mul	r20, r19
    44dc:	f0 0d       	add	r31, r0
    44de:	52 9f       	mul	r21, r18
    44e0:	f0 0d       	add	r31, r0
    44e2:	11 24       	eor	r1, r1
    44e4:	e2 56       	subi	r30, 0x62	; 98
    44e6:	f7 4f       	sbci	r31, 0xF7	; 247
    44e8:	20 e8       	ldi	r18, 0x80	; 128
    44ea:	30 e0       	ldi	r19, 0x00	; 0
    44ec:	34 83       	std	Z+4, r19	; 0x04
    44ee:	23 83       	std	Z+3, r18	; 0x03
    response_msg[mob_num].ctrl.ide = 0;
    44f0:	14 86       	std	Z+12, r1	; 0x0c
    response_msg[mob_num].ctrl.rtr = 0;
    44f2:	13 86       	std	Z+11, r1	; 0x0b
    response_msg[mob_num].dlc = 8;
    44f4:	98 e0       	ldi	r25, 0x08	; 8
    44f6:	97 83       	std	Z+7, r25	; 0x07
    response_msg[mob_num].cmd = CMD_RX_DATA_MASKED;
    44f8:	28 e0       	ldi	r18, 0x08	; 8
    44fa:	30 e0       	ldi	r19, 0x00	; 0
    44fc:	32 83       	std	Z+2, r19	; 0x02
    44fe:	21 83       	std	Z+1, r18	; 0x01
    
    while (can_cmd(&response_msg[mob_num]) != CAN_CMD_ACCEPTED);
    4500:	9d e0       	ldi	r25, 0x0D	; 13
    4502:	89 9f       	mul	r24, r25
    4504:	e0 01       	movw	r28, r0
    4506:	11 24       	eor	r1, r1
    4508:	c2 56       	subi	r28, 0x62	; 98
    450a:	d7 4f       	sbci	r29, 0xF7	; 247
    450c:	ce 01       	movw	r24, r28
    450e:	0e 94 33 1d 	call	0x3a66	; 0x3a66 <can_cmd>
    4512:	88 23       	and	r24, r24
    4514:	d9 f7       	brne	.-10     	; 0x450c <can_data_mob_setup+0x42>
}
    4516:	df 91       	pop	r29
    4518:	cf 91       	pop	r28
    451a:	08 95       	ret

0000451c <can_send>:

/* funktion til at sende en besked der er 1 byte lang */
void can_send(U8 msg_id, U8 msg, U8 dlc)
{
    tx_remote_buffer[0] = msg; 
    451c:	60 93 69 08 	sts	0x0869, r22

    tx_remote_msg.id.std = msg_id;
    4520:	80 93 84 08 	sts	0x0884, r24
    4524:	10 92 85 08 	sts	0x0885, r1
    tx_remote_msg.ctrl.ide = 0;
    4528:	10 92 8d 08 	sts	0x088D, r1
    tx_remote_msg.ctrl.rtr = 1;
    452c:	81 e0       	ldi	r24, 0x01	; 1
    452e:	80 93 8c 08 	sts	0x088C, r24
    tx_remote_msg.dlc = dlc;
    4532:	40 93 88 08 	sts	0x0888, r20
    tx_remote_msg.cmd = CMD_TX_DATA;
    4536:	82 e0       	ldi	r24, 0x02	; 2
    4538:	90 e0       	ldi	r25, 0x00	; 0
    453a:	90 93 83 08 	sts	0x0883, r25
    453e:	80 93 82 08 	sts	0x0882, r24

    while (can_cmd(&tx_remote_msg) != CAN_CMD_ACCEPTED);
    4542:	81 e8       	ldi	r24, 0x81	; 129
    4544:	98 e0       	ldi	r25, 0x08	; 8
    4546:	0e 94 33 1d 	call	0x3a66	; 0x3a66 <can_cmd>
    454a:	88 23       	and	r24, r24
    454c:	d1 f7       	brne	.-12     	; 0x4542 <can_send+0x26>

    while (can_get_status(&tx_remote_msg) == CAN_STATUS_NOT_COMPLETED);
    454e:	81 e8       	ldi	r24, 0x81	; 129
    4550:	98 e0       	ldi	r25, 0x08	; 8
    4552:	0e 94 a0 1c 	call	0x3940	; 0x3940 <can_get_status>
    4556:	81 30       	cpi	r24, 0x01	; 1
    4558:	d1 f3       	breq	.-12     	; 0x454e <can_send+0x32>
}
    455a:	08 95       	ret

0000455c <__vector_21>:
	}
}

/* Funktion til at læse data fra ECU */
ISR(USART0_RX_vect)
{
    455c:	1f 92       	push	r1
    455e:	0f 92       	push	r0
    4560:	0f b6       	in	r0, 0x3f	; 63
    4562:	0f 92       	push	r0
    4564:	0b b6       	in	r0, 0x3b	; 59
    4566:	0f 92       	push	r0
    4568:	11 24       	eor	r1, r1
    456a:	2f 93       	push	r18
    456c:	3f 93       	push	r19
    456e:	8f 93       	push	r24
    4570:	ef 93       	push	r30
    4572:	ff 93       	push	r31
	if (RecIndex <= 114) {			// Der skal modtages 228 bytes fra ECU'en
    4574:	20 91 2b 01 	lds	r18, 0x012B
    4578:	30 91 2c 01 	lds	r19, 0x012C
    457c:	23 37       	cpi	r18, 0x73	; 115
    457e:	31 05       	cpc	r19, r1
    4580:	64 f4       	brge	.+24     	; 0x459a <__vector_21+0x3e>
		EcuData[RecIndex] = UDR0;	// Gem data fra ECU
    4582:	80 91 c6 00 	lds	r24, 0x00C6
    4586:	f9 01       	movw	r30, r18
    4588:	ef 57       	subi	r30, 0x7F	; 127
    458a:	fc 4f       	sbci	r31, 0xFC	; 252
    458c:	80 83       	st	Z, r24
		RecIndex++;
    458e:	2f 5f       	subi	r18, 0xFF	; 255
    4590:	3f 4f       	sbci	r19, 0xFF	; 255
    4592:	30 93 2c 01 	sts	0x012C, r19
    4596:	20 93 2b 01 	sts	0x012B, r18
	}
}
    459a:	ff 91       	pop	r31
    459c:	ef 91       	pop	r30
    459e:	8f 91       	pop	r24
    45a0:	3f 91       	pop	r19
    45a2:	2f 91       	pop	r18
    45a4:	0f 90       	pop	r0
    45a6:	0b be       	out	0x3b, r0	; 59
    45a8:	0f 90       	pop	r0
    45aa:	0f be       	out	0x3f, r0	; 63
    45ac:	0f 90       	pop	r0
    45ae:	1f 90       	pop	r1
    45b0:	18 95       	reti

000045b2 <__vector_16>:
int RecIndex = 0;	// Bruges til at tælle hvor mange bytes der er modtaget fra ECU'en
int testvar = 0;	// Tmp var for at køre TIMER0_COMP_vect langsommere

/* Funktion der sender data req til ECU */
ISR(TIMER0_COMP_vect)
{
    45b2:	1f 92       	push	r1
    45b4:	0f 92       	push	r0
    45b6:	0f b6       	in	r0, 0x3f	; 63
    45b8:	0f 92       	push	r0
    45ba:	0b b6       	in	r0, 0x3b	; 59
    45bc:	0f 92       	push	r0
    45be:	11 24       	eor	r1, r1
    45c0:	2f 93       	push	r18
    45c2:	3f 93       	push	r19
    45c4:	4f 93       	push	r20
    45c6:	5f 93       	push	r21
    45c8:	6f 93       	push	r22
    45ca:	7f 93       	push	r23
    45cc:	8f 93       	push	r24
    45ce:	9f 93       	push	r25
    45d0:	af 93       	push	r26
    45d2:	bf 93       	push	r27
    45d4:	cf 93       	push	r28
    45d6:	df 93       	push	r29
    45d8:	ef 93       	push	r30
    45da:	ff 93       	push	r31
	int i;
	testvar++;
    45dc:	80 91 2d 01 	lds	r24, 0x012D
    45e0:	90 91 2e 01 	lds	r25, 0x012E
    45e4:	01 96       	adiw	r24, 0x01	; 1
    45e6:	90 93 2e 01 	sts	0x012E, r25
    45ea:	80 93 2d 01 	sts	0x012D, r24
	if (testvar == 4) {
    45ee:	04 97       	sbiw	r24, 0x04	; 4
    45f0:	a1 f5       	brne	.+104    	; 0x465a <__vector_16+0xa8>
		if (RecIndex != 114 && EcuErrorTmp < 5) { // Test for fejl
    45f2:	20 91 2b 01 	lds	r18, 0x012B
    45f6:	30 91 2c 01 	lds	r19, 0x012C
    45fa:	22 37       	cpi	r18, 0x72	; 114
    45fc:	31 05       	cpc	r19, r1
    45fe:	69 f0       	breq	.+26     	; 0x461a <__vector_16+0x68>
    4600:	80 91 30 01 	lds	r24, 0x0130
    4604:	85 30       	cpi	r24, 0x05	; 5
    4606:	48 f4       	brcc	.+18     	; 0x461a <__vector_16+0x68>
			EcuErrorTmp++;
    4608:	8f 5f       	subi	r24, 0xFF	; 255
    460a:	80 93 30 01 	sts	0x0130, r24
			if (EcuErrorTmp == 5) {
    460e:	85 30       	cpi	r24, 0x05	; 5
    4610:	81 f4       	brne	.+32     	; 0x4632 <__vector_16+0x80>
				EcuCommError = 1;
    4612:	81 e0       	ldi	r24, 0x01	; 1
    4614:	80 93 2f 01 	sts	0x012F, r24
    4618:	0c c0       	rjmp	.+24     	; 0x4632 <__vector_16+0x80>
			}
		} else if (EcuErrorTmp > 0 && RecIndex == 114) {
    461a:	80 91 30 01 	lds	r24, 0x0130
    461e:	88 23       	and	r24, r24
    4620:	41 f0       	breq	.+16     	; 0x4632 <__vector_16+0x80>
    4622:	22 37       	cpi	r18, 0x72	; 114
    4624:	31 05       	cpc	r19, r1
    4626:	29 f4       	brne	.+10     	; 0x4632 <__vector_16+0x80>
			EcuErrorTmp--;
    4628:	81 50       	subi	r24, 0x01	; 1
    462a:	80 93 30 01 	sts	0x0130, r24
			EcuCommError = 0;
    462e:	10 92 2f 01 	sts	0x012F, r1
		}
		testvar=0;
    4632:	10 92 2e 01 	sts	0x012E, r1
    4636:	10 92 2d 01 	sts	0x012D, r1
		RecIndex = 0;
    463a:	10 92 2c 01 	sts	0x012C, r1
    463e:	10 92 2b 01 	sts	0x012B, r1
    4642:	c0 e1       	ldi	r28, 0x10	; 16
    4644:	d1 e0       	ldi	r29, 0x01	; 1
		for (i=0;i<=9;i++) {		// Send data req streng
			USART0_Transmit(ecu_data[i]); 
    4646:	89 91       	ld	r24, Y+
    4648:	99 27       	eor	r25, r25
    464a:	87 fd       	sbrc	r24, 7
    464c:	90 95       	com	r25
    464e:	0e 94 8d 02 	call	0x51a	; 0x51a <USART0_Transmit>
			EcuErrorTmp--;
			EcuCommError = 0;
		}
		testvar=0;
		RecIndex = 0;
		for (i=0;i<=9;i++) {		// Send data req streng
    4652:	81 e0       	ldi	r24, 0x01	; 1
    4654:	ca 31       	cpi	r28, 0x1A	; 26
    4656:	d8 07       	cpc	r29, r24
    4658:	b1 f7       	brne	.-20     	; 0x4646 <__vector_16+0x94>
			USART0_Transmit(ecu_data[i]); 
		}
	}
}
    465a:	ff 91       	pop	r31
    465c:	ef 91       	pop	r30
    465e:	df 91       	pop	r29
    4660:	cf 91       	pop	r28
    4662:	bf 91       	pop	r27
    4664:	af 91       	pop	r26
    4666:	9f 91       	pop	r25
    4668:	8f 91       	pop	r24
    466a:	7f 91       	pop	r23
    466c:	6f 91       	pop	r22
    466e:	5f 91       	pop	r21
    4670:	4f 91       	pop	r20
    4672:	3f 91       	pop	r19
    4674:	2f 91       	pop	r18
    4676:	0f 90       	pop	r0
    4678:	0b be       	out	0x3b, r0	; 59
    467a:	0f 90       	pop	r0
    467c:	0f be       	out	0x3f, r0	; 63
    467e:	0f 90       	pop	r0
    4680:	1f 90       	pop	r1
    4682:	18 95       	reti

00004684 <send_status>:
#include "ecu.h"
#include "error.h"

void send_status( void )
{
	USART1_Transmit((U8)123);	// Pakke start
    4684:	8b e7       	ldi	r24, 0x7B	; 123
    4686:	90 e0       	ldi	r25, 0x00	; 0
    4688:	0e 94 95 02 	call	0x52a	; 0x52a <USART1_Transmit>
	USART1_Transmit((U8)255);
    468c:	8f ef       	ldi	r24, 0xFF	; 255
    468e:	90 e0       	ldi	r25, 0x00	; 0
    4690:	0e 94 95 02 	call	0x52a	; 0x52a <USART1_Transmit>
	USART1_Transmit((U8)10);
    4694:	8a e0       	ldi	r24, 0x0A	; 10
    4696:	90 e0       	ldi	r25, 0x00	; 0
    4698:	0e 94 95 02 	call	0x52a	; 0x52a <USART1_Transmit>
	USART1_Transmit((U8)EcuCommError);	// Ecu error var
    469c:	80 91 2f 01 	lds	r24, 0x012F
    46a0:	90 e0       	ldi	r25, 0x00	; 0
    46a2:	0e 94 95 02 	call	0x52a	; 0x52a <USART1_Transmit>
	USART1_Transmit((U8)EcuData[RPMSTART]);		// Send RPM
    46a6:	80 91 b7 03 	lds	r24, 0x03B7
    46aa:	90 e0       	ldi	r25, 0x00	; 0
    46ac:	0e 94 95 02 	call	0x52a	; 0x52a <USART1_Transmit>
	USART1_Transmit((U8)EcuData[RPMSTART+RPMLENGTH-1]);
    46b0:	80 91 b8 03 	lds	r24, 0x03B8
    46b4:	90 e0       	ldi	r25, 0x00	; 0
    46b6:	0e 94 95 02 	call	0x52a	; 0x52a <USART1_Transmit>
	USART1_Transmit((U8)EcuData[SPEEDSTART]);	// Send Hastighed
    46ba:	80 91 bf 03 	lds	r24, 0x03BF
    46be:	90 e0       	ldi	r25, 0x00	; 0
    46c0:	0e 94 95 02 	call	0x52a	; 0x52a <USART1_Transmit>
	USART1_Transmit((U8)EcuData[SPEEDSTART+SPEEDLENGTH-1]);
    46c4:	80 91 c0 03 	lds	r24, 0x03C0
    46c8:	90 e0       	ldi	r25, 0x00	; 0
    46ca:	0e 94 95 02 	call	0x52a	; 0x52a <USART1_Transmit>
	USART1_Transmit((U8)EcuData[46]);	// Vand temp
    46ce:	80 91 af 03 	lds	r24, 0x03AF
    46d2:	90 e0       	ldi	r25, 0x00	; 0
    46d4:	0e 94 95 02 	call	0x52a	; 0x52a <USART1_Transmit>
	USART1_Transmit((U8)EcuData[47]);
    46d8:	80 91 b0 03 	lds	r24, 0x03B0
    46dc:	90 e0       	ldi	r25, 0x00	; 0
    46de:	0e 94 95 02 	call	0x52a	; 0x52a <USART1_Transmit>
	USART1_Transmit((U8)EcuData[48]);	// Luft temp
    46e2:	80 91 b1 03 	lds	r24, 0x03B1
    46e6:	90 e0       	ldi	r25, 0x00	; 0
    46e8:	0e 94 95 02 	call	0x52a	; 0x52a <USART1_Transmit>
	USART1_Transmit((U8)EcuData[49]);
    46ec:	80 91 b2 03 	lds	r24, 0x03B2
    46f0:	90 e0       	ldi	r25, 0x00	; 0
    46f2:	0e 94 95 02 	call	0x52a	; 0x52a <USART1_Transmit>
	USART1_Transmit((U8)EcuData[66]);	// Batt V
    46f6:	80 91 c3 03 	lds	r24, 0x03C3
    46fa:	90 e0       	ldi	r25, 0x00	; 0
    46fc:	0e 94 95 02 	call	0x52a	; 0x52a <USART1_Transmit>
	USART1_Transmit((U8)EcuData[67]);		
    4700:	80 91 c4 03 	lds	r24, 0x03C4
    4704:	90 e0       	ldi	r25, 0x00	; 0
    4706:	0e 94 95 02 	call	0x52a	; 0x52a <USART1_Transmit>
	USART1_Transmit((U8)EcuData[POTSTART]);	// Pot 
    470a:	80 91 b3 03 	lds	r24, 0x03B3
    470e:	90 e0       	ldi	r25, 0x00	; 0
    4710:	0e 94 95 02 	call	0x52a	; 0x52a <USART1_Transmit>
	USART1_Transmit((U8)EcuData[POTSTART+POTLENGTH-1]);		
    4714:	80 91 b4 03 	lds	r24, 0x03B4
    4718:	90 e0       	ldi	r25, 0x00	; 0
    471a:	0e 94 95 02 	call	0x52a	; 0x52a <USART1_Transmit>
	USART1_Transmit((U8)EcuData[MAPSTART]);	// Map 
    471e:	80 91 c1 03 	lds	r24, 0x03C1
    4722:	90 e0       	ldi	r25, 0x00	; 0
    4724:	0e 94 95 02 	call	0x52a	; 0x52a <USART1_Transmit>
	USART1_Transmit((U8)EcuData[MAPSTART+MAPLENGTH-1]);	
    4728:	80 91 c2 03 	lds	r24, 0x03C2
    472c:	90 e0       	ldi	r25, 0x00	; 0
    472e:	0e 94 95 02 	call	0x52a	; 0x52a <USART1_Transmit>
	USART1_Transmit((U8)EcuData[96]);	// gX (acc)
    4732:	80 91 e1 03 	lds	r24, 0x03E1
    4736:	90 e0       	ldi	r25, 0x00	; 0
    4738:	0e 94 95 02 	call	0x52a	; 0x52a <USART1_Transmit>
	USART1_Transmit((U8)EcuData[97]);		
    473c:	80 91 e2 03 	lds	r24, 0x03E2
    4740:	90 e0       	ldi	r25, 0x00	; 0
    4742:	0e 94 95 02 	call	0x52a	; 0x52a <USART1_Transmit>
	USART1_Transmit((U8)EcuData[98]);	// gy (acc)
    4746:	80 91 e3 03 	lds	r24, 0x03E3
    474a:	90 e0       	ldi	r25, 0x00	; 0
    474c:	0e 94 95 02 	call	0x52a	; 0x52a <USART1_Transmit>
	USART1_Transmit((U8)EcuData[99]);		
    4750:	80 91 e4 03 	lds	r24, 0x03E4
    4754:	90 e0       	ldi	r25, 0x00	; 0
    4756:	0e 94 95 02 	call	0x52a	; 0x52a <USART1_Transmit>
	USART1_Transmit((U8)EcuData[100]);	// gz (acc)
    475a:	80 91 e5 03 	lds	r24, 0x03E5
    475e:	90 e0       	ldi	r25, 0x00	; 0
    4760:	0e 94 95 02 	call	0x52a	; 0x52a <USART1_Transmit>
	USART1_Transmit((U8)EcuData[101]);		
    4764:	80 91 e6 03 	lds	r24, 0x03E6
    4768:	90 e0       	ldi	r25, 0x00	; 0
    476a:	0e 94 95 02 	call	0x52a	; 0x52a <USART1_Transmit>
	USART1_Transmit((U8)EcuData[68]);	// lambda
    476e:	80 91 c5 03 	lds	r24, 0x03C5
    4772:	90 e0       	ldi	r25, 0x00	; 0
    4774:	0e 94 95 02 	call	0x52a	; 0x52a <USART1_Transmit>
	USART1_Transmit((U8)EcuData[69]);		
    4778:	80 91 c6 03 	lds	r24, 0x03C6
    477c:	90 e0       	ldi	r25, 0x00	; 0
    477e:	0e 94 95 02 	call	0x52a	; 0x52a <USART1_Transmit>
	USART1_Transmit((U8)EcuData[78]);	// injectorTime
    4782:	80 91 cf 03 	lds	r24, 0x03CF
    4786:	90 e0       	ldi	r25, 0x00	; 0
    4788:	0e 94 95 02 	call	0x52a	; 0x52a <USART1_Transmit>
	USART1_Transmit((U8)EcuData[79]);		
    478c:	80 91 d0 03 	lds	r24, 0x03D0
    4790:	90 e0       	ldi	r25, 0x00	; 0
    4792:	0e 94 95 02 	call	0x52a	; 0x52a <USART1_Transmit>
	USART1_Transmit((U8)EcuData[82]);	// ignitionTime
    4796:	80 91 d3 03 	lds	r24, 0x03D3
    479a:	90 e0       	ldi	r25, 0x00	; 0
    479c:	0e 94 95 02 	call	0x52a	; 0x52a <USART1_Transmit>
	USART1_Transmit((U8)EcuData[83]);		
    47a0:	80 91 d4 03 	lds	r24, 0x03D4
    47a4:	90 e0       	ldi	r25, 0x00	; 0
    47a6:	0e 94 95 02 	call	0x52a	; 0x52a <USART1_Transmit>
	USART1_Transmit((U8)EcuData[74]);	// engine load
    47aa:	80 91 cb 03 	lds	r24, 0x03CB
    47ae:	90 e0       	ldi	r25, 0x00	; 0
    47b0:	0e 94 95 02 	call	0x52a	; 0x52a <USART1_Transmit>
	USART1_Transmit((U8)EcuData[75]);		
    47b4:	80 91 cc 03 	lds	r24, 0x03CC
    47b8:	90 e0       	ldi	r25, 0x00	; 0
    47ba:	0e 94 95 02 	call	0x52a	; 0x52a <USART1_Transmit>
	USART1_Transmit((U8)EcuData[56]);	// trigger error
    47be:	80 91 b9 03 	lds	r24, 0x03B9
    47c2:	90 e0       	ldi	r25, 0x00	; 0
    47c4:	0e 94 95 02 	call	0x52a	; 0x52a <USART1_Transmit>
	USART1_Transmit((U8)EcuData[57]);		
    47c8:	80 91 ba 03 	lds	r24, 0x03BA
    47cc:	90 e0       	ldi	r25, 0x00	; 0
    47ce:	0e 94 95 02 	call	0x52a	; 0x52a <USART1_Transmit>
}
    47d2:	08 95       	ret

000047d4 <get_free_log_number>:
#if _USE_LFN
char Lfname[_MAX_LFN+1];
#endif

int get_free_log_number( DIR *dir )
{
    47d4:	0f 93       	push	r16
    47d6:	1f 93       	push	r17
    47d8:	cf 93       	push	r28
    47da:	df 93       	push	r29
    47dc:	8c 01       	movw	r16, r24
    47de:	c0 e0       	ldi	r28, 0x00	; 0
    47e0:	d0 e0       	ldi	r29, 0x00	; 0
#if _USE_LFN
	Finfo.lfname = Lfname;
	Finfo.lfsize = sizeof(Lfname);
#endif
	for(;;) {
		res = f_readdir(dir, &Finfo);
    47e2:	c8 01       	movw	r24, r16
    47e4:	65 e6       	ldi	r22, 0x65	; 101
    47e6:	73 e0       	ldi	r23, 0x03	; 3
    47e8:	0e 94 df 0a 	call	0x15be	; 0x15be <f_readdir>
		if ((res != FR_OK) || !Finfo.fname[0]) break;
    47ec:	88 23       	and	r24, r24
    47ee:	89 f4       	brne	.+34     	; 0x4812 <get_free_log_number+0x3e>
    47f0:	80 91 6e 03 	lds	r24, 0x036E
    47f4:	88 23       	and	r24, r24
    47f6:	69 f0       	breq	.+26     	; 0x4812 <get_free_log_number+0x3e>
		if ( atoi(&(Finfo.fname[0])) > maxname )
    47f8:	8e e6       	ldi	r24, 0x6E	; 110
    47fa:	93 e0       	ldi	r25, 0x03	; 3
    47fc:	0e 94 8b 2a 	call	0x5516	; 0x5516 <atoi>
    4800:	c8 17       	cp	r28, r24
    4802:	d9 07       	cpc	r29, r25
    4804:	70 f7       	brcc	.-36     	; 0x47e2 <get_free_log_number+0xe>
			maxname = atoi(&(Finfo.fname[0]));
    4806:	8e e6       	ldi	r24, 0x6E	; 110
    4808:	93 e0       	ldi	r25, 0x03	; 3
    480a:	0e 94 8b 2a 	call	0x5516	; 0x5516 <atoi>
    480e:	ec 01       	movw	r28, r24
    4810:	e8 cf       	rjmp	.-48     	; 0x47e2 <get_free_log_number+0xe>
    4812:	9e 01       	movw	r18, r28
    4814:	2f 5f       	subi	r18, 0xFF	; 255
    4816:	3f 4f       	sbci	r19, 0xFF	; 255
	}
	return maxname + 1;
}
    4818:	c9 01       	movw	r24, r18
    481a:	df 91       	pop	r29
    481c:	cf 91       	pop	r28
    481e:	1f 91       	pop	r17
    4820:	0f 91       	pop	r16
    4822:	08 95       	ret

00004824 <xputc>:

.global xputc
.func xputc
xputc:
#ifdef CR_CRLF
	cpi	r24, 10		;LF --> CRLF
    4824:	8a 30       	cpi	r24, 0x0A	; 10
	brne	1f		;
    4826:	19 f4       	brne	.+6      	; 0x482e <xputc+0xa>
	ldi	r24, 13		;
    4828:	8d e0       	ldi	r24, 0x0D	; 13
	rcall	1f		;
    482a:	01 d0       	rcall	.+2      	; 0x482e <xputc+0xa>
	ldi	r24, 10		;/
    482c:	8a e0       	ldi	r24, 0x0A	; 10
1:
#endif
	push	ZH
    482e:	ff 93       	push	r31
	push	ZL
    4830:	ef 93       	push	r30
	lds	ZL, xfunc_out+0	;Pointer to the registered output function.
    4832:	e0 91 31 01 	lds	r30, 0x0131
	lds	ZH, xfunc_out+1	;/
    4836:	f0 91 32 01 	lds	r31, 0x0132
	icall
    483a:	09 95       	icall
	pop	ZL
    483c:	ef 91       	pop	r30
	pop	ZH
    483e:	ff 91       	pop	r31
	ret
    4840:	08 95       	ret

00004842 <xputs>:

#ifdef USE_XPUTS
.global xputs
.func xputs
xputs:
	_MOVW	ZH,ZL, r25,r24	; Z = pointer to rom string
    4842:	fc 01       	movw	r30, r24
1:	_LPMI	r24
    4844:	85 91       	lpm	r24, Z+
	cpi	r24, 0
    4846:	80 30       	cpi	r24, 0x00	; 0
	breq	2f
    4848:	11 f0       	breq	.+4      	; 0x484e <xputs+0xc>
	rcall	xputc
    484a:	ec df       	rcall	.-40     	; 0x4824 <xputc>
	rjmp	1b
    484c:	fb cf       	rjmp	.-10     	; 0x4844 <xputs+0x2>
2:	ret
    484e:	08 95       	ret

00004850 <xitoa>:
#ifdef USE_XITOA
.global xitoa
.func xitoa
xitoa:
				;r25:r22 = value, r20 = base, r18 = digits
	clr	r31		;r31 = stack level
    4850:	ff 27       	eor	r31, r31
	ldi	r30, ' '	;r30 = sign
    4852:	e0 e2       	ldi	r30, 0x20	; 32
	ldi	r19, ' '	;r19 = filler
    4854:	30 e2       	ldi	r19, 0x20	; 32
	sbrs	r20, 7		;When base indicates signd format and the value
    4856:	47 ff       	sbrs	r20, 7
	rjmp	0f		;is minus, add a '-'.
    4858:	0c c0       	rjmp	.+24     	; 0x4872 <xitoa+0x22>
	neg	r20		;
    485a:	41 95       	neg	r20
	sbrs	r25, 7		;
    485c:	97 ff       	sbrs	r25, 7
	rjmp	0f		;
    485e:	09 c0       	rjmp	.+18     	; 0x4872 <xitoa+0x22>
	ldi	r30, '-'	;
    4860:	ed e2       	ldi	r30, 0x2D	; 45
	com	r22		;
    4862:	60 95       	com	r22
	com	r23		;
    4864:	70 95       	com	r23
	com	r24		;
    4866:	80 95       	com	r24
	com	r25		;
    4868:	90 95       	com	r25
	adc	r22, r1		;
    486a:	61 1d       	adc	r22, r1
	adc	r23, r1		;
    486c:	71 1d       	adc	r23, r1
	adc	r24, r1		;
    486e:	81 1d       	adc	r24, r1
	adc	r25, r1		;/
    4870:	91 1d       	adc	r25, r1
0:	sbrs	r18, 7		;When digits indicates zero filled,
    4872:	27 ff       	sbrs	r18, 7
	rjmp	1f		;filler is '0'.
    4874:	02 c0       	rjmp	.+4      	; 0x487a <xitoa+0x2a>
	neg	r18		;
    4876:	21 95       	neg	r18
	ldi	r19, '0'	;/
    4878:	30 e3       	ldi	r19, 0x30	; 48
				;----- string conversion loop
1:	ldi	r21, 32		;r26 = r25:r22 % r20
    487a:	50 e2       	ldi	r21, 0x20	; 32
	clr	r26		;r25:r22 /= r20
    487c:	aa 27       	eor	r26, r26
2:	lsl	r22		;
    487e:	66 0f       	add	r22, r22
	rol	r23		;
    4880:	77 1f       	adc	r23, r23
	rol	r24		;
    4882:	88 1f       	adc	r24, r24
	rol	r25		;
    4884:	99 1f       	adc	r25, r25
	rol	r26		;
    4886:	aa 1f       	adc	r26, r26
	cp	r26, r20	;
    4888:	a4 17       	cp	r26, r20
	brcs	3f		;
    488a:	10 f0       	brcs	.+4      	; 0x4890 <xitoa+0x40>
	sub	r26, r20	;
    488c:	a4 1b       	sub	r26, r20
	inc	r22		;
    488e:	63 95       	inc	r22
3:	dec	r21		;
    4890:	5a 95       	dec	r21
	brne	2b		;/
    4892:	a9 f7       	brne	.-22     	; 0x487e <xitoa+0x2e>
	cpi	r26, 10		;r26 is a numeral digit '0'-'F'
    4894:	aa 30       	cpi	r26, 0x0A	; 10
	brcs	4f		;
    4896:	08 f0       	brcs	.+2      	; 0x489a <xitoa+0x4a>
	subi	r26, -7		;
    4898:	a9 5f       	subi	r26, 0xF9	; 249
4:	subi	r26, -'0'	;/
    489a:	a0 5d       	subi	r26, 0xD0	; 208
	push	r26		;Stack it
    489c:	af 93       	push	r26
	inc	r31		;/
    489e:	f3 95       	inc	r31
	cp	r22, r1		;Repeat until r25:r22 gets zero
    48a0:	61 15       	cp	r22, r1
	cpc	r23, r1		;
    48a2:	71 05       	cpc	r23, r1
	cpc	r24, r1		;
    48a4:	81 05       	cpc	r24, r1
	cpc	r25, r1		;
    48a6:	91 05       	cpc	r25, r1
	brne	1b		;/
    48a8:	41 f7       	brne	.-48     	; 0x487a <xitoa+0x2a>

	cpi	r30, '-'	;Minus sign if needed
    48aa:	ed 32       	cpi	r30, 0x2D	; 45
	brne	5f		;
    48ac:	11 f4       	brne	.+4      	; 0x48b2 <xitoa+0x62>
	push	r30		;
    48ae:	ef 93       	push	r30
	inc	r31		;/
    48b0:	f3 95       	inc	r31
5:	cp	r31, r18	;Filler
    48b2:	f2 17       	cp	r31, r18
	brcc	6f		;
    48b4:	18 f4       	brcc	.+6      	; 0x48bc <xitoa+0x6c>
	push	r19		;
    48b6:	3f 93       	push	r19
	inc	r31		;
    48b8:	f3 95       	inc	r31
	rjmp	5b		;/
    48ba:	fb cf       	rjmp	.-10     	; 0x48b2 <xitoa+0x62>

6:	pop	r24		;Flush stacked digits and exit
    48bc:	8f 91       	pop	r24
	rcall	xputc		;
    48be:	b2 df       	rcall	.-156    	; 0x4824 <xputc>
	dec	r31		;
    48c0:	fa 95       	dec	r31
	brne	6b		;/
    48c2:	e1 f7       	brne	.-8      	; 0x48bc <xitoa+0x6c>

	ret
    48c4:	08 95       	ret

000048c6 <xprintf>:

#ifdef USE_XPRINTF
.global xprintf
.func xprintf
xprintf:
	push	YH
    48c6:	df 93       	push	r29
	push	YL
    48c8:	cf 93       	push	r28
	in	YL, _SFR_IO_ADDR(SPL)
    48ca:	cd b7       	in	r28, 0x3d	; 61
#ifdef SPH
	in	YH, _SFR_IO_ADDR(SPH)
    48cc:	de b7       	in	r29, 0x3e	; 62
	clr	YH
#endif
#if FLASHEND > 0x1FFFF
	adiw	YL, 6		;Y = pointer to arguments
#else
	adiw	YL, 5		;Y = pointer to arguments
    48ce:	25 96       	adiw	r28, 0x05	; 5
#endif
	ld	ZL, Y+		;Z = pointer to format string
    48d0:	e9 91       	ld	r30, Y+
	ld	ZH, Y+		;/
    48d2:	f9 91       	ld	r31, Y+

0:	_LPMI	r24		;Get a format char
    48d4:	85 91       	lpm	r24, Z+
	cpi	r24, 0		;End of format string?
    48d6:	80 30       	cpi	r24, 0x00	; 0
	breq	90f		;/
    48d8:	21 f0       	breq	.+8      	; 0x48e2 <xprintf+0x1c>
	cpi	r24, '%'	;Is format?
    48da:	85 32       	cpi	r24, 0x25	; 37
	breq	20f		;/
    48dc:	29 f0       	breq	.+10     	; 0x48e8 <xprintf+0x22>
1:	rcall	xputc		;Put a normal character
    48de:	a2 df       	rcall	.-188    	; 0x4824 <xputc>
	rjmp	0b		;/
    48e0:	f9 cf       	rjmp	.-14     	; 0x48d4 <xprintf+0xe>
90:	pop	YL
    48e2:	cf 91       	pop	r28
	pop	YH
    48e4:	df 91       	pop	r29
	ret
    48e6:	08 95       	ret

20:	ldi	r18, 0		;r18: digits
    48e8:	20 e0       	ldi	r18, 0x00	; 0
	clt			;T: filler
    48ea:	e8 94       	clt
	_LPMI	r21		;Get flags
    48ec:	55 91       	lpm	r21, Z+
	cpi	r21, '%'	;Is a %?
    48ee:	55 32       	cpi	r21, 0x25	; 37
	breq	1b		;/
    48f0:	b1 f3       	breq	.-20     	; 0x48de <xprintf+0x18>
	cpi	r21, '0'	;Zero filled?
    48f2:	50 33       	cpi	r21, 0x30	; 48
	brne	23f		;
    48f4:	11 f4       	brne	.+4      	; 0x48fa <xprintf+0x34>
	set			;/
    48f6:	68 94       	set
22:	_LPMI	r21		;Get width
    48f8:	55 91       	lpm	r21, Z+
23:	cpi	r21, '9'+1	;
    48fa:	5a 33       	cpi	r21, 0x3A	; 58
	brcc	24f		;
    48fc:	48 f4       	brcc	.+18     	; 0x4910 <xprintf+0x4a>
	subi	r21, '0'	;
    48fe:	50 53       	subi	r21, 0x30	; 48
	brcs	90b		;
    4900:	80 f3       	brcs	.-32     	; 0x48e2 <xprintf+0x1c>
	lsl	r18		;
    4902:	22 0f       	add	r18, r18
	mov	r0, r18		;
    4904:	02 2e       	mov	r0, r18
	lsl	r18		;
    4906:	22 0f       	add	r18, r18
	lsl	r18		;
    4908:	22 0f       	add	r18, r18
	add	r18, r0		;
    490a:	20 0d       	add	r18, r0
	add	r18, r21	;
    490c:	25 0f       	add	r18, r21
	rjmp	22b		;/
    490e:	f4 cf       	rjmp	.-24     	; 0x48f8 <xprintf+0x32>

24:	brtc	25f		;get value (low word)
    4910:	0e f4       	brtc	.+2      	; 0x4914 <xprintf+0x4e>
	neg	r18		;
    4912:	21 95       	neg	r18
25:	ld	r24, Y+		;
    4914:	89 91       	ld	r24, Y+
	ld	r25, Y+		;/
    4916:	99 91       	ld	r25, Y+
	cpi	r21, 'c'	;Is type character?
    4918:	53 36       	cpi	r21, 0x63	; 99
	breq	1b		;/
    491a:	09 f3       	breq	.-62     	; 0x48de <xprintf+0x18>
	cpi	r21, 's'	;Is type RAM string?
    491c:	53 37       	cpi	r21, 0x73	; 115
	breq	50f		;/
    491e:	29 f1       	breq	.+74     	; 0x496a <xprintf+0xa4>
	cpi	r21, 'S'	;Is type ROM string?
    4920:	53 35       	cpi	r21, 0x53	; 83
	breq	60f		;/
    4922:	59 f1       	breq	.+86     	; 0x497a <xprintf+0xb4>
	_MOVW	r23,r22,r25,r24	;r25:r22 = value
    4924:	bc 01       	movw	r22, r24
	clr	r24		;
    4926:	88 27       	eor	r24, r24
	clr	r25		;
    4928:	99 27       	eor	r25, r25
	clt			;/
    492a:	e8 94       	clt
	cpi	r21, 'l'	;Is long int?
    492c:	5c 36       	cpi	r21, 0x6C	; 108
	brne	26f		;
    492e:	21 f4       	brne	.+8      	; 0x4938 <xprintf+0x72>
	ld	r24, Y+		;get value (high word)
    4930:	89 91       	ld	r24, Y+
	ld	r25, Y+		;
    4932:	99 91       	ld	r25, Y+
	set			;
    4934:	68 94       	set
	_LPMI	r21		;/
    4936:	55 91       	lpm	r21, Z+
26:	cpi	r21, 'd'	;Is type signed decimal?
    4938:	54 36       	cpi	r21, 0x64	; 100
	brne	27f		;/
    493a:	39 f4       	brne	.+14     	; 0x494a <xprintf+0x84>
	ldi	r20, -10	;
    493c:	46 ef       	ldi	r20, 0xF6	; 246
	brts	40f		;
    493e:	7e f0       	brts	.+30     	; 0x495e <xprintf+0x98>
	sbrs	r23, 7		;
    4940:	77 ff       	sbrs	r23, 7
	rjmp	40f		;
    4942:	0d c0       	rjmp	.+26     	; 0x495e <xprintf+0x98>
	ldi	r24, -1		;
    4944:	8f ef       	ldi	r24, 0xFF	; 255
	ldi	r25, -1		;
    4946:	9f ef       	ldi	r25, 0xFF	; 255
	rjmp	40f		;/
    4948:	0a c0       	rjmp	.+20     	; 0x495e <xprintf+0x98>
27:	cpi	r21, 'u'	;Is type unsigned decimal?
    494a:	55 37       	cpi	r21, 0x75	; 117
	ldi	r20, 10		;
    494c:	4a e0       	ldi	r20, 0x0A	; 10
	breq	40f		;/
    494e:	39 f0       	breq	.+14     	; 0x495e <xprintf+0x98>
	cpi	r21, 'X'	;Is type hexdecimal?
    4950:	58 35       	cpi	r21, 0x58	; 88
	ldi	r20, 16		;
    4952:	40 e1       	ldi	r20, 0x10	; 16
	breq	40f		;/
    4954:	21 f0       	breq	.+8      	; 0x495e <xprintf+0x98>
	cpi	r21, 'b'	;Is type binary?
    4956:	52 36       	cpi	r21, 0x62	; 98
	ldi	r20, 2		;
    4958:	42 e0       	ldi	r20, 0x02	; 2
	breq	40f		;/
    495a:	09 f0       	breq	.+2      	; 0x495e <xprintf+0x98>
	rjmp	90b		;abort
    495c:	c2 cf       	rjmp	.-124    	; 0x48e2 <xprintf+0x1c>
40:	push	ZH		;Output the value
    495e:	ff 93       	push	r31
	push	ZL		;
    4960:	ef 93       	push	r30
	rcall	xitoa		;
    4962:	76 df       	rcall	.-276    	; 0x4850 <xitoa>
42:	pop	ZL		;
    4964:	ef 91       	pop	r30
	pop	ZH		;
    4966:	ff 91       	pop	r31
	rjmp	0b		;/
    4968:	b5 cf       	rjmp	.-150    	; 0x48d4 <xprintf+0xe>

50:	push	ZH		;Put a string on the RAM
    496a:	ff 93       	push	r31
	push	ZL
    496c:	ef 93       	push	r30
	_MOVW	ZH,ZL, r25,r24
    496e:	fc 01       	movw	r30, r24
51:	ld	r24, Z+
    4970:	81 91       	ld	r24, Z+
	cpi	r24, 0
    4972:	80 30       	cpi	r24, 0x00	; 0
	breq	42b
    4974:	b9 f3       	breq	.-18     	; 0x4964 <xprintf+0x9e>
	rcall	xputc
    4976:	56 df       	rcall	.-340    	; 0x4824 <xputc>
	rjmp	51b
    4978:	fb cf       	rjmp	.-10     	; 0x4970 <xprintf+0xaa>

60:	push	ZH		;Put a string on the ROM
    497a:	ff 93       	push	r31
	push	ZL
    497c:	ef 93       	push	r30
	rcall	xputs
    497e:	61 df       	rcall	.-318    	; 0x4842 <xputs>
	rjmp	42b
    4980:	f1 cf       	rjmp	.-30     	; 0x4964 <xprintf+0x9e>

00004982 <xatoi>:

#ifdef USE_XATOI
.global xatoi
.func xatoi
xatoi:
	_MOVW	r1, r0, r23, r22
    4982:	0b 01       	movw	r0, r22
	_MOVW	XH, XL, r25, r24
    4984:	dc 01       	movw	r26, r24
	ld	ZL, X+
    4986:	ed 91       	ld	r30, X+
	ld	ZH, X+
    4988:	fd 91       	ld	r31, X+
	clr	r18		;r21:r18 = 0;
    498a:	22 27       	eor	r18, r18
	clr	r19		;
    498c:	33 27       	eor	r19, r19
	clr	r20		;
    498e:	44 27       	eor	r20, r20
	clr	r21		;/
    4990:	55 27       	eor	r21, r21
	clt			;T = 0;
    4992:	e8 94       	clt

	ldi	r25, 10		;r25 = 10;
    4994:	9a e0       	ldi	r25, 0x0A	; 10
	rjmp	41f		;/
    4996:	01 c0       	rjmp	.+2      	; 0x499a <xatoi+0x18>
40:	adiw	ZL, 1		;Z++;
    4998:	31 96       	adiw	r30, 0x01	; 1
41:	ld	r22, Z		;r22 = *Z;
    499a:	60 81       	ld	r22, Z
	cpi	r22, ' '	;if(r22 == ' ') continue
    499c:	60 32       	cpi	r22, 0x20	; 32
	breq	40b		;/
    499e:	e1 f3       	breq	.-8      	; 0x4998 <xatoi+0x16>
	brcs	70f		;if(r22 < ' ') error;
    49a0:	a8 f1       	brcs	.+106    	; 0x4a0c <xatoi+0x8a>
	cpi	r22, '-'	;if(r22 == '-') {
    49a2:	6d 32       	cpi	r22, 0x2D	; 45
	brne	42f		; T = 1;
    49a4:	11 f4       	brne	.+4      	; 0x49aa <xatoi+0x28>
	set			; continue;
    49a6:	68 94       	set
	rjmp	40b		;}
    49a8:	f7 cf       	rjmp	.-18     	; 0x4998 <xatoi+0x16>
42:	cpi	r22, '9'+1	;if(r22 > '9') error;
    49aa:	6a 33       	cpi	r22, 0x3A	; 58
	brcc	70f		;/
    49ac:	78 f5       	brcc	.+94     	; 0x4a0c <xatoi+0x8a>
	cpi	r22, '0'	;if(r22 < '0') error;
    49ae:	60 33       	cpi	r22, 0x30	; 48
	brcs	70f		;/
    49b0:	68 f1       	brcs	.+90     	; 0x4a0c <xatoi+0x8a>
	brne	51f		;if(r22 > '0') cv_start;
    49b2:	71 f4       	brne	.+28     	; 0x49d0 <xatoi+0x4e>
	ldi	r25, 8		;r25 = 8;
    49b4:	98 e0       	ldi	r25, 0x08	; 8
	adiw	ZL, 1		;r22 = *(++Z);
    49b6:	31 96       	adiw	r30, 0x01	; 1
	ld	r22, Z		;/
    49b8:	60 81       	ld	r22, Z
	cpi	r22, ' '+1	;if(r22 <= ' ') exit;
    49ba:	61 32       	cpi	r22, 0x21	; 33
	brcs	80f		;/
    49bc:	48 f1       	brcs	.+82     	; 0x4a10 <xatoi+0x8e>
	cpi	r22, 'b'	;if(r22 == 'b') {
    49be:	62 36       	cpi	r22, 0x62	; 98
	brne	43f		; r25 = 2;
    49c0:	11 f4       	brne	.+4      	; 0x49c6 <xatoi+0x44>
	ldi	r25, 2		; cv_start;
    49c2:	92 e0       	ldi	r25, 0x02	; 2
	rjmp	50f		;}
    49c4:	03 c0       	rjmp	.+6      	; 0x49cc <xatoi+0x4a>
43:	cpi	r22, 'x'	;if(r22 != 'x') error;
    49c6:	68 37       	cpi	r22, 0x78	; 120
	brne	51f		;/
    49c8:	19 f4       	brne	.+6      	; 0x49d0 <xatoi+0x4e>
	ldi	r25, 16		;r25 = 16;
    49ca:	90 e1       	ldi	r25, 0x10	; 16

50:	adiw	ZL, 1		;Z++;
    49cc:	31 96       	adiw	r30, 0x01	; 1
	ld	r22, Z		;r22 = *Z;
    49ce:	60 81       	ld	r22, Z
51:	cpi	r22, ' '+1	;if(r22 <= ' ') break;
    49d0:	61 32       	cpi	r22, 0x21	; 33
	brcs	80f		;/
    49d2:	f0 f0       	brcs	.+60     	; 0x4a10 <xatoi+0x8e>
	cpi	r22, 'a'	;if(r22 >= 'a') r22 =- 0x20;
    49d4:	61 36       	cpi	r22, 0x61	; 97
	brcs	52f		;
    49d6:	08 f0       	brcs	.+2      	; 0x49da <xatoi+0x58>
	subi	r22, 0x20	;/
    49d8:	60 52       	subi	r22, 0x20	; 32
52:	subi	r22, '0'	;if((r22 -= '0') < 0) error;
    49da:	60 53       	subi	r22, 0x30	; 48
	brcs	70f		;/
    49dc:	b8 f0       	brcs	.+46     	; 0x4a0c <xatoi+0x8a>
	cpi	r22, 10		;if(r22 >= 10) {
    49de:	6a 30       	cpi	r22, 0x0A	; 10
	brcs	53f		; r22 -= 7;
    49e0:	18 f0       	brcs	.+6      	; 0x49e8 <xatoi+0x66>
	subi	r22, 7		; if(r22 < 10) 
    49e2:	67 50       	subi	r22, 0x07	; 7
	cpi	r22, 10		;
    49e4:	6a 30       	cpi	r22, 0x0A	; 10
	brcs	70f		;}
    49e6:	90 f0       	brcs	.+36     	; 0x4a0c <xatoi+0x8a>
53:	cp	r22, r25	;if(r22 >= r25) error;
    49e8:	69 17       	cp	r22, r25
	brcc	70f		;/
    49ea:	80 f4       	brcc	.+32     	; 0x4a0c <xatoi+0x8a>
60:	ldi	r24, 33		;r21:r18 *= r25;
    49ec:	81 e2       	ldi	r24, 0x21	; 33
	sub	r23, r23	;
    49ee:	77 1b       	sub	r23, r23
61:	brcc	62f		;
    49f0:	08 f4       	brcc	.+2      	; 0x49f4 <xatoi+0x72>
	add	r23, r25	;
    49f2:	79 0f       	add	r23, r25
62:	lsr	r23		;
    49f4:	76 95       	lsr	r23
	ror	r21		;
    49f6:	57 95       	ror	r21
	ror	r20		;
    49f8:	47 95       	ror	r20
	ror	r19		;
    49fa:	37 95       	ror	r19
	ror	r18		;
    49fc:	27 95       	ror	r18
	dec	r24		;
    49fe:	8a 95       	dec	r24
	brne	61b		;/
    4a00:	b9 f7       	brne	.-18     	; 0x49f0 <xatoi+0x6e>
	add	r18, r22	;r21:r18 += r22;
    4a02:	26 0f       	add	r18, r22
	adc	r19, r24	;
    4a04:	38 1f       	adc	r19, r24
	adc	r20, r24	;
    4a06:	48 1f       	adc	r20, r24
	adc	r21, r24	;/
    4a08:	58 1f       	adc	r21, r24
	rjmp	50b		;repeat
    4a0a:	e0 cf       	rjmp	.-64     	; 0x49cc <xatoi+0x4a>

70:	ldi	r24, 0
    4a0c:	80 e0       	ldi	r24, 0x00	; 0
	rjmp	81f
    4a0e:	01 c0       	rjmp	.+2      	; 0x4a12 <xatoi+0x90>
80:	ldi	r24, 1
    4a10:	81 e0       	ldi	r24, 0x01	; 1
81:	brtc	82f
    4a12:	4e f4       	brtc	.+18     	; 0x4a26 <xatoi+0xa4>
	clr	r22
    4a14:	66 27       	eor	r22, r22
	com	r18
    4a16:	20 95       	com	r18
	com	r19
    4a18:	30 95       	com	r19
	com	r20
    4a1a:	40 95       	com	r20
	com	r21
    4a1c:	50 95       	com	r21
	adc	r18, r22
    4a1e:	26 1f       	adc	r18, r22
	adc	r19, r22
    4a20:	36 1f       	adc	r19, r22
	adc	r20, r22
    4a22:	46 1f       	adc	r20, r22
	adc	r21, r22
    4a24:	56 1f       	adc	r21, r22
82:	st	-X, ZH
    4a26:	fe 93       	st	-X, r31
	st	-X, ZL
    4a28:	ee 93       	st	-X, r30
	_MOVW	XH, XL, r1, r0
    4a2a:	d0 01       	movw	r26, r0
	st	X+, r18
    4a2c:	2d 93       	st	X+, r18
	st	X+, r19
    4a2e:	3d 93       	st	X+, r19
	st	X+, r20
    4a30:	4d 93       	st	X+, r20
	st	X+, r21
    4a32:	5d 93       	st	X+, r21
	clr	r1
    4a34:	11 24       	eor	r1, r1
	ret
    4a36:	08 95       	ret

00004a38 <_fpadd_parts>:
    4a38:	a0 e0       	ldi	r26, 0x00	; 0
    4a3a:	b0 e0       	ldi	r27, 0x00	; 0
    4a3c:	e2 e2       	ldi	r30, 0x22	; 34
    4a3e:	f5 e2       	ldi	r31, 0x25	; 37
    4a40:	0c 94 4e 2a 	jmp	0x549c	; 0x549c <__prologue_saves__>
    4a44:	dc 01       	movw	r26, r24
    4a46:	2b 01       	movw	r4, r22
    4a48:	fa 01       	movw	r30, r20
    4a4a:	9c 91       	ld	r25, X
    4a4c:	92 30       	cpi	r25, 0x02	; 2
    4a4e:	08 f4       	brcc	.+2      	; 0x4a52 <_fpadd_parts+0x1a>
    4a50:	39 c1       	rjmp	.+626    	; 0x4cc4 <_fpadd_parts+0x28c>
    4a52:	eb 01       	movw	r28, r22
    4a54:	88 81       	ld	r24, Y
    4a56:	82 30       	cpi	r24, 0x02	; 2
    4a58:	08 f4       	brcc	.+2      	; 0x4a5c <_fpadd_parts+0x24>
    4a5a:	33 c1       	rjmp	.+614    	; 0x4cc2 <_fpadd_parts+0x28a>
    4a5c:	94 30       	cpi	r25, 0x04	; 4
    4a5e:	69 f4       	brne	.+26     	; 0x4a7a <_fpadd_parts+0x42>
    4a60:	84 30       	cpi	r24, 0x04	; 4
    4a62:	09 f0       	breq	.+2      	; 0x4a66 <_fpadd_parts+0x2e>
    4a64:	2f c1       	rjmp	.+606    	; 0x4cc4 <_fpadd_parts+0x28c>
    4a66:	11 96       	adiw	r26, 0x01	; 1
    4a68:	9c 91       	ld	r25, X
    4a6a:	11 97       	sbiw	r26, 0x01	; 1
    4a6c:	89 81       	ldd	r24, Y+1	; 0x01
    4a6e:	98 17       	cp	r25, r24
    4a70:	09 f4       	brne	.+2      	; 0x4a74 <_fpadd_parts+0x3c>
    4a72:	28 c1       	rjmp	.+592    	; 0x4cc4 <_fpadd_parts+0x28c>
    4a74:	aa e1       	ldi	r26, 0x1A	; 26
    4a76:	b1 e0       	ldi	r27, 0x01	; 1
    4a78:	25 c1       	rjmp	.+586    	; 0x4cc4 <_fpadd_parts+0x28c>
    4a7a:	84 30       	cpi	r24, 0x04	; 4
    4a7c:	09 f4       	brne	.+2      	; 0x4a80 <_fpadd_parts+0x48>
    4a7e:	21 c1       	rjmp	.+578    	; 0x4cc2 <_fpadd_parts+0x28a>
    4a80:	82 30       	cpi	r24, 0x02	; 2
    4a82:	a9 f4       	brne	.+42     	; 0x4aae <_fpadd_parts+0x76>
    4a84:	92 30       	cpi	r25, 0x02	; 2
    4a86:	09 f0       	breq	.+2      	; 0x4a8a <_fpadd_parts+0x52>
    4a88:	1d c1       	rjmp	.+570    	; 0x4cc4 <_fpadd_parts+0x28c>
    4a8a:	9a 01       	movw	r18, r20
    4a8c:	ad 01       	movw	r20, r26
    4a8e:	88 e0       	ldi	r24, 0x08	; 8
    4a90:	ea 01       	movw	r28, r20
    4a92:	09 90       	ld	r0, Y+
    4a94:	ae 01       	movw	r20, r28
    4a96:	e9 01       	movw	r28, r18
    4a98:	09 92       	st	Y+, r0
    4a9a:	9e 01       	movw	r18, r28
    4a9c:	81 50       	subi	r24, 0x01	; 1
    4a9e:	c1 f7       	brne	.-16     	; 0x4a90 <_fpadd_parts+0x58>
    4aa0:	e2 01       	movw	r28, r4
    4aa2:	89 81       	ldd	r24, Y+1	; 0x01
    4aa4:	11 96       	adiw	r26, 0x01	; 1
    4aa6:	9c 91       	ld	r25, X
    4aa8:	89 23       	and	r24, r25
    4aaa:	81 83       	std	Z+1, r24	; 0x01
    4aac:	08 c1       	rjmp	.+528    	; 0x4cbe <_fpadd_parts+0x286>
    4aae:	92 30       	cpi	r25, 0x02	; 2
    4ab0:	09 f4       	brne	.+2      	; 0x4ab4 <_fpadd_parts+0x7c>
    4ab2:	07 c1       	rjmp	.+526    	; 0x4cc2 <_fpadd_parts+0x28a>
    4ab4:	12 96       	adiw	r26, 0x02	; 2
    4ab6:	2d 90       	ld	r2, X+
    4ab8:	3c 90       	ld	r3, X
    4aba:	13 97       	sbiw	r26, 0x03	; 3
    4abc:	eb 01       	movw	r28, r22
    4abe:	8a 81       	ldd	r24, Y+2	; 0x02
    4ac0:	9b 81       	ldd	r25, Y+3	; 0x03
    4ac2:	14 96       	adiw	r26, 0x04	; 4
    4ac4:	ad 90       	ld	r10, X+
    4ac6:	bd 90       	ld	r11, X+
    4ac8:	cd 90       	ld	r12, X+
    4aca:	dc 90       	ld	r13, X
    4acc:	17 97       	sbiw	r26, 0x07	; 7
    4ace:	ec 80       	ldd	r14, Y+4	; 0x04
    4ad0:	fd 80       	ldd	r15, Y+5	; 0x05
    4ad2:	0e 81       	ldd	r16, Y+6	; 0x06
    4ad4:	1f 81       	ldd	r17, Y+7	; 0x07
    4ad6:	91 01       	movw	r18, r2
    4ad8:	28 1b       	sub	r18, r24
    4ada:	39 0b       	sbc	r19, r25
    4adc:	b9 01       	movw	r22, r18
    4ade:	37 ff       	sbrs	r19, 7
    4ae0:	04 c0       	rjmp	.+8      	; 0x4aea <_fpadd_parts+0xb2>
    4ae2:	66 27       	eor	r22, r22
    4ae4:	77 27       	eor	r23, r23
    4ae6:	62 1b       	sub	r22, r18
    4ae8:	73 0b       	sbc	r23, r19
    4aea:	60 32       	cpi	r22, 0x20	; 32
    4aec:	71 05       	cpc	r23, r1
    4aee:	0c f0       	brlt	.+2      	; 0x4af2 <_fpadd_parts+0xba>
    4af0:	61 c0       	rjmp	.+194    	; 0x4bb4 <_fpadd_parts+0x17c>
    4af2:	12 16       	cp	r1, r18
    4af4:	13 06       	cpc	r1, r19
    4af6:	6c f5       	brge	.+90     	; 0x4b52 <_fpadd_parts+0x11a>
    4af8:	37 01       	movw	r6, r14
    4afa:	48 01       	movw	r8, r16
    4afc:	06 2e       	mov	r0, r22
    4afe:	04 c0       	rjmp	.+8      	; 0x4b08 <_fpadd_parts+0xd0>
    4b00:	96 94       	lsr	r9
    4b02:	87 94       	ror	r8
    4b04:	77 94       	ror	r7
    4b06:	67 94       	ror	r6
    4b08:	0a 94       	dec	r0
    4b0a:	d2 f7       	brpl	.-12     	; 0x4b00 <_fpadd_parts+0xc8>
    4b0c:	21 e0       	ldi	r18, 0x01	; 1
    4b0e:	30 e0       	ldi	r19, 0x00	; 0
    4b10:	40 e0       	ldi	r20, 0x00	; 0
    4b12:	50 e0       	ldi	r21, 0x00	; 0
    4b14:	04 c0       	rjmp	.+8      	; 0x4b1e <_fpadd_parts+0xe6>
    4b16:	22 0f       	add	r18, r18
    4b18:	33 1f       	adc	r19, r19
    4b1a:	44 1f       	adc	r20, r20
    4b1c:	55 1f       	adc	r21, r21
    4b1e:	6a 95       	dec	r22
    4b20:	d2 f7       	brpl	.-12     	; 0x4b16 <_fpadd_parts+0xde>
    4b22:	21 50       	subi	r18, 0x01	; 1
    4b24:	30 40       	sbci	r19, 0x00	; 0
    4b26:	40 40       	sbci	r20, 0x00	; 0
    4b28:	50 40       	sbci	r21, 0x00	; 0
    4b2a:	2e 21       	and	r18, r14
    4b2c:	3f 21       	and	r19, r15
    4b2e:	40 23       	and	r20, r16
    4b30:	51 23       	and	r21, r17
    4b32:	21 15       	cp	r18, r1
    4b34:	31 05       	cpc	r19, r1
    4b36:	41 05       	cpc	r20, r1
    4b38:	51 05       	cpc	r21, r1
    4b3a:	21 f0       	breq	.+8      	; 0x4b44 <_fpadd_parts+0x10c>
    4b3c:	21 e0       	ldi	r18, 0x01	; 1
    4b3e:	30 e0       	ldi	r19, 0x00	; 0
    4b40:	40 e0       	ldi	r20, 0x00	; 0
    4b42:	50 e0       	ldi	r21, 0x00	; 0
    4b44:	79 01       	movw	r14, r18
    4b46:	8a 01       	movw	r16, r20
    4b48:	e6 28       	or	r14, r6
    4b4a:	f7 28       	or	r15, r7
    4b4c:	08 29       	or	r16, r8
    4b4e:	19 29       	or	r17, r9
    4b50:	3c c0       	rjmp	.+120    	; 0x4bca <_fpadd_parts+0x192>
    4b52:	23 2b       	or	r18, r19
    4b54:	d1 f1       	breq	.+116    	; 0x4bca <_fpadd_parts+0x192>
    4b56:	26 0e       	add	r2, r22
    4b58:	37 1e       	adc	r3, r23
    4b5a:	35 01       	movw	r6, r10
    4b5c:	46 01       	movw	r8, r12
    4b5e:	06 2e       	mov	r0, r22
    4b60:	04 c0       	rjmp	.+8      	; 0x4b6a <_fpadd_parts+0x132>
    4b62:	96 94       	lsr	r9
    4b64:	87 94       	ror	r8
    4b66:	77 94       	ror	r7
    4b68:	67 94       	ror	r6
    4b6a:	0a 94       	dec	r0
    4b6c:	d2 f7       	brpl	.-12     	; 0x4b62 <_fpadd_parts+0x12a>
    4b6e:	21 e0       	ldi	r18, 0x01	; 1
    4b70:	30 e0       	ldi	r19, 0x00	; 0
    4b72:	40 e0       	ldi	r20, 0x00	; 0
    4b74:	50 e0       	ldi	r21, 0x00	; 0
    4b76:	04 c0       	rjmp	.+8      	; 0x4b80 <_fpadd_parts+0x148>
    4b78:	22 0f       	add	r18, r18
    4b7a:	33 1f       	adc	r19, r19
    4b7c:	44 1f       	adc	r20, r20
    4b7e:	55 1f       	adc	r21, r21
    4b80:	6a 95       	dec	r22
    4b82:	d2 f7       	brpl	.-12     	; 0x4b78 <_fpadd_parts+0x140>
    4b84:	21 50       	subi	r18, 0x01	; 1
    4b86:	30 40       	sbci	r19, 0x00	; 0
    4b88:	40 40       	sbci	r20, 0x00	; 0
    4b8a:	50 40       	sbci	r21, 0x00	; 0
    4b8c:	2a 21       	and	r18, r10
    4b8e:	3b 21       	and	r19, r11
    4b90:	4c 21       	and	r20, r12
    4b92:	5d 21       	and	r21, r13
    4b94:	21 15       	cp	r18, r1
    4b96:	31 05       	cpc	r19, r1
    4b98:	41 05       	cpc	r20, r1
    4b9a:	51 05       	cpc	r21, r1
    4b9c:	21 f0       	breq	.+8      	; 0x4ba6 <_fpadd_parts+0x16e>
    4b9e:	21 e0       	ldi	r18, 0x01	; 1
    4ba0:	30 e0       	ldi	r19, 0x00	; 0
    4ba2:	40 e0       	ldi	r20, 0x00	; 0
    4ba4:	50 e0       	ldi	r21, 0x00	; 0
    4ba6:	59 01       	movw	r10, r18
    4ba8:	6a 01       	movw	r12, r20
    4baa:	a6 28       	or	r10, r6
    4bac:	b7 28       	or	r11, r7
    4bae:	c8 28       	or	r12, r8
    4bb0:	d9 28       	or	r13, r9
    4bb2:	0b c0       	rjmp	.+22     	; 0x4bca <_fpadd_parts+0x192>
    4bb4:	82 15       	cp	r24, r2
    4bb6:	93 05       	cpc	r25, r3
    4bb8:	2c f0       	brlt	.+10     	; 0x4bc4 <_fpadd_parts+0x18c>
    4bba:	1c 01       	movw	r2, r24
    4bbc:	aa 24       	eor	r10, r10
    4bbe:	bb 24       	eor	r11, r11
    4bc0:	65 01       	movw	r12, r10
    4bc2:	03 c0       	rjmp	.+6      	; 0x4bca <_fpadd_parts+0x192>
    4bc4:	ee 24       	eor	r14, r14
    4bc6:	ff 24       	eor	r15, r15
    4bc8:	87 01       	movw	r16, r14
    4bca:	11 96       	adiw	r26, 0x01	; 1
    4bcc:	9c 91       	ld	r25, X
    4bce:	d2 01       	movw	r26, r4
    4bd0:	11 96       	adiw	r26, 0x01	; 1
    4bd2:	8c 91       	ld	r24, X
    4bd4:	98 17       	cp	r25, r24
    4bd6:	09 f4       	brne	.+2      	; 0x4bda <_fpadd_parts+0x1a2>
    4bd8:	45 c0       	rjmp	.+138    	; 0x4c64 <_fpadd_parts+0x22c>
    4bda:	99 23       	and	r25, r25
    4bdc:	39 f0       	breq	.+14     	; 0x4bec <_fpadd_parts+0x1b4>
    4bde:	a8 01       	movw	r20, r16
    4be0:	97 01       	movw	r18, r14
    4be2:	2a 19       	sub	r18, r10
    4be4:	3b 09       	sbc	r19, r11
    4be6:	4c 09       	sbc	r20, r12
    4be8:	5d 09       	sbc	r21, r13
    4bea:	06 c0       	rjmp	.+12     	; 0x4bf8 <_fpadd_parts+0x1c0>
    4bec:	a6 01       	movw	r20, r12
    4bee:	95 01       	movw	r18, r10
    4bf0:	2e 19       	sub	r18, r14
    4bf2:	3f 09       	sbc	r19, r15
    4bf4:	40 0b       	sbc	r20, r16
    4bf6:	51 0b       	sbc	r21, r17
    4bf8:	57 fd       	sbrc	r21, 7
    4bfa:	08 c0       	rjmp	.+16     	; 0x4c0c <_fpadd_parts+0x1d4>
    4bfc:	11 82       	std	Z+1, r1	; 0x01
    4bfe:	33 82       	std	Z+3, r3	; 0x03
    4c00:	22 82       	std	Z+2, r2	; 0x02
    4c02:	24 83       	std	Z+4, r18	; 0x04
    4c04:	35 83       	std	Z+5, r19	; 0x05
    4c06:	46 83       	std	Z+6, r20	; 0x06
    4c08:	57 83       	std	Z+7, r21	; 0x07
    4c0a:	1d c0       	rjmp	.+58     	; 0x4c46 <_fpadd_parts+0x20e>
    4c0c:	81 e0       	ldi	r24, 0x01	; 1
    4c0e:	81 83       	std	Z+1, r24	; 0x01
    4c10:	33 82       	std	Z+3, r3	; 0x03
    4c12:	22 82       	std	Z+2, r2	; 0x02
    4c14:	88 27       	eor	r24, r24
    4c16:	99 27       	eor	r25, r25
    4c18:	dc 01       	movw	r26, r24
    4c1a:	82 1b       	sub	r24, r18
    4c1c:	93 0b       	sbc	r25, r19
    4c1e:	a4 0b       	sbc	r26, r20
    4c20:	b5 0b       	sbc	r27, r21
    4c22:	84 83       	std	Z+4, r24	; 0x04
    4c24:	95 83       	std	Z+5, r25	; 0x05
    4c26:	a6 83       	std	Z+6, r26	; 0x06
    4c28:	b7 83       	std	Z+7, r27	; 0x07
    4c2a:	0d c0       	rjmp	.+26     	; 0x4c46 <_fpadd_parts+0x20e>
    4c2c:	22 0f       	add	r18, r18
    4c2e:	33 1f       	adc	r19, r19
    4c30:	44 1f       	adc	r20, r20
    4c32:	55 1f       	adc	r21, r21
    4c34:	24 83       	std	Z+4, r18	; 0x04
    4c36:	35 83       	std	Z+5, r19	; 0x05
    4c38:	46 83       	std	Z+6, r20	; 0x06
    4c3a:	57 83       	std	Z+7, r21	; 0x07
    4c3c:	82 81       	ldd	r24, Z+2	; 0x02
    4c3e:	93 81       	ldd	r25, Z+3	; 0x03
    4c40:	01 97       	sbiw	r24, 0x01	; 1
    4c42:	93 83       	std	Z+3, r25	; 0x03
    4c44:	82 83       	std	Z+2, r24	; 0x02
    4c46:	24 81       	ldd	r18, Z+4	; 0x04
    4c48:	35 81       	ldd	r19, Z+5	; 0x05
    4c4a:	46 81       	ldd	r20, Z+6	; 0x06
    4c4c:	57 81       	ldd	r21, Z+7	; 0x07
    4c4e:	da 01       	movw	r26, r20
    4c50:	c9 01       	movw	r24, r18
    4c52:	01 97       	sbiw	r24, 0x01	; 1
    4c54:	a1 09       	sbc	r26, r1
    4c56:	b1 09       	sbc	r27, r1
    4c58:	8f 5f       	subi	r24, 0xFF	; 255
    4c5a:	9f 4f       	sbci	r25, 0xFF	; 255
    4c5c:	af 4f       	sbci	r26, 0xFF	; 255
    4c5e:	bf 43       	sbci	r27, 0x3F	; 63
    4c60:	28 f3       	brcs	.-54     	; 0x4c2c <_fpadd_parts+0x1f4>
    4c62:	0b c0       	rjmp	.+22     	; 0x4c7a <_fpadd_parts+0x242>
    4c64:	91 83       	std	Z+1, r25	; 0x01
    4c66:	33 82       	std	Z+3, r3	; 0x03
    4c68:	22 82       	std	Z+2, r2	; 0x02
    4c6a:	ea 0c       	add	r14, r10
    4c6c:	fb 1c       	adc	r15, r11
    4c6e:	0c 1d       	adc	r16, r12
    4c70:	1d 1d       	adc	r17, r13
    4c72:	e4 82       	std	Z+4, r14	; 0x04
    4c74:	f5 82       	std	Z+5, r15	; 0x05
    4c76:	06 83       	std	Z+6, r16	; 0x06
    4c78:	17 83       	std	Z+7, r17	; 0x07
    4c7a:	83 e0       	ldi	r24, 0x03	; 3
    4c7c:	80 83       	st	Z, r24
    4c7e:	24 81       	ldd	r18, Z+4	; 0x04
    4c80:	35 81       	ldd	r19, Z+5	; 0x05
    4c82:	46 81       	ldd	r20, Z+6	; 0x06
    4c84:	57 81       	ldd	r21, Z+7	; 0x07
    4c86:	57 ff       	sbrs	r21, 7
    4c88:	1a c0       	rjmp	.+52     	; 0x4cbe <_fpadd_parts+0x286>
    4c8a:	c9 01       	movw	r24, r18
    4c8c:	aa 27       	eor	r26, r26
    4c8e:	97 fd       	sbrc	r25, 7
    4c90:	a0 95       	com	r26
    4c92:	ba 2f       	mov	r27, r26
    4c94:	81 70       	andi	r24, 0x01	; 1
    4c96:	90 70       	andi	r25, 0x00	; 0
    4c98:	a0 70       	andi	r26, 0x00	; 0
    4c9a:	b0 70       	andi	r27, 0x00	; 0
    4c9c:	56 95       	lsr	r21
    4c9e:	47 95       	ror	r20
    4ca0:	37 95       	ror	r19
    4ca2:	27 95       	ror	r18
    4ca4:	82 2b       	or	r24, r18
    4ca6:	93 2b       	or	r25, r19
    4ca8:	a4 2b       	or	r26, r20
    4caa:	b5 2b       	or	r27, r21
    4cac:	84 83       	std	Z+4, r24	; 0x04
    4cae:	95 83       	std	Z+5, r25	; 0x05
    4cb0:	a6 83       	std	Z+6, r26	; 0x06
    4cb2:	b7 83       	std	Z+7, r27	; 0x07
    4cb4:	82 81       	ldd	r24, Z+2	; 0x02
    4cb6:	93 81       	ldd	r25, Z+3	; 0x03
    4cb8:	01 96       	adiw	r24, 0x01	; 1
    4cba:	93 83       	std	Z+3, r25	; 0x03
    4cbc:	82 83       	std	Z+2, r24	; 0x02
    4cbe:	df 01       	movw	r26, r30
    4cc0:	01 c0       	rjmp	.+2      	; 0x4cc4 <_fpadd_parts+0x28c>
    4cc2:	d2 01       	movw	r26, r4
    4cc4:	cd 01       	movw	r24, r26
    4cc6:	cd b7       	in	r28, 0x3d	; 61
    4cc8:	de b7       	in	r29, 0x3e	; 62
    4cca:	e2 e1       	ldi	r30, 0x12	; 18
    4ccc:	0c 94 6a 2a 	jmp	0x54d4	; 0x54d4 <__epilogue_restores__>

00004cd0 <__subsf3>:
    4cd0:	a0 e2       	ldi	r26, 0x20	; 32
    4cd2:	b0 e0       	ldi	r27, 0x00	; 0
    4cd4:	ee e6       	ldi	r30, 0x6E	; 110
    4cd6:	f6 e2       	ldi	r31, 0x26	; 38
    4cd8:	0c 94 5a 2a 	jmp	0x54b4	; 0x54b4 <__prologue_saves__+0x18>
    4cdc:	69 83       	std	Y+1, r22	; 0x01
    4cde:	7a 83       	std	Y+2, r23	; 0x02
    4ce0:	8b 83       	std	Y+3, r24	; 0x03
    4ce2:	9c 83       	std	Y+4, r25	; 0x04
    4ce4:	2d 83       	std	Y+5, r18	; 0x05
    4ce6:	3e 83       	std	Y+6, r19	; 0x06
    4ce8:	4f 83       	std	Y+7, r20	; 0x07
    4cea:	58 87       	std	Y+8, r21	; 0x08
    4cec:	e9 e0       	ldi	r30, 0x09	; 9
    4cee:	ee 2e       	mov	r14, r30
    4cf0:	f1 2c       	mov	r15, r1
    4cf2:	ec 0e       	add	r14, r28
    4cf4:	fd 1e       	adc	r15, r29
    4cf6:	ce 01       	movw	r24, r28
    4cf8:	01 96       	adiw	r24, 0x01	; 1
    4cfa:	b7 01       	movw	r22, r14
    4cfc:	0e 94 95 29 	call	0x532a	; 0x532a <__unpack_f>
    4d00:	8e 01       	movw	r16, r28
    4d02:	0f 5e       	subi	r16, 0xEF	; 239
    4d04:	1f 4f       	sbci	r17, 0xFF	; 255
    4d06:	ce 01       	movw	r24, r28
    4d08:	05 96       	adiw	r24, 0x05	; 5
    4d0a:	b8 01       	movw	r22, r16
    4d0c:	0e 94 95 29 	call	0x532a	; 0x532a <__unpack_f>
    4d10:	8a 89       	ldd	r24, Y+18	; 0x12
    4d12:	91 e0       	ldi	r25, 0x01	; 1
    4d14:	89 27       	eor	r24, r25
    4d16:	8a 8b       	std	Y+18, r24	; 0x12
    4d18:	c7 01       	movw	r24, r14
    4d1a:	b8 01       	movw	r22, r16
    4d1c:	ae 01       	movw	r20, r28
    4d1e:	47 5e       	subi	r20, 0xE7	; 231
    4d20:	5f 4f       	sbci	r21, 0xFF	; 255
    4d22:	0e 94 1c 25 	call	0x4a38	; 0x4a38 <_fpadd_parts>
    4d26:	0e 94 c0 28 	call	0x5180	; 0x5180 <__pack_f>
    4d2a:	a0 96       	adiw	r28, 0x20	; 32
    4d2c:	e6 e0       	ldi	r30, 0x06	; 6
    4d2e:	0c 94 76 2a 	jmp	0x54ec	; 0x54ec <__epilogue_restores__+0x18>

00004d32 <__addsf3>:
    4d32:	a0 e2       	ldi	r26, 0x20	; 32
    4d34:	b0 e0       	ldi	r27, 0x00	; 0
    4d36:	ef e9       	ldi	r30, 0x9F	; 159
    4d38:	f6 e2       	ldi	r31, 0x26	; 38
    4d3a:	0c 94 5a 2a 	jmp	0x54b4	; 0x54b4 <__prologue_saves__+0x18>
    4d3e:	69 83       	std	Y+1, r22	; 0x01
    4d40:	7a 83       	std	Y+2, r23	; 0x02
    4d42:	8b 83       	std	Y+3, r24	; 0x03
    4d44:	9c 83       	std	Y+4, r25	; 0x04
    4d46:	2d 83       	std	Y+5, r18	; 0x05
    4d48:	3e 83       	std	Y+6, r19	; 0x06
    4d4a:	4f 83       	std	Y+7, r20	; 0x07
    4d4c:	58 87       	std	Y+8, r21	; 0x08
    4d4e:	f9 e0       	ldi	r31, 0x09	; 9
    4d50:	ef 2e       	mov	r14, r31
    4d52:	f1 2c       	mov	r15, r1
    4d54:	ec 0e       	add	r14, r28
    4d56:	fd 1e       	adc	r15, r29
    4d58:	ce 01       	movw	r24, r28
    4d5a:	01 96       	adiw	r24, 0x01	; 1
    4d5c:	b7 01       	movw	r22, r14
    4d5e:	0e 94 95 29 	call	0x532a	; 0x532a <__unpack_f>
    4d62:	8e 01       	movw	r16, r28
    4d64:	0f 5e       	subi	r16, 0xEF	; 239
    4d66:	1f 4f       	sbci	r17, 0xFF	; 255
    4d68:	ce 01       	movw	r24, r28
    4d6a:	05 96       	adiw	r24, 0x05	; 5
    4d6c:	b8 01       	movw	r22, r16
    4d6e:	0e 94 95 29 	call	0x532a	; 0x532a <__unpack_f>
    4d72:	c7 01       	movw	r24, r14
    4d74:	b8 01       	movw	r22, r16
    4d76:	ae 01       	movw	r20, r28
    4d78:	47 5e       	subi	r20, 0xE7	; 231
    4d7a:	5f 4f       	sbci	r21, 0xFF	; 255
    4d7c:	0e 94 1c 25 	call	0x4a38	; 0x4a38 <_fpadd_parts>
    4d80:	0e 94 c0 28 	call	0x5180	; 0x5180 <__pack_f>
    4d84:	a0 96       	adiw	r28, 0x20	; 32
    4d86:	e6 e0       	ldi	r30, 0x06	; 6
    4d88:	0c 94 76 2a 	jmp	0x54ec	; 0x54ec <__epilogue_restores__+0x18>

00004d8c <__mulsf3>:
    4d8c:	a0 e2       	ldi	r26, 0x20	; 32
    4d8e:	b0 e0       	ldi	r27, 0x00	; 0
    4d90:	ec ec       	ldi	r30, 0xCC	; 204
    4d92:	f6 e2       	ldi	r31, 0x26	; 38
    4d94:	0c 94 4e 2a 	jmp	0x549c	; 0x549c <__prologue_saves__>
    4d98:	69 83       	std	Y+1, r22	; 0x01
    4d9a:	7a 83       	std	Y+2, r23	; 0x02
    4d9c:	8b 83       	std	Y+3, r24	; 0x03
    4d9e:	9c 83       	std	Y+4, r25	; 0x04
    4da0:	2d 83       	std	Y+5, r18	; 0x05
    4da2:	3e 83       	std	Y+6, r19	; 0x06
    4da4:	4f 83       	std	Y+7, r20	; 0x07
    4da6:	58 87       	std	Y+8, r21	; 0x08
    4da8:	ce 01       	movw	r24, r28
    4daa:	01 96       	adiw	r24, 0x01	; 1
    4dac:	be 01       	movw	r22, r28
    4dae:	67 5f       	subi	r22, 0xF7	; 247
    4db0:	7f 4f       	sbci	r23, 0xFF	; 255
    4db2:	0e 94 95 29 	call	0x532a	; 0x532a <__unpack_f>
    4db6:	ce 01       	movw	r24, r28
    4db8:	05 96       	adiw	r24, 0x05	; 5
    4dba:	be 01       	movw	r22, r28
    4dbc:	6f 5e       	subi	r22, 0xEF	; 239
    4dbe:	7f 4f       	sbci	r23, 0xFF	; 255
    4dc0:	0e 94 95 29 	call	0x532a	; 0x532a <__unpack_f>
    4dc4:	99 85       	ldd	r25, Y+9	; 0x09
    4dc6:	92 30       	cpi	r25, 0x02	; 2
    4dc8:	88 f0       	brcs	.+34     	; 0x4dec <__mulsf3+0x60>
    4dca:	89 89       	ldd	r24, Y+17	; 0x11
    4dcc:	82 30       	cpi	r24, 0x02	; 2
    4dce:	c8 f0       	brcs	.+50     	; 0x4e02 <__mulsf3+0x76>
    4dd0:	94 30       	cpi	r25, 0x04	; 4
    4dd2:	19 f4       	brne	.+6      	; 0x4dda <__mulsf3+0x4e>
    4dd4:	82 30       	cpi	r24, 0x02	; 2
    4dd6:	51 f4       	brne	.+20     	; 0x4dec <__mulsf3+0x60>
    4dd8:	04 c0       	rjmp	.+8      	; 0x4de2 <__mulsf3+0x56>
    4dda:	84 30       	cpi	r24, 0x04	; 4
    4ddc:	29 f4       	brne	.+10     	; 0x4de8 <__mulsf3+0x5c>
    4dde:	92 30       	cpi	r25, 0x02	; 2
    4de0:	81 f4       	brne	.+32     	; 0x4e02 <__mulsf3+0x76>
    4de2:	8a e1       	ldi	r24, 0x1A	; 26
    4de4:	91 e0       	ldi	r25, 0x01	; 1
    4de6:	c6 c0       	rjmp	.+396    	; 0x4f74 <__mulsf3+0x1e8>
    4de8:	92 30       	cpi	r25, 0x02	; 2
    4dea:	49 f4       	brne	.+18     	; 0x4dfe <__mulsf3+0x72>
    4dec:	20 e0       	ldi	r18, 0x00	; 0
    4dee:	9a 85       	ldd	r25, Y+10	; 0x0a
    4df0:	8a 89       	ldd	r24, Y+18	; 0x12
    4df2:	98 13       	cpse	r25, r24
    4df4:	21 e0       	ldi	r18, 0x01	; 1
    4df6:	2a 87       	std	Y+10, r18	; 0x0a
    4df8:	ce 01       	movw	r24, r28
    4dfa:	09 96       	adiw	r24, 0x09	; 9
    4dfc:	bb c0       	rjmp	.+374    	; 0x4f74 <__mulsf3+0x1e8>
    4dfe:	82 30       	cpi	r24, 0x02	; 2
    4e00:	49 f4       	brne	.+18     	; 0x4e14 <__mulsf3+0x88>
    4e02:	20 e0       	ldi	r18, 0x00	; 0
    4e04:	9a 85       	ldd	r25, Y+10	; 0x0a
    4e06:	8a 89       	ldd	r24, Y+18	; 0x12
    4e08:	98 13       	cpse	r25, r24
    4e0a:	21 e0       	ldi	r18, 0x01	; 1
    4e0c:	2a 8b       	std	Y+18, r18	; 0x12
    4e0e:	ce 01       	movw	r24, r28
    4e10:	41 96       	adiw	r24, 0x11	; 17
    4e12:	b0 c0       	rjmp	.+352    	; 0x4f74 <__mulsf3+0x1e8>
    4e14:	2d 84       	ldd	r2, Y+13	; 0x0d
    4e16:	3e 84       	ldd	r3, Y+14	; 0x0e
    4e18:	4f 84       	ldd	r4, Y+15	; 0x0f
    4e1a:	58 88       	ldd	r5, Y+16	; 0x10
    4e1c:	6d 88       	ldd	r6, Y+21	; 0x15
    4e1e:	7e 88       	ldd	r7, Y+22	; 0x16
    4e20:	8f 88       	ldd	r8, Y+23	; 0x17
    4e22:	98 8c       	ldd	r9, Y+24	; 0x18
    4e24:	ee 24       	eor	r14, r14
    4e26:	ff 24       	eor	r15, r15
    4e28:	87 01       	movw	r16, r14
    4e2a:	aa 24       	eor	r10, r10
    4e2c:	bb 24       	eor	r11, r11
    4e2e:	65 01       	movw	r12, r10
    4e30:	40 e0       	ldi	r20, 0x00	; 0
    4e32:	50 e0       	ldi	r21, 0x00	; 0
    4e34:	60 e0       	ldi	r22, 0x00	; 0
    4e36:	70 e0       	ldi	r23, 0x00	; 0
    4e38:	e0 e0       	ldi	r30, 0x00	; 0
    4e3a:	f0 e0       	ldi	r31, 0x00	; 0
    4e3c:	c1 01       	movw	r24, r2
    4e3e:	81 70       	andi	r24, 0x01	; 1
    4e40:	90 70       	andi	r25, 0x00	; 0
    4e42:	89 2b       	or	r24, r25
    4e44:	e9 f0       	breq	.+58     	; 0x4e80 <__mulsf3+0xf4>
    4e46:	e6 0c       	add	r14, r6
    4e48:	f7 1c       	adc	r15, r7
    4e4a:	08 1d       	adc	r16, r8
    4e4c:	19 1d       	adc	r17, r9
    4e4e:	9a 01       	movw	r18, r20
    4e50:	ab 01       	movw	r20, r22
    4e52:	2a 0d       	add	r18, r10
    4e54:	3b 1d       	adc	r19, r11
    4e56:	4c 1d       	adc	r20, r12
    4e58:	5d 1d       	adc	r21, r13
    4e5a:	80 e0       	ldi	r24, 0x00	; 0
    4e5c:	90 e0       	ldi	r25, 0x00	; 0
    4e5e:	a0 e0       	ldi	r26, 0x00	; 0
    4e60:	b0 e0       	ldi	r27, 0x00	; 0
    4e62:	e6 14       	cp	r14, r6
    4e64:	f7 04       	cpc	r15, r7
    4e66:	08 05       	cpc	r16, r8
    4e68:	19 05       	cpc	r17, r9
    4e6a:	20 f4       	brcc	.+8      	; 0x4e74 <__mulsf3+0xe8>
    4e6c:	81 e0       	ldi	r24, 0x01	; 1
    4e6e:	90 e0       	ldi	r25, 0x00	; 0
    4e70:	a0 e0       	ldi	r26, 0x00	; 0
    4e72:	b0 e0       	ldi	r27, 0x00	; 0
    4e74:	ba 01       	movw	r22, r20
    4e76:	a9 01       	movw	r20, r18
    4e78:	48 0f       	add	r20, r24
    4e7a:	59 1f       	adc	r21, r25
    4e7c:	6a 1f       	adc	r22, r26
    4e7e:	7b 1f       	adc	r23, r27
    4e80:	aa 0c       	add	r10, r10
    4e82:	bb 1c       	adc	r11, r11
    4e84:	cc 1c       	adc	r12, r12
    4e86:	dd 1c       	adc	r13, r13
    4e88:	97 fe       	sbrs	r9, 7
    4e8a:	08 c0       	rjmp	.+16     	; 0x4e9c <__mulsf3+0x110>
    4e8c:	81 e0       	ldi	r24, 0x01	; 1
    4e8e:	90 e0       	ldi	r25, 0x00	; 0
    4e90:	a0 e0       	ldi	r26, 0x00	; 0
    4e92:	b0 e0       	ldi	r27, 0x00	; 0
    4e94:	a8 2a       	or	r10, r24
    4e96:	b9 2a       	or	r11, r25
    4e98:	ca 2a       	or	r12, r26
    4e9a:	db 2a       	or	r13, r27
    4e9c:	31 96       	adiw	r30, 0x01	; 1
    4e9e:	e0 32       	cpi	r30, 0x20	; 32
    4ea0:	f1 05       	cpc	r31, r1
    4ea2:	49 f0       	breq	.+18     	; 0x4eb6 <__mulsf3+0x12a>
    4ea4:	66 0c       	add	r6, r6
    4ea6:	77 1c       	adc	r7, r7
    4ea8:	88 1c       	adc	r8, r8
    4eaa:	99 1c       	adc	r9, r9
    4eac:	56 94       	lsr	r5
    4eae:	47 94       	ror	r4
    4eb0:	37 94       	ror	r3
    4eb2:	27 94       	ror	r2
    4eb4:	c3 cf       	rjmp	.-122    	; 0x4e3c <__mulsf3+0xb0>
    4eb6:	fa 85       	ldd	r31, Y+10	; 0x0a
    4eb8:	ea 89       	ldd	r30, Y+18	; 0x12
    4eba:	2b 89       	ldd	r18, Y+19	; 0x13
    4ebc:	3c 89       	ldd	r19, Y+20	; 0x14
    4ebe:	8b 85       	ldd	r24, Y+11	; 0x0b
    4ec0:	9c 85       	ldd	r25, Y+12	; 0x0c
    4ec2:	28 0f       	add	r18, r24
    4ec4:	39 1f       	adc	r19, r25
    4ec6:	2e 5f       	subi	r18, 0xFE	; 254
    4ec8:	3f 4f       	sbci	r19, 0xFF	; 255
    4eca:	17 c0       	rjmp	.+46     	; 0x4efa <__mulsf3+0x16e>
    4ecc:	ca 01       	movw	r24, r20
    4ece:	81 70       	andi	r24, 0x01	; 1
    4ed0:	90 70       	andi	r25, 0x00	; 0
    4ed2:	89 2b       	or	r24, r25
    4ed4:	61 f0       	breq	.+24     	; 0x4eee <__mulsf3+0x162>
    4ed6:	16 95       	lsr	r17
    4ed8:	07 95       	ror	r16
    4eda:	f7 94       	ror	r15
    4edc:	e7 94       	ror	r14
    4ede:	80 e0       	ldi	r24, 0x00	; 0
    4ee0:	90 e0       	ldi	r25, 0x00	; 0
    4ee2:	a0 e0       	ldi	r26, 0x00	; 0
    4ee4:	b0 e8       	ldi	r27, 0x80	; 128
    4ee6:	e8 2a       	or	r14, r24
    4ee8:	f9 2a       	or	r15, r25
    4eea:	0a 2b       	or	r16, r26
    4eec:	1b 2b       	or	r17, r27
    4eee:	76 95       	lsr	r23
    4ef0:	67 95       	ror	r22
    4ef2:	57 95       	ror	r21
    4ef4:	47 95       	ror	r20
    4ef6:	2f 5f       	subi	r18, 0xFF	; 255
    4ef8:	3f 4f       	sbci	r19, 0xFF	; 255
    4efa:	77 fd       	sbrc	r23, 7
    4efc:	e7 cf       	rjmp	.-50     	; 0x4ecc <__mulsf3+0x140>
    4efe:	0c c0       	rjmp	.+24     	; 0x4f18 <__mulsf3+0x18c>
    4f00:	44 0f       	add	r20, r20
    4f02:	55 1f       	adc	r21, r21
    4f04:	66 1f       	adc	r22, r22
    4f06:	77 1f       	adc	r23, r23
    4f08:	17 fd       	sbrc	r17, 7
    4f0a:	41 60       	ori	r20, 0x01	; 1
    4f0c:	ee 0c       	add	r14, r14
    4f0e:	ff 1c       	adc	r15, r15
    4f10:	00 1f       	adc	r16, r16
    4f12:	11 1f       	adc	r17, r17
    4f14:	21 50       	subi	r18, 0x01	; 1
    4f16:	30 40       	sbci	r19, 0x00	; 0
    4f18:	40 30       	cpi	r20, 0x00	; 0
    4f1a:	90 e0       	ldi	r25, 0x00	; 0
    4f1c:	59 07       	cpc	r21, r25
    4f1e:	90 e0       	ldi	r25, 0x00	; 0
    4f20:	69 07       	cpc	r22, r25
    4f22:	90 e4       	ldi	r25, 0x40	; 64
    4f24:	79 07       	cpc	r23, r25
    4f26:	60 f3       	brcs	.-40     	; 0x4f00 <__mulsf3+0x174>
    4f28:	2b 8f       	std	Y+27, r18	; 0x1b
    4f2a:	3c 8f       	std	Y+28, r19	; 0x1c
    4f2c:	db 01       	movw	r26, r22
    4f2e:	ca 01       	movw	r24, r20
    4f30:	8f 77       	andi	r24, 0x7F	; 127
    4f32:	90 70       	andi	r25, 0x00	; 0
    4f34:	a0 70       	andi	r26, 0x00	; 0
    4f36:	b0 70       	andi	r27, 0x00	; 0
    4f38:	80 34       	cpi	r24, 0x40	; 64
    4f3a:	91 05       	cpc	r25, r1
    4f3c:	a1 05       	cpc	r26, r1
    4f3e:	b1 05       	cpc	r27, r1
    4f40:	61 f4       	brne	.+24     	; 0x4f5a <__mulsf3+0x1ce>
    4f42:	47 fd       	sbrc	r20, 7
    4f44:	0a c0       	rjmp	.+20     	; 0x4f5a <__mulsf3+0x1ce>
    4f46:	e1 14       	cp	r14, r1
    4f48:	f1 04       	cpc	r15, r1
    4f4a:	01 05       	cpc	r16, r1
    4f4c:	11 05       	cpc	r17, r1
    4f4e:	29 f0       	breq	.+10     	; 0x4f5a <__mulsf3+0x1ce>
    4f50:	40 5c       	subi	r20, 0xC0	; 192
    4f52:	5f 4f       	sbci	r21, 0xFF	; 255
    4f54:	6f 4f       	sbci	r22, 0xFF	; 255
    4f56:	7f 4f       	sbci	r23, 0xFF	; 255
    4f58:	40 78       	andi	r20, 0x80	; 128
    4f5a:	1a 8e       	std	Y+26, r1	; 0x1a
    4f5c:	fe 17       	cp	r31, r30
    4f5e:	11 f0       	breq	.+4      	; 0x4f64 <__mulsf3+0x1d8>
    4f60:	81 e0       	ldi	r24, 0x01	; 1
    4f62:	8a 8f       	std	Y+26, r24	; 0x1a
    4f64:	4d 8f       	std	Y+29, r20	; 0x1d
    4f66:	5e 8f       	std	Y+30, r21	; 0x1e
    4f68:	6f 8f       	std	Y+31, r22	; 0x1f
    4f6a:	78 a3       	std	Y+32, r23	; 0x20
    4f6c:	83 e0       	ldi	r24, 0x03	; 3
    4f6e:	89 8f       	std	Y+25, r24	; 0x19
    4f70:	ce 01       	movw	r24, r28
    4f72:	49 96       	adiw	r24, 0x19	; 25
    4f74:	0e 94 c0 28 	call	0x5180	; 0x5180 <__pack_f>
    4f78:	a0 96       	adiw	r28, 0x20	; 32
    4f7a:	e2 e1       	ldi	r30, 0x12	; 18
    4f7c:	0c 94 6a 2a 	jmp	0x54d4	; 0x54d4 <__epilogue_restores__>

00004f80 <__divsf3>:
    4f80:	a8 e1       	ldi	r26, 0x18	; 24
    4f82:	b0 e0       	ldi	r27, 0x00	; 0
    4f84:	e6 ec       	ldi	r30, 0xC6	; 198
    4f86:	f7 e2       	ldi	r31, 0x27	; 39
    4f88:	0c 94 56 2a 	jmp	0x54ac	; 0x54ac <__prologue_saves__+0x10>
    4f8c:	69 83       	std	Y+1, r22	; 0x01
    4f8e:	7a 83       	std	Y+2, r23	; 0x02
    4f90:	8b 83       	std	Y+3, r24	; 0x03
    4f92:	9c 83       	std	Y+4, r25	; 0x04
    4f94:	2d 83       	std	Y+5, r18	; 0x05
    4f96:	3e 83       	std	Y+6, r19	; 0x06
    4f98:	4f 83       	std	Y+7, r20	; 0x07
    4f9a:	58 87       	std	Y+8, r21	; 0x08
    4f9c:	b9 e0       	ldi	r27, 0x09	; 9
    4f9e:	eb 2e       	mov	r14, r27
    4fa0:	f1 2c       	mov	r15, r1
    4fa2:	ec 0e       	add	r14, r28
    4fa4:	fd 1e       	adc	r15, r29
    4fa6:	ce 01       	movw	r24, r28
    4fa8:	01 96       	adiw	r24, 0x01	; 1
    4faa:	b7 01       	movw	r22, r14
    4fac:	0e 94 95 29 	call	0x532a	; 0x532a <__unpack_f>
    4fb0:	8e 01       	movw	r16, r28
    4fb2:	0f 5e       	subi	r16, 0xEF	; 239
    4fb4:	1f 4f       	sbci	r17, 0xFF	; 255
    4fb6:	ce 01       	movw	r24, r28
    4fb8:	05 96       	adiw	r24, 0x05	; 5
    4fba:	b8 01       	movw	r22, r16
    4fbc:	0e 94 95 29 	call	0x532a	; 0x532a <__unpack_f>
    4fc0:	29 85       	ldd	r18, Y+9	; 0x09
    4fc2:	22 30       	cpi	r18, 0x02	; 2
    4fc4:	08 f4       	brcc	.+2      	; 0x4fc8 <__divsf3+0x48>
    4fc6:	7e c0       	rjmp	.+252    	; 0x50c4 <__divsf3+0x144>
    4fc8:	39 89       	ldd	r19, Y+17	; 0x11
    4fca:	32 30       	cpi	r19, 0x02	; 2
    4fcc:	10 f4       	brcc	.+4      	; 0x4fd2 <__divsf3+0x52>
    4fce:	b8 01       	movw	r22, r16
    4fd0:	7c c0       	rjmp	.+248    	; 0x50ca <__divsf3+0x14a>
    4fd2:	8a 85       	ldd	r24, Y+10	; 0x0a
    4fd4:	9a 89       	ldd	r25, Y+18	; 0x12
    4fd6:	89 27       	eor	r24, r25
    4fd8:	8a 87       	std	Y+10, r24	; 0x0a
    4fda:	24 30       	cpi	r18, 0x04	; 4
    4fdc:	11 f0       	breq	.+4      	; 0x4fe2 <__divsf3+0x62>
    4fde:	22 30       	cpi	r18, 0x02	; 2
    4fe0:	31 f4       	brne	.+12     	; 0x4fee <__divsf3+0x6e>
    4fe2:	23 17       	cp	r18, r19
    4fe4:	09 f0       	breq	.+2      	; 0x4fe8 <__divsf3+0x68>
    4fe6:	6e c0       	rjmp	.+220    	; 0x50c4 <__divsf3+0x144>
    4fe8:	6a e1       	ldi	r22, 0x1A	; 26
    4fea:	71 e0       	ldi	r23, 0x01	; 1
    4fec:	6e c0       	rjmp	.+220    	; 0x50ca <__divsf3+0x14a>
    4fee:	34 30       	cpi	r19, 0x04	; 4
    4ff0:	39 f4       	brne	.+14     	; 0x5000 <__divsf3+0x80>
    4ff2:	1d 86       	std	Y+13, r1	; 0x0d
    4ff4:	1e 86       	std	Y+14, r1	; 0x0e
    4ff6:	1f 86       	std	Y+15, r1	; 0x0f
    4ff8:	18 8a       	std	Y+16, r1	; 0x10
    4ffa:	1c 86       	std	Y+12, r1	; 0x0c
    4ffc:	1b 86       	std	Y+11, r1	; 0x0b
    4ffe:	04 c0       	rjmp	.+8      	; 0x5008 <__divsf3+0x88>
    5000:	32 30       	cpi	r19, 0x02	; 2
    5002:	21 f4       	brne	.+8      	; 0x500c <__divsf3+0x8c>
    5004:	84 e0       	ldi	r24, 0x04	; 4
    5006:	89 87       	std	Y+9, r24	; 0x09
    5008:	b7 01       	movw	r22, r14
    500a:	5f c0       	rjmp	.+190    	; 0x50ca <__divsf3+0x14a>
    500c:	2b 85       	ldd	r18, Y+11	; 0x0b
    500e:	3c 85       	ldd	r19, Y+12	; 0x0c
    5010:	8b 89       	ldd	r24, Y+19	; 0x13
    5012:	9c 89       	ldd	r25, Y+20	; 0x14
    5014:	28 1b       	sub	r18, r24
    5016:	39 0b       	sbc	r19, r25
    5018:	3c 87       	std	Y+12, r19	; 0x0c
    501a:	2b 87       	std	Y+11, r18	; 0x0b
    501c:	ed 84       	ldd	r14, Y+13	; 0x0d
    501e:	fe 84       	ldd	r15, Y+14	; 0x0e
    5020:	0f 85       	ldd	r16, Y+15	; 0x0f
    5022:	18 89       	ldd	r17, Y+16	; 0x10
    5024:	ad 88       	ldd	r10, Y+21	; 0x15
    5026:	be 88       	ldd	r11, Y+22	; 0x16
    5028:	cf 88       	ldd	r12, Y+23	; 0x17
    502a:	d8 8c       	ldd	r13, Y+24	; 0x18
    502c:	ea 14       	cp	r14, r10
    502e:	fb 04       	cpc	r15, r11
    5030:	0c 05       	cpc	r16, r12
    5032:	1d 05       	cpc	r17, r13
    5034:	40 f4       	brcc	.+16     	; 0x5046 <__divsf3+0xc6>
    5036:	ee 0c       	add	r14, r14
    5038:	ff 1c       	adc	r15, r15
    503a:	00 1f       	adc	r16, r16
    503c:	11 1f       	adc	r17, r17
    503e:	21 50       	subi	r18, 0x01	; 1
    5040:	30 40       	sbci	r19, 0x00	; 0
    5042:	3c 87       	std	Y+12, r19	; 0x0c
    5044:	2b 87       	std	Y+11, r18	; 0x0b
    5046:	20 e0       	ldi	r18, 0x00	; 0
    5048:	30 e0       	ldi	r19, 0x00	; 0
    504a:	40 e0       	ldi	r20, 0x00	; 0
    504c:	50 e0       	ldi	r21, 0x00	; 0
    504e:	80 e0       	ldi	r24, 0x00	; 0
    5050:	90 e0       	ldi	r25, 0x00	; 0
    5052:	a0 e0       	ldi	r26, 0x00	; 0
    5054:	b0 e4       	ldi	r27, 0x40	; 64
    5056:	60 e0       	ldi	r22, 0x00	; 0
    5058:	70 e0       	ldi	r23, 0x00	; 0
    505a:	ea 14       	cp	r14, r10
    505c:	fb 04       	cpc	r15, r11
    505e:	0c 05       	cpc	r16, r12
    5060:	1d 05       	cpc	r17, r13
    5062:	40 f0       	brcs	.+16     	; 0x5074 <__divsf3+0xf4>
    5064:	28 2b       	or	r18, r24
    5066:	39 2b       	or	r19, r25
    5068:	4a 2b       	or	r20, r26
    506a:	5b 2b       	or	r21, r27
    506c:	ea 18       	sub	r14, r10
    506e:	fb 08       	sbc	r15, r11
    5070:	0c 09       	sbc	r16, r12
    5072:	1d 09       	sbc	r17, r13
    5074:	b6 95       	lsr	r27
    5076:	a7 95       	ror	r26
    5078:	97 95       	ror	r25
    507a:	87 95       	ror	r24
    507c:	ee 0c       	add	r14, r14
    507e:	ff 1c       	adc	r15, r15
    5080:	00 1f       	adc	r16, r16
    5082:	11 1f       	adc	r17, r17
    5084:	6f 5f       	subi	r22, 0xFF	; 255
    5086:	7f 4f       	sbci	r23, 0xFF	; 255
    5088:	6f 31       	cpi	r22, 0x1F	; 31
    508a:	71 05       	cpc	r23, r1
    508c:	31 f7       	brne	.-52     	; 0x505a <__divsf3+0xda>
    508e:	da 01       	movw	r26, r20
    5090:	c9 01       	movw	r24, r18
    5092:	8f 77       	andi	r24, 0x7F	; 127
    5094:	90 70       	andi	r25, 0x00	; 0
    5096:	a0 70       	andi	r26, 0x00	; 0
    5098:	b0 70       	andi	r27, 0x00	; 0
    509a:	80 34       	cpi	r24, 0x40	; 64
    509c:	91 05       	cpc	r25, r1
    509e:	a1 05       	cpc	r26, r1
    50a0:	b1 05       	cpc	r27, r1
    50a2:	61 f4       	brne	.+24     	; 0x50bc <__divsf3+0x13c>
    50a4:	27 fd       	sbrc	r18, 7
    50a6:	0a c0       	rjmp	.+20     	; 0x50bc <__divsf3+0x13c>
    50a8:	e1 14       	cp	r14, r1
    50aa:	f1 04       	cpc	r15, r1
    50ac:	01 05       	cpc	r16, r1
    50ae:	11 05       	cpc	r17, r1
    50b0:	29 f0       	breq	.+10     	; 0x50bc <__divsf3+0x13c>
    50b2:	20 5c       	subi	r18, 0xC0	; 192
    50b4:	3f 4f       	sbci	r19, 0xFF	; 255
    50b6:	4f 4f       	sbci	r20, 0xFF	; 255
    50b8:	5f 4f       	sbci	r21, 0xFF	; 255
    50ba:	20 78       	andi	r18, 0x80	; 128
    50bc:	2d 87       	std	Y+13, r18	; 0x0d
    50be:	3e 87       	std	Y+14, r19	; 0x0e
    50c0:	4f 87       	std	Y+15, r20	; 0x0f
    50c2:	58 8b       	std	Y+16, r21	; 0x10
    50c4:	be 01       	movw	r22, r28
    50c6:	67 5f       	subi	r22, 0xF7	; 247
    50c8:	7f 4f       	sbci	r23, 0xFF	; 255
    50ca:	cb 01       	movw	r24, r22
    50cc:	0e 94 c0 28 	call	0x5180	; 0x5180 <__pack_f>
    50d0:	68 96       	adiw	r28, 0x18	; 24
    50d2:	ea e0       	ldi	r30, 0x0A	; 10
    50d4:	0c 94 72 2a 	jmp	0x54e4	; 0x54e4 <__epilogue_restores__+0x10>

000050d8 <__fixsfsi>:
    50d8:	ac e0       	ldi	r26, 0x0C	; 12
    50da:	b0 e0       	ldi	r27, 0x00	; 0
    50dc:	e2 e7       	ldi	r30, 0x72	; 114
    50de:	f8 e2       	ldi	r31, 0x28	; 40
    50e0:	0c 94 5e 2a 	jmp	0x54bc	; 0x54bc <__prologue_saves__+0x20>
    50e4:	69 83       	std	Y+1, r22	; 0x01
    50e6:	7a 83       	std	Y+2, r23	; 0x02
    50e8:	8b 83       	std	Y+3, r24	; 0x03
    50ea:	9c 83       	std	Y+4, r25	; 0x04
    50ec:	ce 01       	movw	r24, r28
    50ee:	01 96       	adiw	r24, 0x01	; 1
    50f0:	be 01       	movw	r22, r28
    50f2:	6b 5f       	subi	r22, 0xFB	; 251
    50f4:	7f 4f       	sbci	r23, 0xFF	; 255
    50f6:	0e 94 95 29 	call	0x532a	; 0x532a <__unpack_f>
    50fa:	8d 81       	ldd	r24, Y+5	; 0x05
    50fc:	82 30       	cpi	r24, 0x02	; 2
    50fe:	61 f1       	breq	.+88     	; 0x5158 <__fixsfsi+0x80>
    5100:	82 30       	cpi	r24, 0x02	; 2
    5102:	50 f1       	brcs	.+84     	; 0x5158 <__fixsfsi+0x80>
    5104:	84 30       	cpi	r24, 0x04	; 4
    5106:	21 f4       	brne	.+8      	; 0x5110 <__fixsfsi+0x38>
    5108:	8e 81       	ldd	r24, Y+6	; 0x06
    510a:	88 23       	and	r24, r24
    510c:	51 f1       	breq	.+84     	; 0x5162 <__fixsfsi+0x8a>
    510e:	2e c0       	rjmp	.+92     	; 0x516c <__fixsfsi+0x94>
    5110:	2f 81       	ldd	r18, Y+7	; 0x07
    5112:	38 85       	ldd	r19, Y+8	; 0x08
    5114:	37 fd       	sbrc	r19, 7
    5116:	20 c0       	rjmp	.+64     	; 0x5158 <__fixsfsi+0x80>
    5118:	6e 81       	ldd	r22, Y+6	; 0x06
    511a:	2f 31       	cpi	r18, 0x1F	; 31
    511c:	31 05       	cpc	r19, r1
    511e:	1c f0       	brlt	.+6      	; 0x5126 <__fixsfsi+0x4e>
    5120:	66 23       	and	r22, r22
    5122:	f9 f0       	breq	.+62     	; 0x5162 <__fixsfsi+0x8a>
    5124:	23 c0       	rjmp	.+70     	; 0x516c <__fixsfsi+0x94>
    5126:	8e e1       	ldi	r24, 0x1E	; 30
    5128:	90 e0       	ldi	r25, 0x00	; 0
    512a:	82 1b       	sub	r24, r18
    512c:	93 0b       	sbc	r25, r19
    512e:	29 85       	ldd	r18, Y+9	; 0x09
    5130:	3a 85       	ldd	r19, Y+10	; 0x0a
    5132:	4b 85       	ldd	r20, Y+11	; 0x0b
    5134:	5c 85       	ldd	r21, Y+12	; 0x0c
    5136:	04 c0       	rjmp	.+8      	; 0x5140 <__fixsfsi+0x68>
    5138:	56 95       	lsr	r21
    513a:	47 95       	ror	r20
    513c:	37 95       	ror	r19
    513e:	27 95       	ror	r18
    5140:	8a 95       	dec	r24
    5142:	d2 f7       	brpl	.-12     	; 0x5138 <__fixsfsi+0x60>
    5144:	66 23       	and	r22, r22
    5146:	b1 f0       	breq	.+44     	; 0x5174 <__fixsfsi+0x9c>
    5148:	50 95       	com	r21
    514a:	40 95       	com	r20
    514c:	30 95       	com	r19
    514e:	21 95       	neg	r18
    5150:	3f 4f       	sbci	r19, 0xFF	; 255
    5152:	4f 4f       	sbci	r20, 0xFF	; 255
    5154:	5f 4f       	sbci	r21, 0xFF	; 255
    5156:	0e c0       	rjmp	.+28     	; 0x5174 <__fixsfsi+0x9c>
    5158:	20 e0       	ldi	r18, 0x00	; 0
    515a:	30 e0       	ldi	r19, 0x00	; 0
    515c:	40 e0       	ldi	r20, 0x00	; 0
    515e:	50 e0       	ldi	r21, 0x00	; 0
    5160:	09 c0       	rjmp	.+18     	; 0x5174 <__fixsfsi+0x9c>
    5162:	2f ef       	ldi	r18, 0xFF	; 255
    5164:	3f ef       	ldi	r19, 0xFF	; 255
    5166:	4f ef       	ldi	r20, 0xFF	; 255
    5168:	5f e7       	ldi	r21, 0x7F	; 127
    516a:	04 c0       	rjmp	.+8      	; 0x5174 <__fixsfsi+0x9c>
    516c:	20 e0       	ldi	r18, 0x00	; 0
    516e:	30 e0       	ldi	r19, 0x00	; 0
    5170:	40 e0       	ldi	r20, 0x00	; 0
    5172:	50 e8       	ldi	r21, 0x80	; 128
    5174:	b9 01       	movw	r22, r18
    5176:	ca 01       	movw	r24, r20
    5178:	2c 96       	adiw	r28, 0x0c	; 12
    517a:	e2 e0       	ldi	r30, 0x02	; 2
    517c:	0c 94 7a 2a 	jmp	0x54f4	; 0x54f4 <__epilogue_restores__+0x20>

00005180 <__pack_f>:
    5180:	df 92       	push	r13
    5182:	ef 92       	push	r14
    5184:	ff 92       	push	r15
    5186:	0f 93       	push	r16
    5188:	1f 93       	push	r17
    518a:	fc 01       	movw	r30, r24
    518c:	e4 80       	ldd	r14, Z+4	; 0x04
    518e:	f5 80       	ldd	r15, Z+5	; 0x05
    5190:	06 81       	ldd	r16, Z+6	; 0x06
    5192:	17 81       	ldd	r17, Z+7	; 0x07
    5194:	d1 80       	ldd	r13, Z+1	; 0x01
    5196:	80 81       	ld	r24, Z
    5198:	82 30       	cpi	r24, 0x02	; 2
    519a:	48 f4       	brcc	.+18     	; 0x51ae <__pack_f+0x2e>
    519c:	80 e0       	ldi	r24, 0x00	; 0
    519e:	90 e0       	ldi	r25, 0x00	; 0
    51a0:	a0 e1       	ldi	r26, 0x10	; 16
    51a2:	b0 e0       	ldi	r27, 0x00	; 0
    51a4:	e8 2a       	or	r14, r24
    51a6:	f9 2a       	or	r15, r25
    51a8:	0a 2b       	or	r16, r26
    51aa:	1b 2b       	or	r17, r27
    51ac:	a5 c0       	rjmp	.+330    	; 0x52f8 <__pack_f+0x178>
    51ae:	84 30       	cpi	r24, 0x04	; 4
    51b0:	09 f4       	brne	.+2      	; 0x51b4 <__pack_f+0x34>
    51b2:	9f c0       	rjmp	.+318    	; 0x52f2 <__pack_f+0x172>
    51b4:	82 30       	cpi	r24, 0x02	; 2
    51b6:	21 f4       	brne	.+8      	; 0x51c0 <__pack_f+0x40>
    51b8:	ee 24       	eor	r14, r14
    51ba:	ff 24       	eor	r15, r15
    51bc:	87 01       	movw	r16, r14
    51be:	05 c0       	rjmp	.+10     	; 0x51ca <__pack_f+0x4a>
    51c0:	e1 14       	cp	r14, r1
    51c2:	f1 04       	cpc	r15, r1
    51c4:	01 05       	cpc	r16, r1
    51c6:	11 05       	cpc	r17, r1
    51c8:	19 f4       	brne	.+6      	; 0x51d0 <__pack_f+0x50>
    51ca:	e0 e0       	ldi	r30, 0x00	; 0
    51cc:	f0 e0       	ldi	r31, 0x00	; 0
    51ce:	96 c0       	rjmp	.+300    	; 0x52fc <__pack_f+0x17c>
    51d0:	62 81       	ldd	r22, Z+2	; 0x02
    51d2:	73 81       	ldd	r23, Z+3	; 0x03
    51d4:	9f ef       	ldi	r25, 0xFF	; 255
    51d6:	62 38       	cpi	r22, 0x82	; 130
    51d8:	79 07       	cpc	r23, r25
    51da:	0c f0       	brlt	.+2      	; 0x51de <__pack_f+0x5e>
    51dc:	5b c0       	rjmp	.+182    	; 0x5294 <__pack_f+0x114>
    51de:	22 e8       	ldi	r18, 0x82	; 130
    51e0:	3f ef       	ldi	r19, 0xFF	; 255
    51e2:	26 1b       	sub	r18, r22
    51e4:	37 0b       	sbc	r19, r23
    51e6:	2a 31       	cpi	r18, 0x1A	; 26
    51e8:	31 05       	cpc	r19, r1
    51ea:	2c f0       	brlt	.+10     	; 0x51f6 <__pack_f+0x76>
    51ec:	20 e0       	ldi	r18, 0x00	; 0
    51ee:	30 e0       	ldi	r19, 0x00	; 0
    51f0:	40 e0       	ldi	r20, 0x00	; 0
    51f2:	50 e0       	ldi	r21, 0x00	; 0
    51f4:	2a c0       	rjmp	.+84     	; 0x524a <__pack_f+0xca>
    51f6:	b8 01       	movw	r22, r16
    51f8:	a7 01       	movw	r20, r14
    51fa:	02 2e       	mov	r0, r18
    51fc:	04 c0       	rjmp	.+8      	; 0x5206 <__pack_f+0x86>
    51fe:	76 95       	lsr	r23
    5200:	67 95       	ror	r22
    5202:	57 95       	ror	r21
    5204:	47 95       	ror	r20
    5206:	0a 94       	dec	r0
    5208:	d2 f7       	brpl	.-12     	; 0x51fe <__pack_f+0x7e>
    520a:	81 e0       	ldi	r24, 0x01	; 1
    520c:	90 e0       	ldi	r25, 0x00	; 0
    520e:	a0 e0       	ldi	r26, 0x00	; 0
    5210:	b0 e0       	ldi	r27, 0x00	; 0
    5212:	04 c0       	rjmp	.+8      	; 0x521c <__pack_f+0x9c>
    5214:	88 0f       	add	r24, r24
    5216:	99 1f       	adc	r25, r25
    5218:	aa 1f       	adc	r26, r26
    521a:	bb 1f       	adc	r27, r27
    521c:	2a 95       	dec	r18
    521e:	d2 f7       	brpl	.-12     	; 0x5214 <__pack_f+0x94>
    5220:	01 97       	sbiw	r24, 0x01	; 1
    5222:	a1 09       	sbc	r26, r1
    5224:	b1 09       	sbc	r27, r1
    5226:	8e 21       	and	r24, r14
    5228:	9f 21       	and	r25, r15
    522a:	a0 23       	and	r26, r16
    522c:	b1 23       	and	r27, r17
    522e:	00 97       	sbiw	r24, 0x00	; 0
    5230:	a1 05       	cpc	r26, r1
    5232:	b1 05       	cpc	r27, r1
    5234:	21 f0       	breq	.+8      	; 0x523e <__pack_f+0xbe>
    5236:	81 e0       	ldi	r24, 0x01	; 1
    5238:	90 e0       	ldi	r25, 0x00	; 0
    523a:	a0 e0       	ldi	r26, 0x00	; 0
    523c:	b0 e0       	ldi	r27, 0x00	; 0
    523e:	9a 01       	movw	r18, r20
    5240:	ab 01       	movw	r20, r22
    5242:	28 2b       	or	r18, r24
    5244:	39 2b       	or	r19, r25
    5246:	4a 2b       	or	r20, r26
    5248:	5b 2b       	or	r21, r27
    524a:	da 01       	movw	r26, r20
    524c:	c9 01       	movw	r24, r18
    524e:	8f 77       	andi	r24, 0x7F	; 127
    5250:	90 70       	andi	r25, 0x00	; 0
    5252:	a0 70       	andi	r26, 0x00	; 0
    5254:	b0 70       	andi	r27, 0x00	; 0
    5256:	80 34       	cpi	r24, 0x40	; 64
    5258:	91 05       	cpc	r25, r1
    525a:	a1 05       	cpc	r26, r1
    525c:	b1 05       	cpc	r27, r1
    525e:	39 f4       	brne	.+14     	; 0x526e <__pack_f+0xee>
    5260:	27 ff       	sbrs	r18, 7
    5262:	09 c0       	rjmp	.+18     	; 0x5276 <__pack_f+0xf6>
    5264:	20 5c       	subi	r18, 0xC0	; 192
    5266:	3f 4f       	sbci	r19, 0xFF	; 255
    5268:	4f 4f       	sbci	r20, 0xFF	; 255
    526a:	5f 4f       	sbci	r21, 0xFF	; 255
    526c:	04 c0       	rjmp	.+8      	; 0x5276 <__pack_f+0xf6>
    526e:	21 5c       	subi	r18, 0xC1	; 193
    5270:	3f 4f       	sbci	r19, 0xFF	; 255
    5272:	4f 4f       	sbci	r20, 0xFF	; 255
    5274:	5f 4f       	sbci	r21, 0xFF	; 255
    5276:	e0 e0       	ldi	r30, 0x00	; 0
    5278:	f0 e0       	ldi	r31, 0x00	; 0
    527a:	20 30       	cpi	r18, 0x00	; 0
    527c:	a0 e0       	ldi	r26, 0x00	; 0
    527e:	3a 07       	cpc	r19, r26
    5280:	a0 e0       	ldi	r26, 0x00	; 0
    5282:	4a 07       	cpc	r20, r26
    5284:	a0 e4       	ldi	r26, 0x40	; 64
    5286:	5a 07       	cpc	r21, r26
    5288:	10 f0       	brcs	.+4      	; 0x528e <__pack_f+0x10e>
    528a:	e1 e0       	ldi	r30, 0x01	; 1
    528c:	f0 e0       	ldi	r31, 0x00	; 0
    528e:	79 01       	movw	r14, r18
    5290:	8a 01       	movw	r16, r20
    5292:	27 c0       	rjmp	.+78     	; 0x52e2 <__pack_f+0x162>
    5294:	60 38       	cpi	r22, 0x80	; 128
    5296:	71 05       	cpc	r23, r1
    5298:	64 f5       	brge	.+88     	; 0x52f2 <__pack_f+0x172>
    529a:	fb 01       	movw	r30, r22
    529c:	e1 58       	subi	r30, 0x81	; 129
    529e:	ff 4f       	sbci	r31, 0xFF	; 255
    52a0:	d8 01       	movw	r26, r16
    52a2:	c7 01       	movw	r24, r14
    52a4:	8f 77       	andi	r24, 0x7F	; 127
    52a6:	90 70       	andi	r25, 0x00	; 0
    52a8:	a0 70       	andi	r26, 0x00	; 0
    52aa:	b0 70       	andi	r27, 0x00	; 0
    52ac:	80 34       	cpi	r24, 0x40	; 64
    52ae:	91 05       	cpc	r25, r1
    52b0:	a1 05       	cpc	r26, r1
    52b2:	b1 05       	cpc	r27, r1
    52b4:	39 f4       	brne	.+14     	; 0x52c4 <__pack_f+0x144>
    52b6:	e7 fe       	sbrs	r14, 7
    52b8:	0d c0       	rjmp	.+26     	; 0x52d4 <__pack_f+0x154>
    52ba:	80 e4       	ldi	r24, 0x40	; 64
    52bc:	90 e0       	ldi	r25, 0x00	; 0
    52be:	a0 e0       	ldi	r26, 0x00	; 0
    52c0:	b0 e0       	ldi	r27, 0x00	; 0
    52c2:	04 c0       	rjmp	.+8      	; 0x52cc <__pack_f+0x14c>
    52c4:	8f e3       	ldi	r24, 0x3F	; 63
    52c6:	90 e0       	ldi	r25, 0x00	; 0
    52c8:	a0 e0       	ldi	r26, 0x00	; 0
    52ca:	b0 e0       	ldi	r27, 0x00	; 0
    52cc:	e8 0e       	add	r14, r24
    52ce:	f9 1e       	adc	r15, r25
    52d0:	0a 1f       	adc	r16, r26
    52d2:	1b 1f       	adc	r17, r27
    52d4:	17 ff       	sbrs	r17, 7
    52d6:	05 c0       	rjmp	.+10     	; 0x52e2 <__pack_f+0x162>
    52d8:	16 95       	lsr	r17
    52da:	07 95       	ror	r16
    52dc:	f7 94       	ror	r15
    52de:	e7 94       	ror	r14
    52e0:	31 96       	adiw	r30, 0x01	; 1
    52e2:	87 e0       	ldi	r24, 0x07	; 7
    52e4:	16 95       	lsr	r17
    52e6:	07 95       	ror	r16
    52e8:	f7 94       	ror	r15
    52ea:	e7 94       	ror	r14
    52ec:	8a 95       	dec	r24
    52ee:	d1 f7       	brne	.-12     	; 0x52e4 <__pack_f+0x164>
    52f0:	05 c0       	rjmp	.+10     	; 0x52fc <__pack_f+0x17c>
    52f2:	ee 24       	eor	r14, r14
    52f4:	ff 24       	eor	r15, r15
    52f6:	87 01       	movw	r16, r14
    52f8:	ef ef       	ldi	r30, 0xFF	; 255
    52fa:	f0 e0       	ldi	r31, 0x00	; 0
    52fc:	6e 2f       	mov	r22, r30
    52fe:	67 95       	ror	r22
    5300:	66 27       	eor	r22, r22
    5302:	67 95       	ror	r22
    5304:	90 2f       	mov	r25, r16
    5306:	9f 77       	andi	r25, 0x7F	; 127
    5308:	d7 94       	ror	r13
    530a:	dd 24       	eor	r13, r13
    530c:	d7 94       	ror	r13
    530e:	8e 2f       	mov	r24, r30
    5310:	86 95       	lsr	r24
    5312:	49 2f       	mov	r20, r25
    5314:	46 2b       	or	r20, r22
    5316:	58 2f       	mov	r21, r24
    5318:	5d 29       	or	r21, r13
    531a:	b7 01       	movw	r22, r14
    531c:	ca 01       	movw	r24, r20
    531e:	1f 91       	pop	r17
    5320:	0f 91       	pop	r16
    5322:	ff 90       	pop	r15
    5324:	ef 90       	pop	r14
    5326:	df 90       	pop	r13
    5328:	08 95       	ret

0000532a <__unpack_f>:
    532a:	fc 01       	movw	r30, r24
    532c:	db 01       	movw	r26, r22
    532e:	40 81       	ld	r20, Z
    5330:	51 81       	ldd	r21, Z+1	; 0x01
    5332:	22 81       	ldd	r18, Z+2	; 0x02
    5334:	62 2f       	mov	r22, r18
    5336:	6f 77       	andi	r22, 0x7F	; 127
    5338:	70 e0       	ldi	r23, 0x00	; 0
    533a:	22 1f       	adc	r18, r18
    533c:	22 27       	eor	r18, r18
    533e:	22 1f       	adc	r18, r18
    5340:	93 81       	ldd	r25, Z+3	; 0x03
    5342:	89 2f       	mov	r24, r25
    5344:	88 0f       	add	r24, r24
    5346:	82 2b       	or	r24, r18
    5348:	28 2f       	mov	r18, r24
    534a:	30 e0       	ldi	r19, 0x00	; 0
    534c:	99 1f       	adc	r25, r25
    534e:	99 27       	eor	r25, r25
    5350:	99 1f       	adc	r25, r25
    5352:	11 96       	adiw	r26, 0x01	; 1
    5354:	9c 93       	st	X, r25
    5356:	11 97       	sbiw	r26, 0x01	; 1
    5358:	21 15       	cp	r18, r1
    535a:	31 05       	cpc	r19, r1
    535c:	a9 f5       	brne	.+106    	; 0x53c8 <__unpack_f+0x9e>
    535e:	41 15       	cp	r20, r1
    5360:	51 05       	cpc	r21, r1
    5362:	61 05       	cpc	r22, r1
    5364:	71 05       	cpc	r23, r1
    5366:	11 f4       	brne	.+4      	; 0x536c <__unpack_f+0x42>
    5368:	82 e0       	ldi	r24, 0x02	; 2
    536a:	37 c0       	rjmp	.+110    	; 0x53da <__unpack_f+0xb0>
    536c:	82 e8       	ldi	r24, 0x82	; 130
    536e:	9f ef       	ldi	r25, 0xFF	; 255
    5370:	13 96       	adiw	r26, 0x03	; 3
    5372:	9c 93       	st	X, r25
    5374:	8e 93       	st	-X, r24
    5376:	12 97       	sbiw	r26, 0x02	; 2
    5378:	9a 01       	movw	r18, r20
    537a:	ab 01       	movw	r20, r22
    537c:	67 e0       	ldi	r22, 0x07	; 7
    537e:	22 0f       	add	r18, r18
    5380:	33 1f       	adc	r19, r19
    5382:	44 1f       	adc	r20, r20
    5384:	55 1f       	adc	r21, r21
    5386:	6a 95       	dec	r22
    5388:	d1 f7       	brne	.-12     	; 0x537e <__unpack_f+0x54>
    538a:	83 e0       	ldi	r24, 0x03	; 3
    538c:	8c 93       	st	X, r24
    538e:	0d c0       	rjmp	.+26     	; 0x53aa <__unpack_f+0x80>
    5390:	22 0f       	add	r18, r18
    5392:	33 1f       	adc	r19, r19
    5394:	44 1f       	adc	r20, r20
    5396:	55 1f       	adc	r21, r21
    5398:	12 96       	adiw	r26, 0x02	; 2
    539a:	8d 91       	ld	r24, X+
    539c:	9c 91       	ld	r25, X
    539e:	13 97       	sbiw	r26, 0x03	; 3
    53a0:	01 97       	sbiw	r24, 0x01	; 1
    53a2:	13 96       	adiw	r26, 0x03	; 3
    53a4:	9c 93       	st	X, r25
    53a6:	8e 93       	st	-X, r24
    53a8:	12 97       	sbiw	r26, 0x02	; 2
    53aa:	20 30       	cpi	r18, 0x00	; 0
    53ac:	80 e0       	ldi	r24, 0x00	; 0
    53ae:	38 07       	cpc	r19, r24
    53b0:	80 e0       	ldi	r24, 0x00	; 0
    53b2:	48 07       	cpc	r20, r24
    53b4:	80 e4       	ldi	r24, 0x40	; 64
    53b6:	58 07       	cpc	r21, r24
    53b8:	58 f3       	brcs	.-42     	; 0x5390 <__unpack_f+0x66>
    53ba:	14 96       	adiw	r26, 0x04	; 4
    53bc:	2d 93       	st	X+, r18
    53be:	3d 93       	st	X+, r19
    53c0:	4d 93       	st	X+, r20
    53c2:	5c 93       	st	X, r21
    53c4:	17 97       	sbiw	r26, 0x07	; 7
    53c6:	08 95       	ret
    53c8:	2f 3f       	cpi	r18, 0xFF	; 255
    53ca:	31 05       	cpc	r19, r1
    53cc:	79 f4       	brne	.+30     	; 0x53ec <__unpack_f+0xc2>
    53ce:	41 15       	cp	r20, r1
    53d0:	51 05       	cpc	r21, r1
    53d2:	61 05       	cpc	r22, r1
    53d4:	71 05       	cpc	r23, r1
    53d6:	19 f4       	brne	.+6      	; 0x53de <__unpack_f+0xb4>
    53d8:	84 e0       	ldi	r24, 0x04	; 4
    53da:	8c 93       	st	X, r24
    53dc:	08 95       	ret
    53de:	64 ff       	sbrs	r22, 4
    53e0:	03 c0       	rjmp	.+6      	; 0x53e8 <__unpack_f+0xbe>
    53e2:	81 e0       	ldi	r24, 0x01	; 1
    53e4:	8c 93       	st	X, r24
    53e6:	12 c0       	rjmp	.+36     	; 0x540c <__unpack_f+0xe2>
    53e8:	1c 92       	st	X, r1
    53ea:	10 c0       	rjmp	.+32     	; 0x540c <__unpack_f+0xe2>
    53ec:	2f 57       	subi	r18, 0x7F	; 127
    53ee:	30 40       	sbci	r19, 0x00	; 0
    53f0:	13 96       	adiw	r26, 0x03	; 3
    53f2:	3c 93       	st	X, r19
    53f4:	2e 93       	st	-X, r18
    53f6:	12 97       	sbiw	r26, 0x02	; 2
    53f8:	83 e0       	ldi	r24, 0x03	; 3
    53fa:	8c 93       	st	X, r24
    53fc:	87 e0       	ldi	r24, 0x07	; 7
    53fe:	44 0f       	add	r20, r20
    5400:	55 1f       	adc	r21, r21
    5402:	66 1f       	adc	r22, r22
    5404:	77 1f       	adc	r23, r23
    5406:	8a 95       	dec	r24
    5408:	d1 f7       	brne	.-12     	; 0x53fe <__unpack_f+0xd4>
    540a:	70 64       	ori	r23, 0x40	; 64
    540c:	14 96       	adiw	r26, 0x04	; 4
    540e:	4d 93       	st	X+, r20
    5410:	5d 93       	st	X+, r21
    5412:	6d 93       	st	X+, r22
    5414:	7c 93       	st	X, r23
    5416:	17 97       	sbiw	r26, 0x07	; 7
    5418:	08 95       	ret

0000541a <__mulsi3>:
    541a:	62 9f       	mul	r22, r18
    541c:	d0 01       	movw	r26, r0
    541e:	73 9f       	mul	r23, r19
    5420:	f0 01       	movw	r30, r0
    5422:	82 9f       	mul	r24, r18
    5424:	e0 0d       	add	r30, r0
    5426:	f1 1d       	adc	r31, r1
    5428:	64 9f       	mul	r22, r20
    542a:	e0 0d       	add	r30, r0
    542c:	f1 1d       	adc	r31, r1
    542e:	92 9f       	mul	r25, r18
    5430:	f0 0d       	add	r31, r0
    5432:	83 9f       	mul	r24, r19
    5434:	f0 0d       	add	r31, r0
    5436:	74 9f       	mul	r23, r20
    5438:	f0 0d       	add	r31, r0
    543a:	65 9f       	mul	r22, r21
    543c:	f0 0d       	add	r31, r0
    543e:	99 27       	eor	r25, r25
    5440:	72 9f       	mul	r23, r18
    5442:	b0 0d       	add	r27, r0
    5444:	e1 1d       	adc	r30, r1
    5446:	f9 1f       	adc	r31, r25
    5448:	63 9f       	mul	r22, r19
    544a:	b0 0d       	add	r27, r0
    544c:	e1 1d       	adc	r30, r1
    544e:	f9 1f       	adc	r31, r25
    5450:	bd 01       	movw	r22, r26
    5452:	cf 01       	movw	r24, r30
    5454:	11 24       	eor	r1, r1
    5456:	08 95       	ret

00005458 <__udivmodsi4>:
    5458:	a1 e2       	ldi	r26, 0x21	; 33
    545a:	1a 2e       	mov	r1, r26
    545c:	aa 1b       	sub	r26, r26
    545e:	bb 1b       	sub	r27, r27
    5460:	fd 01       	movw	r30, r26
    5462:	0d c0       	rjmp	.+26     	; 0x547e <__udivmodsi4_ep>

00005464 <__udivmodsi4_loop>:
    5464:	aa 1f       	adc	r26, r26
    5466:	bb 1f       	adc	r27, r27
    5468:	ee 1f       	adc	r30, r30
    546a:	ff 1f       	adc	r31, r31
    546c:	a2 17       	cp	r26, r18
    546e:	b3 07       	cpc	r27, r19
    5470:	e4 07       	cpc	r30, r20
    5472:	f5 07       	cpc	r31, r21
    5474:	20 f0       	brcs	.+8      	; 0x547e <__udivmodsi4_ep>
    5476:	a2 1b       	sub	r26, r18
    5478:	b3 0b       	sbc	r27, r19
    547a:	e4 0b       	sbc	r30, r20
    547c:	f5 0b       	sbc	r31, r21

0000547e <__udivmodsi4_ep>:
    547e:	66 1f       	adc	r22, r22
    5480:	77 1f       	adc	r23, r23
    5482:	88 1f       	adc	r24, r24
    5484:	99 1f       	adc	r25, r25
    5486:	1a 94       	dec	r1
    5488:	69 f7       	brne	.-38     	; 0x5464 <__udivmodsi4_loop>
    548a:	60 95       	com	r22
    548c:	70 95       	com	r23
    548e:	80 95       	com	r24
    5490:	90 95       	com	r25
    5492:	9b 01       	movw	r18, r22
    5494:	ac 01       	movw	r20, r24
    5496:	bd 01       	movw	r22, r26
    5498:	cf 01       	movw	r24, r30
    549a:	08 95       	ret

0000549c <__prologue_saves__>:
    549c:	2f 92       	push	r2
    549e:	3f 92       	push	r3
    54a0:	4f 92       	push	r4
    54a2:	5f 92       	push	r5
    54a4:	6f 92       	push	r6
    54a6:	7f 92       	push	r7
    54a8:	8f 92       	push	r8
    54aa:	9f 92       	push	r9
    54ac:	af 92       	push	r10
    54ae:	bf 92       	push	r11
    54b0:	cf 92       	push	r12
    54b2:	df 92       	push	r13
    54b4:	ef 92       	push	r14
    54b6:	ff 92       	push	r15
    54b8:	0f 93       	push	r16
    54ba:	1f 93       	push	r17
    54bc:	cf 93       	push	r28
    54be:	df 93       	push	r29
    54c0:	cd b7       	in	r28, 0x3d	; 61
    54c2:	de b7       	in	r29, 0x3e	; 62
    54c4:	ca 1b       	sub	r28, r26
    54c6:	db 0b       	sbc	r29, r27
    54c8:	0f b6       	in	r0, 0x3f	; 63
    54ca:	f8 94       	cli
    54cc:	de bf       	out	0x3e, r29	; 62
    54ce:	0f be       	out	0x3f, r0	; 63
    54d0:	cd bf       	out	0x3d, r28	; 61
    54d2:	09 94       	ijmp

000054d4 <__epilogue_restores__>:
    54d4:	2a 88       	ldd	r2, Y+18	; 0x12
    54d6:	39 88       	ldd	r3, Y+17	; 0x11
    54d8:	48 88       	ldd	r4, Y+16	; 0x10
    54da:	5f 84       	ldd	r5, Y+15	; 0x0f
    54dc:	6e 84       	ldd	r6, Y+14	; 0x0e
    54de:	7d 84       	ldd	r7, Y+13	; 0x0d
    54e0:	8c 84       	ldd	r8, Y+12	; 0x0c
    54e2:	9b 84       	ldd	r9, Y+11	; 0x0b
    54e4:	aa 84       	ldd	r10, Y+10	; 0x0a
    54e6:	b9 84       	ldd	r11, Y+9	; 0x09
    54e8:	c8 84       	ldd	r12, Y+8	; 0x08
    54ea:	df 80       	ldd	r13, Y+7	; 0x07
    54ec:	ee 80       	ldd	r14, Y+6	; 0x06
    54ee:	fd 80       	ldd	r15, Y+5	; 0x05
    54f0:	0c 81       	ldd	r16, Y+4	; 0x04
    54f2:	1b 81       	ldd	r17, Y+3	; 0x03
    54f4:	aa 81       	ldd	r26, Y+2	; 0x02
    54f6:	b9 81       	ldd	r27, Y+1	; 0x01
    54f8:	ce 0f       	add	r28, r30
    54fa:	d1 1d       	adc	r29, r1
    54fc:	0f b6       	in	r0, 0x3f	; 63
    54fe:	f8 94       	cli
    5500:	de bf       	out	0x3e, r29	; 62
    5502:	0f be       	out	0x3f, r0	; 63
    5504:	cd bf       	out	0x3d, r28	; 61
    5506:	ed 01       	movw	r28, r26
    5508:	08 95       	ret

0000550a <__tablejump2__>:
    550a:	ee 0f       	add	r30, r30
    550c:	ff 1f       	adc	r31, r31

0000550e <__tablejump__>:
    550e:	05 90       	lpm	r0, Z+
    5510:	f4 91       	lpm	r31, Z+
    5512:	e0 2d       	mov	r30, r0
    5514:	09 94       	ijmp

00005516 <atoi>:
    5516:	fc 01       	movw	r30, r24
    5518:	88 27       	eor	r24, r24
    551a:	99 27       	eor	r25, r25
    551c:	e8 94       	clt
    551e:	21 91       	ld	r18, Z+
    5520:	20 32       	cpi	r18, 0x20	; 32
    5522:	e9 f3       	breq	.-6      	; 0x551e <atoi+0x8>
    5524:	29 30       	cpi	r18, 0x09	; 9
    5526:	10 f0       	brcs	.+4      	; 0x552c <atoi+0x16>
    5528:	2e 30       	cpi	r18, 0x0E	; 14
    552a:	c8 f3       	brcs	.-14     	; 0x551e <atoi+0x8>
    552c:	2b 32       	cpi	r18, 0x2B	; 43
    552e:	41 f0       	breq	.+16     	; 0x5540 <atoi+0x2a>
    5530:	2d 32       	cpi	r18, 0x2D	; 45
    5532:	39 f4       	brne	.+14     	; 0x5542 <atoi+0x2c>
    5534:	68 94       	set
    5536:	04 c0       	rjmp	.+8      	; 0x5540 <atoi+0x2a>
    5538:	0e 94 a9 2a 	call	0x5552	; 0x5552 <__mulhi_const_10>
    553c:	82 0f       	add	r24, r18
    553e:	91 1d       	adc	r25, r1
    5540:	21 91       	ld	r18, Z+
    5542:	20 53       	subi	r18, 0x30	; 48
    5544:	2a 30       	cpi	r18, 0x0A	; 10
    5546:	c0 f3       	brcs	.-16     	; 0x5538 <atoi+0x22>
    5548:	1e f4       	brtc	.+6      	; 0x5550 <atoi+0x3a>
    554a:	90 95       	com	r25
    554c:	81 95       	neg	r24
    554e:	9f 4f       	sbci	r25, 0xFF	; 255
    5550:	08 95       	ret

00005552 <__mulhi_const_10>:
    5552:	7a e0       	ldi	r23, 0x0A	; 10
    5554:	97 9f       	mul	r25, r23
    5556:	90 2d       	mov	r25, r0
    5558:	87 9f       	mul	r24, r23
    555a:	80 2d       	mov	r24, r0
    555c:	91 0d       	add	r25, r1
    555e:	11 24       	eor	r1, r1
    5560:	08 95       	ret

00005562 <_exit>:
    5562:	f8 94       	cli

00005564 <__stop_program>:
    5564:	ff cf       	rjmp	.-2      	; 0x5564 <__stop_program>
