
can_collector_node_example_gcc.elf:     file format elf32-avr

Sections:
Idx Name          Size      VMA       LMA       File off  Algn
  0 .data         0000025a  00800100  00002d86  00002dfa  2**0
                  CONTENTS, ALLOC, LOAD, DATA
  1 .text         00002d86  00000000  00000000  00000074  2**1
                  CONTENTS, ALLOC, LOAD, READONLY, CODE
  2 .bss          0000000b  0080035a  00002fe0  00003054  2**0
                  ALLOC
  3 .stab         00000750  00000000  00000000  00003054  2**2
                  CONTENTS, READONLY, DEBUGGING
  4 .stabstr      00000054  00000000  00000000  000037a4  2**0
                  CONTENTS, READONLY, DEBUGGING
  5 .debug_aranges 000000e0  00000000  00000000  000037f8  2**0
                  CONTENTS, READONLY, DEBUGGING
  6 .debug_pubnames 0000030d  00000000  00000000  000038d8  2**0
                  CONTENTS, READONLY, DEBUGGING
  7 .debug_info   00000f2e  00000000  00000000  00003be5  2**0
                  CONTENTS, READONLY, DEBUGGING
  8 .debug_abbrev 00000660  00000000  00000000  00004b13  2**0
                  CONTENTS, READONLY, DEBUGGING
  9 .debug_line   000014ea  00000000  00000000  00005173  2**0
                  CONTENTS, READONLY, DEBUGGING
 10 .debug_frame  00000230  00000000  00000000  00006660  2**2
                  CONTENTS, READONLY, DEBUGGING
 11 .debug_str    00000610  00000000  00000000  00006890  2**0
                  CONTENTS, READONLY, DEBUGGING
Disassembly of section .text:

00000000 <__vectors>:
       0:	0c 94 4a 00 	jmp	0x94	; 0x94 <__ctors_end>
       4:	0c 94 69 00 	jmp	0xd2	; 0xd2 <__bad_interrupt>
       8:	0c 94 69 00 	jmp	0xd2	; 0xd2 <__bad_interrupt>
       c:	0c 94 69 00 	jmp	0xd2	; 0xd2 <__bad_interrupt>
      10:	0c 94 69 00 	jmp	0xd2	; 0xd2 <__bad_interrupt>
      14:	0c 94 69 00 	jmp	0xd2	; 0xd2 <__bad_interrupt>
      18:	0c 94 69 00 	jmp	0xd2	; 0xd2 <__bad_interrupt>
      1c:	0c 94 69 00 	jmp	0xd2	; 0xd2 <__bad_interrupt>
      20:	0c 94 69 00 	jmp	0xd2	; 0xd2 <__bad_interrupt>
      24:	0c 94 55 11 	jmp	0x22aa	; 0x22aa <__vector_9>
      28:	0c 94 69 00 	jmp	0xd2	; 0xd2 <__bad_interrupt>
      2c:	0c 94 69 00 	jmp	0xd2	; 0xd2 <__bad_interrupt>
      30:	0c 94 69 00 	jmp	0xd2	; 0xd2 <__bad_interrupt>
      34:	0c 94 69 00 	jmp	0xd2	; 0xd2 <__bad_interrupt>
      38:	0c 94 69 00 	jmp	0xd2	; 0xd2 <__bad_interrupt>
      3c:	0c 94 69 00 	jmp	0xd2	; 0xd2 <__bad_interrupt>
      40:	0c 94 69 00 	jmp	0xd2	; 0xd2 <__bad_interrupt>
      44:	0c 94 69 00 	jmp	0xd2	; 0xd2 <__bad_interrupt>
      48:	0c 94 e9 01 	jmp	0x3d2	; 0x3d2 <__vector_18>
      4c:	0c 94 69 00 	jmp	0xd2	; 0xd2 <__bad_interrupt>
      50:	0c 94 69 00 	jmp	0xd2	; 0xd2 <__bad_interrupt>
      54:	0c 94 69 00 	jmp	0xd2	; 0xd2 <__bad_interrupt>
      58:	0c 94 69 00 	jmp	0xd2	; 0xd2 <__bad_interrupt>
      5c:	0c 94 69 00 	jmp	0xd2	; 0xd2 <__bad_interrupt>
      60:	0c 94 69 00 	jmp	0xd2	; 0xd2 <__bad_interrupt>
      64:	0c 94 69 00 	jmp	0xd2	; 0xd2 <__bad_interrupt>
      68:	0c 94 69 00 	jmp	0xd2	; 0xd2 <__bad_interrupt>
      6c:	0c 94 69 00 	jmp	0xd2	; 0xd2 <__bad_interrupt>
      70:	0c 94 69 00 	jmp	0xd2	; 0xd2 <__bad_interrupt>
      74:	0c 94 69 00 	jmp	0xd2	; 0xd2 <__bad_interrupt>
      78:	0c 94 69 00 	jmp	0xd2	; 0xd2 <__bad_interrupt>
      7c:	0c 94 69 00 	jmp	0xd2	; 0xd2 <__bad_interrupt>
      80:	0c 94 69 00 	jmp	0xd2	; 0xd2 <__bad_interrupt>
      84:	0c 94 69 00 	jmp	0xd2	; 0xd2 <__bad_interrupt>
      88:	0c 94 69 00 	jmp	0xd2	; 0xd2 <__bad_interrupt>
      8c:	0c 94 69 00 	jmp	0xd2	; 0xd2 <__bad_interrupt>
      90:	0c 94 69 00 	jmp	0xd2	; 0xd2 <__bad_interrupt>

00000094 <__ctors_end>:
      94:	11 24       	eor	r1, r1
      96:	1f be       	out	0x3f, r1	; 63
      98:	cf ef       	ldi	r28, 0xFF	; 255
      9a:	d0 e1       	ldi	r29, 0x10	; 16
      9c:	de bf       	out	0x3e, r29	; 62
      9e:	cd bf       	out	0x3d, r28	; 61

000000a0 <__do_copy_data>:
      a0:	13 e0       	ldi	r17, 0x03	; 3
      a2:	a0 e0       	ldi	r26, 0x00	; 0
      a4:	b1 e0       	ldi	r27, 0x01	; 1
      a6:	e6 e8       	ldi	r30, 0x86	; 134
      a8:	fd e2       	ldi	r31, 0x2D	; 45
      aa:	00 e0       	ldi	r16, 0x00	; 0
      ac:	0b bf       	out	0x3b, r16	; 59
      ae:	02 c0       	rjmp	.+4      	; 0xb4 <__do_copy_data+0x14>
      b0:	07 90       	elpm	r0, Z+
      b2:	0d 92       	st	X+, r0
      b4:	aa 35       	cpi	r26, 0x5A	; 90
      b6:	b1 07       	cpc	r27, r17
      b8:	d9 f7       	brne	.-10     	; 0xb0 <__do_copy_data+0x10>

000000ba <__do_clear_bss>:
      ba:	13 e0       	ldi	r17, 0x03	; 3
      bc:	aa e5       	ldi	r26, 0x5A	; 90
      be:	b3 e0       	ldi	r27, 0x03	; 3
      c0:	01 c0       	rjmp	.+2      	; 0xc4 <.do_clear_bss_start>

000000c2 <.do_clear_bss_loop>:
      c2:	1d 92       	st	X+, r1

000000c4 <.do_clear_bss_start>:
      c4:	a5 36       	cpi	r26, 0x65	; 101
      c6:	b1 07       	cpc	r27, r17
      c8:	e1 f7       	brne	.-8      	; 0xc2 <.do_clear_bss_loop>
      ca:	0e 94 6b 00 	call	0xd6	; 0xd6 <main>
      ce:	0c 94 c1 16 	jmp	0x2d82	; 0x2d82 <_exit>

000000d2 <__bad_interrupt>:
      d2:	0c 94 00 00 	jmp	0	; 0x0 <__heap_end>

000000d6 <main>:
//! This program performs some remote frames (c.f. NB_TARGET).
//! The response must be a data frame that contents (in the order) the addressed
//! node temperature, luminosity and VCC values.
//------------------------------------------------------------------------------
int main (void)
{	
      d6:	df 93       	push	r29
      d8:	cf 93       	push	r28
      da:	cd b7       	in	r28, 0x3d	; 61
      dc:	de b7       	in	r29, 0x3e	; 62
    CLKPR = 0x80;  CLKPR = 0x00;  // Clock prescaler Reset
      de:	e1 e6       	ldi	r30, 0x61	; 97
      e0:	f0 e0       	ldi	r31, 0x00	; 0
      e2:	80 e8       	ldi	r24, 0x80	; 128
      e4:	80 83       	st	Z, r24
      e6:	e1 e6       	ldi	r30, 0x61	; 97
      e8:	f0 e0       	ldi	r31, 0x00	; 0
      ea:	10 82       	st	Z, r1
   
	uart_init(CONF_8BIT_NOPAR_1STOP,UART_BAUDRATE);
      ec:	83 e0       	ldi	r24, 0x03	; 3
      ee:	40 e0       	ldi	r20, 0x00	; 0
      f0:	56 e9       	ldi	r21, 0x96	; 150
      f2:	60 e0       	ldi	r22, 0x00	; 0
      f4:	70 e0       	ldi	r23, 0x00	; 0
      f6:	0e 94 e5 11 	call	0x23ca	; 0x23ca <uart_init>
    
    can_init(0);
      fa:	80 e0       	ldi	r24, 0x00	; 0
      fc:	0e 94 52 05 	call	0xaa4	; 0xaa4 <can_init>

	DDRA = 0xFF; // LED'er output
     100:	e1 e2       	ldi	r30, 0x21	; 33
     102:	f0 e0       	ldi	r31, 0x00	; 0
     104:	8f ef       	ldi	r24, 0xFF	; 255
     106:	80 83       	st	Z, r24
	PORTA = 0xFF; // LED'er tændt
     108:	e2 e2       	ldi	r30, 0x22	; 34
     10a:	f0 e0       	ldi	r31, 0x00	; 0
     10c:	8f ef       	ldi	r24, 0xFF	; 255
     10e:	80 83       	st	Z, r24
    CANGIE |=(1<<ENTX);

    CANGIE |=(1<<ENIT);
    */

    display_sensor_values();
     110:	0e 94 8f 00 	call	0x11e	; 0x11e <display_sensor_values>

    return 0;
     114:	80 e0       	ldi	r24, 0x00	; 0
     116:	90 e0       	ldi	r25, 0x00	; 0
}
     118:	cf 91       	pop	r28
     11a:	df 91       	pop	r29
     11c:	08 95       	ret

0000011e <display_sensor_values>:
//!     local temperature, the local luminosity and the VCC values.
//!     When the DVK90CAN1 receives an response, it formates the data and
//!     sends it to a terminal.
//------------------------------------------------------------------------------
void display_sensor_values(void)
{
     11e:	df 93       	push	r29
     120:	cf 93       	push	r28
     122:	cd b7       	in	r28, 0x3d	; 61
     124:	de b7       	in	r29, 0x3e	; 62
     126:	ae 97       	sbiw	r28, 0x2e	; 46
     128:	0f b6       	in	r0, 0x3f	; 63
     12a:	f8 94       	cli
     12c:	de bf       	out	0x3e, r29	; 62
     12e:	0f be       	out	0x3f, r0	; 63
     130:	cd bf       	out	0x3d, r28	; 61

    U8 response_buffer[9];
    st_cmd_t response_msg;

    // --- Init variables
    tx_remote_msg.pt_data = &tx_remote_buffer[0];
     132:	ce 01       	movw	r24, r28
     134:	03 96       	adiw	r24, 0x03	; 3
     136:	9d 8b       	std	Y+21, r25	; 0x15
     138:	8c 8b       	std	Y+20, r24	; 0x14
    tx_remote_msg.status = 0;
     13a:	1e 8a       	std	Y+22, r1	; 0x16

    response_msg.pt_data = &response_buffer[0];
     13c:	ce 01       	movw	r24, r28
     13e:	49 96       	adiw	r24, 0x19	; 25
     140:	9b a7       	std	Y+43, r25	; 0x2b
     142:	8a a7       	std	Y+42, r24	; 0x2a
    response_msg.status = 0;
     144:	1c a6       	std	Y+44, r1	; 0x2c

    // UART
    uart_mini_printf("GOGO");
     146:	00 d0       	rcall	.+0      	; 0x148 <display_sensor_values+0x2a>
     148:	ed b7       	in	r30, 0x3d	; 61
     14a:	fe b7       	in	r31, 0x3e	; 62
     14c:	31 96       	adiw	r30, 0x01	; 1
     14e:	80 e0       	ldi	r24, 0x00	; 0
     150:	91 e0       	ldi	r25, 0x01	; 1
     152:	91 83       	std	Z+1, r25	; 0x01
     154:	80 83       	st	Z, r24
     156:	0e 94 bf 12 	call	0x257e	; 0x257e <uart_mini_printf>
     15a:	0f 90       	pop	r0
     15c:	0f 90       	pop	r0

    while (1)
    {
        wait_for(20);  // x ms between refreshed screen
     15e:	84 e1       	ldi	r24, 0x14	; 20
     160:	90 e0       	ldi	r25, 0x00	; 0
     162:	0e 94 55 10 	call	0x20aa	; 0x20aa <wait_for>
        
        for(j=0; j<NB_TARGET; j++)
     166:	19 82       	std	Y+1, r1	; 0x01
     168:	2f c1       	rjmp	.+606    	; 0x3c8 <display_sensor_values+0x2aa>
        {
            // --- Init Rx Commands
      	    for(i=0; i<9; i++) response_buffer[i]=0; // Nulstiller buffer
     16a:	1a 82       	std	Y+2, r1	; 0x02
     16c:	0c c0       	rjmp	.+24     	; 0x186 <display_sensor_values+0x68>
     16e:	8a 81       	ldd	r24, Y+2	; 0x02
     170:	28 2f       	mov	r18, r24
     172:	30 e0       	ldi	r19, 0x00	; 0
     174:	ce 01       	movw	r24, r28
     176:	49 96       	adiw	r24, 0x19	; 25
     178:	fc 01       	movw	r30, r24
     17a:	e2 0f       	add	r30, r18
     17c:	f3 1f       	adc	r31, r19
     17e:	10 82       	st	Z, r1
     180:	8a 81       	ldd	r24, Y+2	; 0x02
     182:	8f 5f       	subi	r24, 0xFF	; 255
     184:	8a 83       	std	Y+2, r24	; 0x02
     186:	8a 81       	ldd	r24, Y+2	; 0x02
     188:	89 30       	cpi	r24, 0x09	; 9
     18a:	88 f3       	brcs	.-30     	; 0x16e <display_sensor_values+0x50>
            response_msg.id.std = ID_TAG_BASE + j;
     18c:	89 81       	ldd	r24, Y+1	; 0x01
     18e:	88 2f       	mov	r24, r24
     190:	90 e0       	ldi	r25, 0x00	; 0
     192:	80 58       	subi	r24, 0x80	; 128
     194:	9f 4f       	sbci	r25, 0xFF	; 255
     196:	9e a3       	std	Y+38, r25	; 0x26
     198:	8d a3       	std	Y+37, r24	; 0x25
            response_msg.ctrl.ide = 0;
     19a:	1e a6       	std	Y+46, r1	; 0x2e
            response_msg.ctrl.rtr = 0;
     19c:	1d a6       	std	Y+45, r1	; 0x2d
            response_msg.dlc = 5;
     19e:	85 e0       	ldi	r24, 0x05	; 5
     1a0:	89 a7       	std	Y+41, r24	; 0x29
            response_msg.cmd = CMD_RX_DATA_MASKED;
     1a2:	88 e0       	ldi	r24, 0x08	; 8
     1a4:	90 e0       	ldi	r25, 0x00	; 0
     1a6:	9c a3       	std	Y+36, r25	; 0x24
     1a8:	8b a3       	std	Y+35, r24	; 0x23
            // --- Rx Command
            while(can_cmd(&response_msg) != CAN_CMD_ACCEPTED);
     1aa:	ce 01       	movw	r24, r28
     1ac:	82 96       	adiw	r24, 0x22	; 34
     1ae:	0e 94 70 05 	call	0xae0	; 0xae0 <can_cmd>
     1b2:	88 23       	and	r24, r24
     1b4:	d1 f7       	brne	.-12     	; 0x1aa <display_sensor_values+0x8c>

            // --- Init Tx Commands
  	        for(i=0; i<9; i++) tx_remote_buffer[i]=0; // Nulstiller buffer
     1b6:	1a 82       	std	Y+2, r1	; 0x02
     1b8:	0c c0       	rjmp	.+24     	; 0x1d2 <display_sensor_values+0xb4>
     1ba:	8a 81       	ldd	r24, Y+2	; 0x02
     1bc:	28 2f       	mov	r18, r24
     1be:	30 e0       	ldi	r19, 0x00	; 0
     1c0:	ce 01       	movw	r24, r28
     1c2:	03 96       	adiw	r24, 0x03	; 3
     1c4:	fc 01       	movw	r30, r24
     1c6:	e2 0f       	add	r30, r18
     1c8:	f3 1f       	adc	r31, r19
     1ca:	10 82       	st	Z, r1
     1cc:	8a 81       	ldd	r24, Y+2	; 0x02
     1ce:	8f 5f       	subi	r24, 0xFF	; 255
     1d0:	8a 83       	std	Y+2, r24	; 0x02
     1d2:	8a 81       	ldd	r24, Y+2	; 0x02
     1d4:	89 30       	cpi	r24, 0x09	; 9
     1d6:	88 f3       	brcs	.-30     	; 0x1ba <display_sensor_values+0x9c>
            tx_remote_msg.id.std = ID_TAG_BASE + j;
     1d8:	89 81       	ldd	r24, Y+1	; 0x01
     1da:	88 2f       	mov	r24, r24
     1dc:	90 e0       	ldi	r25, 0x00	; 0
     1de:	80 58       	subi	r24, 0x80	; 128
     1e0:	9f 4f       	sbci	r25, 0xFF	; 255
     1e2:	98 8b       	std	Y+16, r25	; 0x10
     1e4:	8f 87       	std	Y+15, r24	; 0x0f
            tx_remote_msg.ctrl.ide = 0;
     1e6:	18 8e       	std	Y+24, r1	; 0x18
            tx_remote_msg.ctrl.rtr = 1;
     1e8:	81 e0       	ldi	r24, 0x01	; 1
     1ea:	8f 8b       	std	Y+23, r24	; 0x17
            tx_remote_msg.dlc = 8; // Antal data bytes der skal modtages 
     1ec:	88 e0       	ldi	r24, 0x08	; 8
     1ee:	8b 8b       	std	Y+19, r24	; 0x13
            tx_remote_msg.cmd = CMD_TX_REMOTE;
     1f0:	83 e0       	ldi	r24, 0x03	; 3
     1f2:	90 e0       	ldi	r25, 0x00	; 0
     1f4:	9e 87       	std	Y+14, r25	; 0x0e
     1f6:	8d 87       	std	Y+13, r24	; 0x0d
            // --- Tx Command
            while(can_cmd(&tx_remote_msg) != CAN_CMD_ACCEPTED);
     1f8:	ce 01       	movw	r24, r28
     1fa:	0c 96       	adiw	r24, 0x0c	; 12
     1fc:	0e 94 70 05 	call	0xae0	; 0xae0 <can_cmd>
     200:	88 23       	and	r24, r24
     202:	d1 f7       	brne	.-12     	; 0x1f8 <display_sensor_values+0xda>
     204:	04 c0       	rjmp	.+8      	; 0x20e <display_sensor_values+0xf0>

            // --- Wait for Tx remote completed
            while(can_get_status(&tx_remote_msg) == CAN_STATUS_NOT_COMPLETED)

            wait_for(5); // Wait x ms for a response if exits
     206:	85 e0       	ldi	r24, 0x05	; 5
     208:	90 e0       	ldi	r25, 0x00	; 0
     20a:	0e 94 55 10 	call	0x20aa	; 0x20aa <wait_for>
            tx_remote_msg.cmd = CMD_TX_REMOTE;
            // --- Tx Command
            while(can_cmd(&tx_remote_msg) != CAN_CMD_ACCEPTED);

            // --- Wait for Tx remote completed
            while(can_get_status(&tx_remote_msg) == CAN_STATUS_NOT_COMPLETED)
     20e:	ce 01       	movw	r24, r28
     210:	0c 96       	adiw	r24, 0x0c	; 12
     212:	0e 94 ad 0e 	call	0x1d5a	; 0x1d5a <can_get_status>
     216:	81 30       	cpi	r24, 0x01	; 1
     218:	b1 f3       	breq	.-20     	; 0x206 <display_sensor_values+0xe8>

            wait_for(5); // Wait x ms for a response if exits
            if (can_get_status(&response_msg) == CAN_STATUS_COMPLETED)
     21a:	ce 01       	movw	r24, r28
     21c:	82 96       	adiw	r24, 0x22	; 34
     21e:	0e 94 ad 0e 	call	0x1d5a	; 0x1d5a <can_get_status>
     222:	88 23       	and	r24, r24
     224:	09 f0       	breq	.+2      	; 0x228 <display_sensor_values+0x10a>
     226:	c3 c0       	rjmp	.+390    	; 0x3ae <display_sensor_values+0x290>
            {
                // --- Node ID
				uart_mini_printf("Node: %d",response_msg.id.std-127);
     228:	8d a1       	ldd	r24, Y+37	; 0x25
     22a:	9e a1       	ldd	r25, Y+38	; 0x26
     22c:	9c 01       	movw	r18, r24
     22e:	2f 57       	subi	r18, 0x7F	; 127
     230:	30 40       	sbci	r19, 0x00	; 0
     232:	00 d0       	rcall	.+0      	; 0x234 <display_sensor_values+0x116>
     234:	00 d0       	rcall	.+0      	; 0x236 <display_sensor_values+0x118>
     236:	ed b7       	in	r30, 0x3d	; 61
     238:	fe b7       	in	r31, 0x3e	; 62
     23a:	31 96       	adiw	r30, 0x01	; 1
     23c:	85 e0       	ldi	r24, 0x05	; 5
     23e:	91 e0       	ldi	r25, 0x01	; 1
     240:	91 83       	std	Z+1, r25	; 0x01
     242:	80 83       	st	Z, r24
     244:	33 83       	std	Z+3, r19	; 0x03
     246:	22 83       	std	Z+2, r18	; 0x02
     248:	0e 94 bf 12 	call	0x257e	; 0x257e <uart_mini_printf>
     24c:	0f 90       	pop	r0
     24e:	0f 90       	pop	r0
     250:	0f 90       	pop	r0
     252:	0f 90       	pop	r0
                
                // --- Data               
               	uart_mini_printf(", Data1: %03d", response_buffer[0]);
     254:	89 8d       	ldd	r24, Y+25	; 0x19
     256:	28 2f       	mov	r18, r24
     258:	30 e0       	ldi	r19, 0x00	; 0
     25a:	00 d0       	rcall	.+0      	; 0x25c <display_sensor_values+0x13e>
     25c:	00 d0       	rcall	.+0      	; 0x25e <display_sensor_values+0x140>
     25e:	ed b7       	in	r30, 0x3d	; 61
     260:	fe b7       	in	r31, 0x3e	; 62
     262:	31 96       	adiw	r30, 0x01	; 1
     264:	8e e0       	ldi	r24, 0x0E	; 14
     266:	91 e0       	ldi	r25, 0x01	; 1
     268:	91 83       	std	Z+1, r25	; 0x01
     26a:	80 83       	st	Z, r24
     26c:	33 83       	std	Z+3, r19	; 0x03
     26e:	22 83       	std	Z+2, r18	; 0x02
     270:	0e 94 bf 12 	call	0x257e	; 0x257e <uart_mini_printf>
     274:	0f 90       	pop	r0
     276:	0f 90       	pop	r0
     278:	0f 90       	pop	r0
     27a:	0f 90       	pop	r0
				uart_mini_printf(", Data2: %03d", response_buffer[1]);
     27c:	8a 8d       	ldd	r24, Y+26	; 0x1a
     27e:	28 2f       	mov	r18, r24
     280:	30 e0       	ldi	r19, 0x00	; 0
     282:	00 d0       	rcall	.+0      	; 0x284 <display_sensor_values+0x166>
     284:	00 d0       	rcall	.+0      	; 0x286 <display_sensor_values+0x168>
     286:	ed b7       	in	r30, 0x3d	; 61
     288:	fe b7       	in	r31, 0x3e	; 62
     28a:	31 96       	adiw	r30, 0x01	; 1
     28c:	8c e1       	ldi	r24, 0x1C	; 28
     28e:	91 e0       	ldi	r25, 0x01	; 1
     290:	91 83       	std	Z+1, r25	; 0x01
     292:	80 83       	st	Z, r24
     294:	33 83       	std	Z+3, r19	; 0x03
     296:	22 83       	std	Z+2, r18	; 0x02
     298:	0e 94 bf 12 	call	0x257e	; 0x257e <uart_mini_printf>
     29c:	0f 90       	pop	r0
     29e:	0f 90       	pop	r0
     2a0:	0f 90       	pop	r0
     2a2:	0f 90       	pop	r0
				uart_mini_printf(", Data3: %03d", response_buffer[2]);
     2a4:	8b 8d       	ldd	r24, Y+27	; 0x1b
     2a6:	28 2f       	mov	r18, r24
     2a8:	30 e0       	ldi	r19, 0x00	; 0
     2aa:	00 d0       	rcall	.+0      	; 0x2ac <display_sensor_values+0x18e>
     2ac:	00 d0       	rcall	.+0      	; 0x2ae <display_sensor_values+0x190>
     2ae:	ed b7       	in	r30, 0x3d	; 61
     2b0:	fe b7       	in	r31, 0x3e	; 62
     2b2:	31 96       	adiw	r30, 0x01	; 1
     2b4:	8a e2       	ldi	r24, 0x2A	; 42
     2b6:	91 e0       	ldi	r25, 0x01	; 1
     2b8:	91 83       	std	Z+1, r25	; 0x01
     2ba:	80 83       	st	Z, r24
     2bc:	33 83       	std	Z+3, r19	; 0x03
     2be:	22 83       	std	Z+2, r18	; 0x02
     2c0:	0e 94 bf 12 	call	0x257e	; 0x257e <uart_mini_printf>
     2c4:	0f 90       	pop	r0
     2c6:	0f 90       	pop	r0
     2c8:	0f 90       	pop	r0
     2ca:	0f 90       	pop	r0
				uart_mini_printf(", Data4: %03d", response_buffer[3]);
     2cc:	8c 8d       	ldd	r24, Y+28	; 0x1c
     2ce:	28 2f       	mov	r18, r24
     2d0:	30 e0       	ldi	r19, 0x00	; 0
     2d2:	00 d0       	rcall	.+0      	; 0x2d4 <display_sensor_values+0x1b6>
     2d4:	00 d0       	rcall	.+0      	; 0x2d6 <display_sensor_values+0x1b8>
     2d6:	ed b7       	in	r30, 0x3d	; 61
     2d8:	fe b7       	in	r31, 0x3e	; 62
     2da:	31 96       	adiw	r30, 0x01	; 1
     2dc:	88 e3       	ldi	r24, 0x38	; 56
     2de:	91 e0       	ldi	r25, 0x01	; 1
     2e0:	91 83       	std	Z+1, r25	; 0x01
     2e2:	80 83       	st	Z, r24
     2e4:	33 83       	std	Z+3, r19	; 0x03
     2e6:	22 83       	std	Z+2, r18	; 0x02
     2e8:	0e 94 bf 12 	call	0x257e	; 0x257e <uart_mini_printf>
     2ec:	0f 90       	pop	r0
     2ee:	0f 90       	pop	r0
     2f0:	0f 90       	pop	r0
     2f2:	0f 90       	pop	r0
				uart_mini_printf(", Data5: %03d", response_buffer[4]);
     2f4:	8d 8d       	ldd	r24, Y+29	; 0x1d
     2f6:	28 2f       	mov	r18, r24
     2f8:	30 e0       	ldi	r19, 0x00	; 0
     2fa:	00 d0       	rcall	.+0      	; 0x2fc <display_sensor_values+0x1de>
     2fc:	00 d0       	rcall	.+0      	; 0x2fe <display_sensor_values+0x1e0>
     2fe:	ed b7       	in	r30, 0x3d	; 61
     300:	fe b7       	in	r31, 0x3e	; 62
     302:	31 96       	adiw	r30, 0x01	; 1
     304:	86 e4       	ldi	r24, 0x46	; 70
     306:	91 e0       	ldi	r25, 0x01	; 1
     308:	91 83       	std	Z+1, r25	; 0x01
     30a:	80 83       	st	Z, r24
     30c:	33 83       	std	Z+3, r19	; 0x03
     30e:	22 83       	std	Z+2, r18	; 0x02
     310:	0e 94 bf 12 	call	0x257e	; 0x257e <uart_mini_printf>
     314:	0f 90       	pop	r0
     316:	0f 90       	pop	r0
     318:	0f 90       	pop	r0
     31a:	0f 90       	pop	r0
				uart_mini_printf(", Data6: %03d", response_buffer[5]);
     31c:	8e 8d       	ldd	r24, Y+30	; 0x1e
     31e:	28 2f       	mov	r18, r24
     320:	30 e0       	ldi	r19, 0x00	; 0
     322:	00 d0       	rcall	.+0      	; 0x324 <display_sensor_values+0x206>
     324:	00 d0       	rcall	.+0      	; 0x326 <display_sensor_values+0x208>
     326:	ed b7       	in	r30, 0x3d	; 61
     328:	fe b7       	in	r31, 0x3e	; 62
     32a:	31 96       	adiw	r30, 0x01	; 1
     32c:	84 e5       	ldi	r24, 0x54	; 84
     32e:	91 e0       	ldi	r25, 0x01	; 1
     330:	91 83       	std	Z+1, r25	; 0x01
     332:	80 83       	st	Z, r24
     334:	33 83       	std	Z+3, r19	; 0x03
     336:	22 83       	std	Z+2, r18	; 0x02
     338:	0e 94 bf 12 	call	0x257e	; 0x257e <uart_mini_printf>
     33c:	0f 90       	pop	r0
     33e:	0f 90       	pop	r0
     340:	0f 90       	pop	r0
     342:	0f 90       	pop	r0
				uart_mini_printf(", Data7: %03d", response_buffer[6]);                
     344:	8f 8d       	ldd	r24, Y+31	; 0x1f
     346:	28 2f       	mov	r18, r24
     348:	30 e0       	ldi	r19, 0x00	; 0
     34a:	00 d0       	rcall	.+0      	; 0x34c <display_sensor_values+0x22e>
     34c:	00 d0       	rcall	.+0      	; 0x34e <display_sensor_values+0x230>
     34e:	ed b7       	in	r30, 0x3d	; 61
     350:	fe b7       	in	r31, 0x3e	; 62
     352:	31 96       	adiw	r30, 0x01	; 1
     354:	82 e6       	ldi	r24, 0x62	; 98
     356:	91 e0       	ldi	r25, 0x01	; 1
     358:	91 83       	std	Z+1, r25	; 0x01
     35a:	80 83       	st	Z, r24
     35c:	33 83       	std	Z+3, r19	; 0x03
     35e:	22 83       	std	Z+2, r18	; 0x02
     360:	0e 94 bf 12 	call	0x257e	; 0x257e <uart_mini_printf>
     364:	0f 90       	pop	r0
     366:	0f 90       	pop	r0
     368:	0f 90       	pop	r0
     36a:	0f 90       	pop	r0
				uart_mini_printf(", Data8: %03d", response_buffer[7]);
     36c:	88 a1       	ldd	r24, Y+32	; 0x20
     36e:	28 2f       	mov	r18, r24
     370:	30 e0       	ldi	r19, 0x00	; 0
     372:	00 d0       	rcall	.+0      	; 0x374 <display_sensor_values+0x256>
     374:	00 d0       	rcall	.+0      	; 0x376 <display_sensor_values+0x258>
     376:	ed b7       	in	r30, 0x3d	; 61
     378:	fe b7       	in	r31, 0x3e	; 62
     37a:	31 96       	adiw	r30, 0x01	; 1
     37c:	80 e7       	ldi	r24, 0x70	; 112
     37e:	91 e0       	ldi	r25, 0x01	; 1
     380:	91 83       	std	Z+1, r25	; 0x01
     382:	80 83       	st	Z, r24
     384:	33 83       	std	Z+3, r19	; 0x03
     386:	22 83       	std	Z+2, r18	; 0x02
     388:	0e 94 bf 12 	call	0x257e	; 0x257e <uart_mini_printf>
     38c:	0f 90       	pop	r0
     38e:	0f 90       	pop	r0
     390:	0f 90       	pop	r0
     392:	0f 90       	pop	r0
				uart_mini_printf("\r\n");  
     394:	00 d0       	rcall	.+0      	; 0x396 <display_sensor_values+0x278>
     396:	ed b7       	in	r30, 0x3d	; 61
     398:	fe b7       	in	r31, 0x3e	; 62
     39a:	31 96       	adiw	r30, 0x01	; 1
     39c:	8e e7       	ldi	r24, 0x7E	; 126
     39e:	91 e0       	ldi	r25, 0x01	; 1
     3a0:	91 83       	std	Z+1, r25	; 0x01
     3a2:	80 83       	st	Z, r24
     3a4:	0e 94 bf 12 	call	0x257e	; 0x257e <uart_mini_printf>
     3a8:	0f 90       	pop	r0
     3aa:	0f 90       	pop	r0
     3ac:	0a c0       	rjmp	.+20     	; 0x3c2 <display_sensor_values+0x2a4>
            }
            else
            {
                response_msg.cmd = CMD_ABORT;
     3ae:	8c e0       	ldi	r24, 0x0C	; 12
     3b0:	90 e0       	ldi	r25, 0x00	; 0
     3b2:	9c a3       	std	Y+36, r25	; 0x24
     3b4:	8b a3       	std	Y+35, r24	; 0x23
  	            while (can_cmd(&response_msg) != CAN_CMD_ACCEPTED);
     3b6:	ce 01       	movw	r24, r28
     3b8:	82 96       	adiw	r24, 0x22	; 34
     3ba:	0e 94 70 05 	call	0xae0	; 0xae0 <can_cmd>
     3be:	88 23       	and	r24, r24
     3c0:	d1 f7       	brne	.-12     	; 0x3b6 <display_sensor_values+0x298>

    while (1)
    {
        wait_for(20);  // x ms between refreshed screen
        
        for(j=0; j<NB_TARGET; j++)
     3c2:	89 81       	ldd	r24, Y+1	; 0x01
     3c4:	8f 5f       	subi	r24, 0xFF	; 255
     3c6:	89 83       	std	Y+1, r24	; 0x01
     3c8:	89 81       	ldd	r24, Y+1	; 0x01
     3ca:	88 23       	and	r24, r24
     3cc:	09 f4       	brne	.+2      	; 0x3d0 <display_sensor_values+0x2b2>
     3ce:	cd ce       	rjmp	.-614    	; 0x16a <display_sensor_values+0x4c>
     3d0:	c6 ce       	rjmp	.-628    	; 0x15e <display_sensor_values+0x40>

000003d2 <__vector_18>:
            }
        }
    }
}
ISR(CANIT_vect)
{
     3d2:	1f 92       	push	r1
     3d4:	0f 92       	push	r0
     3d6:	0f b6       	in	r0, 0x3f	; 63
     3d8:	0f 92       	push	r0
     3da:	00 90 5b 00 	lds	r0, 0x005B
     3de:	0f 92       	push	r0
     3e0:	11 24       	eor	r1, r1
     3e2:	8f 93       	push	r24
     3e4:	9f 93       	push	r25
     3e6:	af 93       	push	r26
     3e8:	bf 93       	push	r27
     3ea:	ef 93       	push	r30
     3ec:	ff 93       	push	r31
     3ee:	df 93       	push	r29
     3f0:	cf 93       	push	r28
     3f2:	cd b7       	in	r28, 0x3d	; 61
     3f4:	de b7       	in	r29, 0x3e	; 62
    PORTA ^=_BV(PORTA7);
     3f6:	a2 e2       	ldi	r26, 0x22	; 34
     3f8:	b0 e0       	ldi	r27, 0x00	; 0
     3fa:	e2 e2       	ldi	r30, 0x22	; 34
     3fc:	f0 e0       	ldi	r31, 0x00	; 0
     3fe:	90 81       	ld	r25, Z
     400:	80 e8       	ldi	r24, 0x80	; 128
     402:	89 27       	eor	r24, r25
     404:	8c 93       	st	X, r24
}
     406:	cf 91       	pop	r28
     408:	df 91       	pop	r29
     40a:	ff 91       	pop	r31
     40c:	ef 91       	pop	r30
     40e:	bf 91       	pop	r27
     410:	af 91       	pop	r26
     412:	9f 91       	pop	r25
     414:	8f 91       	pop	r24
     416:	0f 90       	pop	r0
     418:	00 92 5b 00 	sts	0x005B, r0
     41c:	0f 90       	pop	r0
     41e:	0f be       	out	0x3f, r0	; 63
     420:	0f 90       	pop	r0
     422:	1f 90       	pop	r1
     424:	18 95       	reti

00000426 <can_clear_all_mob>:
//! @param none
//!
//! @return none
//------------------------------------------------------------------------------
void can_clear_all_mob(void)
{
     426:	df 93       	push	r29
     428:	cf 93       	push	r28
     42a:	00 d0       	rcall	.+0      	; 0x42c <can_clear_all_mob+0x6>
     42c:	0f 92       	push	r0
     42e:	cd b7       	in	r28, 0x3d	; 61
     430:	de b7       	in	r29, 0x3e	; 62
U8  mob_number;
/*
    U8  data_index;
*/

    for (mob_number = 0; mob_number < NB_MOB; mob_number++)
     432:	1b 82       	std	Y+3, r1	; 0x03
     434:	1b c0       	rjmp	.+54     	; 0x46c <can_clear_all_mob+0x46>
    {
        CANPAGE = (mob_number << 4);    //! Page index
     436:	ed ee       	ldi	r30, 0xED	; 237
     438:	f0 e0       	ldi	r31, 0x00	; 0
     43a:	8b 81       	ldd	r24, Y+3	; 0x03
     43c:	82 95       	swap	r24
     43e:	80 7f       	andi	r24, 0xF0	; 240
     440:	80 83       	st	Z, r24
        Can_clear_mob();                //! All MOb Registers=0
     442:	8e ee       	ldi	r24, 0xEE	; 238
     444:	90 e0       	ldi	r25, 0x00	; 0
     446:	9a 83       	std	Y+2, r25	; 0x02
     448:	89 83       	std	Y+1, r24	; 0x01
     44a:	08 c0       	rjmp	.+16     	; 0x45c <can_clear_all_mob+0x36>
     44c:	e9 81       	ldd	r30, Y+1	; 0x01
     44e:	fa 81       	ldd	r31, Y+2	; 0x02
     450:	10 82       	st	Z, r1
     452:	89 81       	ldd	r24, Y+1	; 0x01
     454:	9a 81       	ldd	r25, Y+2	; 0x02
     456:	01 96       	adiw	r24, 0x01	; 1
     458:	9a 83       	std	Y+2, r25	; 0x02
     45a:	89 83       	std	Y+1, r24	; 0x01
     45c:	89 81       	ldd	r24, Y+1	; 0x01
     45e:	9a 81       	ldd	r25, Y+2	; 0x02
     460:	88 3f       	cpi	r24, 0xF8	; 248
     462:	91 05       	cpc	r25, r1
     464:	98 f3       	brcs	.-26     	; 0x44c <can_clear_all_mob+0x26>
U8  mob_number;
/*
    U8  data_index;
*/

    for (mob_number = 0; mob_number < NB_MOB; mob_number++)
     466:	8b 81       	ldd	r24, Y+3	; 0x03
     468:	8f 5f       	subi	r24, 0xFF	; 255
     46a:	8b 83       	std	Y+3, r24	; 0x03
     46c:	8b 81       	ldd	r24, Y+3	; 0x03
     46e:	8f 30       	cpi	r24, 0x0F	; 15
     470:	10 f3       	brcs	.-60     	; 0x436 <can_clear_all_mob+0x10>
        {
            CANMSG = 0;                 //! MOb data FIFO
        }
*/
    }
}
     472:	0f 90       	pop	r0
     474:	0f 90       	pop	r0
     476:	0f 90       	pop	r0
     478:	cf 91       	pop	r28
     47a:	df 91       	pop	r29
     47c:	08 95       	ret

0000047e <can_get_mob_free>:
//! @return Handle of MOb.
//!          - MOb[0] upto MOb[LAST_MOB_NB]
//!          - 0xFF if no MOb
//------------------------------------------------------------------------------
U8 can_get_mob_free(void)
{
     47e:	df 93       	push	r29
     480:	cf 93       	push	r28
     482:	00 d0       	rcall	.+0      	; 0x484 <can_get_mob_free+0x6>
     484:	0f 92       	push	r0
     486:	cd b7       	in	r28, 0x3d	; 61
     488:	de b7       	in	r29, 0x3e	; 62
    U8 mob_number, page_saved;

    page_saved = CANPAGE;
     48a:	ed ee       	ldi	r30, 0xED	; 237
     48c:	f0 e0       	ldi	r31, 0x00	; 0
     48e:	80 81       	ld	r24, Z
     490:	89 83       	std	Y+1, r24	; 0x01
    for (mob_number = 0; mob_number < NB_MOB; mob_number++)
     492:	1a 82       	std	Y+2, r1	; 0x02
     494:	19 c0       	rjmp	.+50     	; 0x4c8 <can_get_mob_free+0x4a>
    {
        Can_set_mob(mob_number);
     496:	ed ee       	ldi	r30, 0xED	; 237
     498:	f0 e0       	ldi	r31, 0x00	; 0
     49a:	8a 81       	ldd	r24, Y+2	; 0x02
     49c:	82 95       	swap	r24
     49e:	80 7f       	andi	r24, 0xF0	; 240
     4a0:	80 83       	st	Z, r24
        if ((CANCDMOB & 0xC0) == 0x00) //! Disable configuration
     4a2:	ef ee       	ldi	r30, 0xEF	; 239
     4a4:	f0 e0       	ldi	r31, 0x00	; 0
     4a6:	80 81       	ld	r24, Z
     4a8:	88 2f       	mov	r24, r24
     4aa:	90 e0       	ldi	r25, 0x00	; 0
     4ac:	80 7c       	andi	r24, 0xC0	; 192
     4ae:	90 70       	andi	r25, 0x00	; 0
     4b0:	00 97       	sbiw	r24, 0x00	; 0
     4b2:	39 f4       	brne	.+14     	; 0x4c2 <can_get_mob_free+0x44>
        {
            CANPAGE = page_saved;
     4b4:	ed ee       	ldi	r30, 0xED	; 237
     4b6:	f0 e0       	ldi	r31, 0x00	; 0
     4b8:	89 81       	ldd	r24, Y+1	; 0x01
     4ba:	80 83       	st	Z, r24
            return (mob_number);
     4bc:	8a 81       	ldd	r24, Y+2	; 0x02
     4be:	8b 83       	std	Y+3, r24	; 0x03
     4c0:	0c c0       	rjmp	.+24     	; 0x4da <can_get_mob_free+0x5c>
U8 can_get_mob_free(void)
{
    U8 mob_number, page_saved;

    page_saved = CANPAGE;
    for (mob_number = 0; mob_number < NB_MOB; mob_number++)
     4c2:	8a 81       	ldd	r24, Y+2	; 0x02
     4c4:	8f 5f       	subi	r24, 0xFF	; 255
     4c6:	8a 83       	std	Y+2, r24	; 0x02
     4c8:	8a 81       	ldd	r24, Y+2	; 0x02
     4ca:	8f 30       	cpi	r24, 0x0F	; 15
     4cc:	20 f3       	brcs	.-56     	; 0x496 <can_get_mob_free+0x18>
        {
            CANPAGE = page_saved;
            return (mob_number);
        }
    }
    CANPAGE = page_saved;
     4ce:	ed ee       	ldi	r30, 0xED	; 237
     4d0:	f0 e0       	ldi	r31, 0x00	; 0
     4d2:	89 81       	ldd	r24, Y+1	; 0x01
     4d4:	80 83       	st	Z, r24
    return (NO_MOB);
     4d6:	8f ef       	ldi	r24, 0xFF	; 255
     4d8:	8b 83       	std	Y+3, r24	; 0x03
     4da:	8b 81       	ldd	r24, Y+3	; 0x03
}
     4dc:	0f 90       	pop	r0
     4de:	0f 90       	pop	r0
     4e0:	0f 90       	pop	r0
     4e2:	cf 91       	pop	r28
     4e4:	df 91       	pop	r29
     4e6:	08 95       	ret

000004e8 <can_get_mob_status>:
//!          -  MOB_CRC_ERROR
//!          -  MOB_STUFF_ERROR
//!          -  MOB_BIT_ERROR
//------------------------------------------------------------------------------
U8 can_get_mob_status(void)
{
     4e8:	df 93       	push	r29
     4ea:	cf 93       	push	r28
     4ec:	00 d0       	rcall	.+0      	; 0x4ee <can_get_mob_status+0x6>
     4ee:	0f 92       	push	r0
     4f0:	cd b7       	in	r28, 0x3d	; 61
     4f2:	de b7       	in	r29, 0x3e	; 62
    U8 mob_status, canstmob_copy;

    // Test if MOb ENABLE or DISABLE
    if ((CANCDMOB & 0xC0) == 0x00) {return(MOB_DISABLE);}
     4f4:	ef ee       	ldi	r30, 0xEF	; 239
     4f6:	f0 e0       	ldi	r31, 0x00	; 0
     4f8:	80 81       	ld	r24, Z
     4fa:	88 2f       	mov	r24, r24
     4fc:	90 e0       	ldi	r25, 0x00	; 0
     4fe:	80 7c       	andi	r24, 0xC0	; 192
     500:	90 70       	andi	r25, 0x00	; 0
     502:	00 97       	sbiw	r24, 0x00	; 0
     504:	19 f4       	brne	.+6      	; 0x50c <can_get_mob_status+0x24>
     506:	8f ef       	ldi	r24, 0xFF	; 255
     508:	8b 83       	std	Y+3, r24	; 0x03
     50a:	1d c0       	rjmp	.+58     	; 0x546 <can_get_mob_status+0x5e>

    canstmob_copy = CANSTMOB; // Copy for test integrity
     50c:	ee ee       	ldi	r30, 0xEE	; 238
     50e:	f0 e0       	ldi	r31, 0x00	; 0
     510:	80 81       	ld	r24, Z
     512:	89 83       	std	Y+1, r24	; 0x01

    // If MOb is ENABLE, test if MOb is COMPLETED
    // - MOb Status = 0x20 then MOB_RX_COMPLETED
    // - MOb Status = 0x40 then MOB_TX_COMPLETED
    // - MOb Status = 0xA0 then MOB_RX_COMPLETED_DLCW
    mob_status = canstmob_copy & ((1<<DLCW)|(1<<TXOK)|(1<<RXOK));
     514:	89 81       	ldd	r24, Y+1	; 0x01
     516:	80 7e       	andi	r24, 0xE0	; 224
     518:	8a 83       	std	Y+2, r24	; 0x02
    if ( (mob_status==MOB_RX_COMPLETED) ||   \
     51a:	8a 81       	ldd	r24, Y+2	; 0x02
     51c:	80 32       	cpi	r24, 0x20	; 32
     51e:	31 f0       	breq	.+12     	; 0x52c <can_get_mob_status+0x44>
     520:	8a 81       	ldd	r24, Y+2	; 0x02
     522:	80 34       	cpi	r24, 0x40	; 64
     524:	19 f0       	breq	.+6      	; 0x52c <can_get_mob_status+0x44>
     526:	8a 81       	ldd	r24, Y+2	; 0x02
     528:	80 3a       	cpi	r24, 0xA0	; 160
     52a:	19 f4       	brne	.+6      	; 0x532 <can_get_mob_status+0x4a>
         (mob_status==MOB_TX_COMPLETED) ||   \
         (mob_status==MOB_RX_COMPLETED_DLCW) ) { return(mob_status); }
     52c:	8a 81       	ldd	r24, Y+2	; 0x02
     52e:	8b 83       	std	Y+3, r24	; 0x03
     530:	0a c0       	rjmp	.+20     	; 0x546 <can_get_mob_status+0x5e>
    // - MOb Status bit_0 = MOB_ACK_ERROR
    // - MOb Status bit_1 = MOB_FORM_ERROR
    // - MOb Status bit_2 = MOB_CRC_ERROR
    // - MOb Status bit_3 = MOB_STUFF_ERROR
    // - MOb Status bit_4 = MOB_BIT_ERROR
    mob_status = canstmob_copy & ERR_MOB_MSK;
     532:	89 81       	ldd	r24, Y+1	; 0x01
     534:	8f 71       	andi	r24, 0x1F	; 31
     536:	8a 83       	std	Y+2, r24	; 0x02
    if (mob_status != 0) { return(mob_status); }
     538:	8a 81       	ldd	r24, Y+2	; 0x02
     53a:	88 23       	and	r24, r24
     53c:	19 f0       	breq	.+6      	; 0x544 <can_get_mob_status+0x5c>
     53e:	8a 81       	ldd	r24, Y+2	; 0x02
     540:	8b 83       	std	Y+3, r24	; 0x03
     542:	01 c0       	rjmp	.+2      	; 0x546 <can_get_mob_status+0x5e>

    // If CANSTMOB = 0 then MOB_NOT_COMPLETED
    return(MOB_NOT_COMPLETED);
     544:	1b 82       	std	Y+3, r1	; 0x03
     546:	8b 81       	ldd	r24, Y+3	; 0x03
}
     548:	0f 90       	pop	r0
     54a:	0f 90       	pop	r0
     54c:	0f 90       	pop	r0
     54e:	cf 91       	pop	r28
     550:	df 91       	pop	r29
     552:	08 95       	ret

00000554 <can_get_data>:
//! @param CAN message data address.
//!
//! @return none.
//------------------------------------------------------------------------------
void can_get_data(U8* p_can_message_data)
{
     554:	df 93       	push	r29
     556:	cf 93       	push	r28
     558:	00 d0       	rcall	.+0      	; 0x55a <can_get_data+0x6>
     55a:	0f 92       	push	r0
     55c:	cd b7       	in	r28, 0x3d	; 61
     55e:	de b7       	in	r29, 0x3e	; 62
     560:	9b 83       	std	Y+3, r25	; 0x03
     562:	8a 83       	std	Y+2, r24	; 0x02
    U8 data_index;

    for (data_index = 0; data_index < (Can_get_dlc()); data_index++)
     564:	19 82       	std	Y+1, r1	; 0x01
     566:	0f c0       	rjmp	.+30     	; 0x586 <can_get_data+0x32>
    {
        *(p_can_message_data + data_index) = CANMSG;
     568:	89 81       	ldd	r24, Y+1	; 0x01
     56a:	28 2f       	mov	r18, r24
     56c:	30 e0       	ldi	r19, 0x00	; 0
     56e:	8a 81       	ldd	r24, Y+2	; 0x02
     570:	9b 81       	ldd	r25, Y+3	; 0x03
     572:	dc 01       	movw	r26, r24
     574:	a2 0f       	add	r26, r18
     576:	b3 1f       	adc	r27, r19
     578:	ea ef       	ldi	r30, 0xFA	; 250
     57a:	f0 e0       	ldi	r31, 0x00	; 0
     57c:	80 81       	ld	r24, Z
     57e:	8c 93       	st	X, r24
//------------------------------------------------------------------------------
void can_get_data(U8* p_can_message_data)
{
    U8 data_index;

    for (data_index = 0; data_index < (Can_get_dlc()); data_index++)
     580:	89 81       	ldd	r24, Y+1	; 0x01
     582:	8f 5f       	subi	r24, 0xFF	; 255
     584:	89 83       	std	Y+1, r24	; 0x01
     586:	89 81       	ldd	r24, Y+1	; 0x01
     588:	28 2f       	mov	r18, r24
     58a:	30 e0       	ldi	r19, 0x00	; 0
     58c:	ef ee       	ldi	r30, 0xEF	; 239
     58e:	f0 e0       	ldi	r31, 0x00	; 0
     590:	80 81       	ld	r24, Z
     592:	88 2f       	mov	r24, r24
     594:	90 e0       	ldi	r25, 0x00	; 0
     596:	8f 70       	andi	r24, 0x0F	; 15
     598:	90 70       	andi	r25, 0x00	; 0
     59a:	28 17       	cp	r18, r24
     59c:	39 07       	cpc	r19, r25
     59e:	24 f3       	brlt	.-56     	; 0x568 <can_get_data+0x14>
    {
        *(p_can_message_data + data_index) = CANMSG;
    }
}
     5a0:	0f 90       	pop	r0
     5a2:	0f 90       	pop	r0
     5a4:	0f 90       	pop	r0
     5a6:	cf 91       	pop	r28
     5a8:	df 91       	pop	r29
     5aa:	08 95       	ret

000005ac <can_auto_baudrate>:
//! @return Baudrate Status
//!         ==0: research of bit timing configuration failed
//!         ==1: baudrate performed
//------------------------------------------------------------------------------
U8 can_auto_baudrate (U8 mode)
{
     5ac:	df 93       	push	r29
     5ae:	cf 93       	push	r28
     5b0:	cd b7       	in	r28, 0x3d	; 61
     5b2:	de b7       	in	r29, 0x3e	; 62
     5b4:	68 97       	sbiw	r28, 0x18	; 24
     5b6:	0f b6       	in	r0, 0x3f	; 63
     5b8:	f8 94       	cli
     5ba:	de bf       	out	0x3e, r29	; 62
     5bc:	0f be       	out	0x3f, r0	; 63
     5be:	cd bf       	out	0x3d, r28	; 61
     5c0:	8a 8b       	std	Y+18, r24	; 0x12
    U8  u8_temp0;                               //! Temporary variable
    U8  brp, prs, ntq, phs1, phs2;              //! Bit timing segment variables
    U8  phs1_inc;                               //! Computing needed
    U8  bt_not_found, wait_for_rx, evaluate;    //! Keys for "while()" loops
    U8  try_conf;                               //! Key for configurate CAN
    U8  ovrtim_flag=0;                          //! Timer overflow count
     5c2:	1e 82       	std	Y+6, r1	; 0x06
    U16 conf_index;                             //! Count of bit timing configuration tried
    U8  bt_performed;                           //! Return flag

    //! --- Default setting
    phs1_inc = evaluate = 0;
     5c4:	18 86       	std	Y+8, r1	; 0x08
     5c6:	88 85       	ldd	r24, Y+8	; 0x08
     5c8:	8b 87       	std	Y+11, r24	; 0x0b
    bt_performed = 0;
     5ca:	1b 82       	std	Y+3, r1	; 0x03
    conf_index = 0;
     5cc:	1d 82       	std	Y+5, r1	; 0x05
     5ce:	1c 82       	std	Y+4, r1	; 0x04
    bt_not_found = 1;
     5d0:	81 e0       	ldi	r24, 0x01	; 1
     5d2:	8a 87       	std	Y+10, r24	; 0x0a

    //! --- Init segment variables with MIN values if mode=0
    //!     or init segment variables with CANBTx if mode=1
    if (mode==0)
     5d4:	8a 89       	ldd	r24, Y+18	; 0x12
     5d6:	88 23       	and	r24, r24
     5d8:	a9 f4       	brne	.+42     	; 0x604 <can_auto_baudrate+0x58>
    {
        brp  = BRP_MIN;
     5da:	81 e0       	ldi	r24, 0x01	; 1
     5dc:	88 8b       	std	Y+16, r24	; 0x10
        ntq  = NTQ_MIN;
     5de:	88 e0       	ldi	r24, 0x08	; 8
     5e0:	8e 87       	std	Y+14, r24	; 0x0e
        phs1 = PHS1_MIN;
     5e2:	82 e0       	ldi	r24, 0x02	; 2
     5e4:	8d 87       	std	Y+13, r24	; 0x0d
        phs2 = PHS2_MIN;
     5e6:	82 e0       	ldi	r24, 0x02	; 2
     5e8:	8c 87       	std	Y+12, r24	; 0x0c
        prs  = ntq - ( phs1 + phs2 + 1 );
     5ea:	9d 85       	ldd	r25, Y+13	; 0x0d
     5ec:	8c 85       	ldd	r24, Y+12	; 0x0c
     5ee:	89 0f       	add	r24, r25
     5f0:	98 2f       	mov	r25, r24
     5f2:	90 95       	com	r25
     5f4:	8e 85       	ldd	r24, Y+14	; 0x0e
     5f6:	89 0f       	add	r24, r25
     5f8:	8f 87       	std	Y+15, r24	; 0x0f
        try_conf = 1;       //! Try this configuration
     5fa:	81 e0       	ldi	r24, 0x01	; 1
     5fc:	8f 83       	std	Y+7, r24	; 0x07
        wait_for_rx = 1;    //! Enable "while (wait_for_rx ..." loop
     5fe:	81 e0       	ldi	r24, 0x01	; 1
     600:	89 87       	std	Y+9, r24	; 0x09
     602:	a5 c0       	rjmp	.+330    	; 0x74e <can_auto_baudrate+0x1a2>
    }
    else //! mode = 1
    {
        brp  = Max ((((CANBT1 &  BRP_MSK) >> 1) +1) , BRP_MIN );
     604:	e2 ee       	ldi	r30, 0xE2	; 226
     606:	f0 e0       	ldi	r31, 0x00	; 0
     608:	80 81       	ld	r24, Z
     60a:	88 2f       	mov	r24, r24
     60c:	90 e0       	ldi	r25, 0x00	; 0
     60e:	8e 77       	andi	r24, 0x7E	; 126
     610:	90 70       	andi	r25, 0x00	; 0
     612:	95 95       	asr	r25
     614:	87 95       	ror	r24
     616:	01 96       	adiw	r24, 0x01	; 1
     618:	82 30       	cpi	r24, 0x02	; 2
     61a:	91 05       	cpc	r25, r1
     61c:	6c f0       	brlt	.+26     	; 0x638 <can_auto_baudrate+0x8c>
     61e:	e2 ee       	ldi	r30, 0xE2	; 226
     620:	f0 e0       	ldi	r31, 0x00	; 0
     622:	80 81       	ld	r24, Z
     624:	88 2f       	mov	r24, r24
     626:	90 e0       	ldi	r25, 0x00	; 0
     628:	8e 77       	andi	r24, 0x7E	; 126
     62a:	90 70       	andi	r25, 0x00	; 0
     62c:	95 95       	asr	r25
     62e:	87 95       	ror	r24
     630:	98 2f       	mov	r25, r24
     632:	9f 5f       	subi	r25, 0xFF	; 255
     634:	98 8f       	std	Y+24, r25	; 0x18
     636:	02 c0       	rjmp	.+4      	; 0x63c <can_auto_baudrate+0x90>
     638:	81 e0       	ldi	r24, 0x01	; 1
     63a:	88 8f       	std	Y+24, r24	; 0x18
     63c:	98 8d       	ldd	r25, Y+24	; 0x18
     63e:	98 8b       	std	Y+16, r25	; 0x10
        prs  = Max ((((CANBT2 &  PRS_MSK) >> 1) +1) , PRS_MIN );
     640:	e3 ee       	ldi	r30, 0xE3	; 227
     642:	f0 e0       	ldi	r31, 0x00	; 0
     644:	80 81       	ld	r24, Z
     646:	88 2f       	mov	r24, r24
     648:	90 e0       	ldi	r25, 0x00	; 0
     64a:	8e 70       	andi	r24, 0x0E	; 14
     64c:	90 70       	andi	r25, 0x00	; 0
     64e:	95 95       	asr	r25
     650:	87 95       	ror	r24
     652:	01 96       	adiw	r24, 0x01	; 1
     654:	82 30       	cpi	r24, 0x02	; 2
     656:	91 05       	cpc	r25, r1
     658:	6c f0       	brlt	.+26     	; 0x674 <can_auto_baudrate+0xc8>
     65a:	e3 ee       	ldi	r30, 0xE3	; 227
     65c:	f0 e0       	ldi	r31, 0x00	; 0
     65e:	80 81       	ld	r24, Z
     660:	88 2f       	mov	r24, r24
     662:	90 e0       	ldi	r25, 0x00	; 0
     664:	8e 70       	andi	r24, 0x0E	; 14
     666:	90 70       	andi	r25, 0x00	; 0
     668:	95 95       	asr	r25
     66a:	87 95       	ror	r24
     66c:	98 2f       	mov	r25, r24
     66e:	9f 5f       	subi	r25, 0xFF	; 255
     670:	9f 8b       	std	Y+23, r25	; 0x17
     672:	02 c0       	rjmp	.+4      	; 0x678 <can_auto_baudrate+0xcc>
     674:	81 e0       	ldi	r24, 0x01	; 1
     676:	8f 8b       	std	Y+23, r24	; 0x17
     678:	9f 89       	ldd	r25, Y+23	; 0x17
     67a:	9f 87       	std	Y+15, r25	; 0x0f
        phs1 = Max ((((CANBT3 & PHS1_MSK) >> 1) +1) , PHS1_MIN);
     67c:	e4 ee       	ldi	r30, 0xE4	; 228
     67e:	f0 e0       	ldi	r31, 0x00	; 0
     680:	80 81       	ld	r24, Z
     682:	88 2f       	mov	r24, r24
     684:	90 e0       	ldi	r25, 0x00	; 0
     686:	8e 70       	andi	r24, 0x0E	; 14
     688:	90 70       	andi	r25, 0x00	; 0
     68a:	95 95       	asr	r25
     68c:	87 95       	ror	r24
     68e:	01 96       	adiw	r24, 0x01	; 1
     690:	83 30       	cpi	r24, 0x03	; 3
     692:	91 05       	cpc	r25, r1
     694:	6c f0       	brlt	.+26     	; 0x6b0 <can_auto_baudrate+0x104>
     696:	e4 ee       	ldi	r30, 0xE4	; 228
     698:	f0 e0       	ldi	r31, 0x00	; 0
     69a:	80 81       	ld	r24, Z
     69c:	88 2f       	mov	r24, r24
     69e:	90 e0       	ldi	r25, 0x00	; 0
     6a0:	8e 70       	andi	r24, 0x0E	; 14
     6a2:	90 70       	andi	r25, 0x00	; 0
     6a4:	95 95       	asr	r25
     6a6:	87 95       	ror	r24
     6a8:	98 2f       	mov	r25, r24
     6aa:	9f 5f       	subi	r25, 0xFF	; 255
     6ac:	9e 8b       	std	Y+22, r25	; 0x16
     6ae:	02 c0       	rjmp	.+4      	; 0x6b4 <can_auto_baudrate+0x108>
     6b0:	82 e0       	ldi	r24, 0x02	; 2
     6b2:	8e 8b       	std	Y+22, r24	; 0x16
     6b4:	9e 89       	ldd	r25, Y+22	; 0x16
     6b6:	9d 87       	std	Y+13, r25	; 0x0d
        phs2 = Max ((((CANBT3 & PHS2_MSK) >> 4) +1) , PHS2_MIN);
     6b8:	e4 ee       	ldi	r30, 0xE4	; 228
     6ba:	f0 e0       	ldi	r31, 0x00	; 0
     6bc:	80 81       	ld	r24, Z
     6be:	88 2f       	mov	r24, r24
     6c0:	90 e0       	ldi	r25, 0x00	; 0
     6c2:	80 77       	andi	r24, 0x70	; 112
     6c4:	90 70       	andi	r25, 0x00	; 0
     6c6:	95 95       	asr	r25
     6c8:	87 95       	ror	r24
     6ca:	95 95       	asr	r25
     6cc:	87 95       	ror	r24
     6ce:	95 95       	asr	r25
     6d0:	87 95       	ror	r24
     6d2:	95 95       	asr	r25
     6d4:	87 95       	ror	r24
     6d6:	01 96       	adiw	r24, 0x01	; 1
     6d8:	83 30       	cpi	r24, 0x03	; 3
     6da:	91 05       	cpc	r25, r1
     6dc:	9c f0       	brlt	.+38     	; 0x704 <can_auto_baudrate+0x158>
     6de:	e4 ee       	ldi	r30, 0xE4	; 228
     6e0:	f0 e0       	ldi	r31, 0x00	; 0
     6e2:	80 81       	ld	r24, Z
     6e4:	88 2f       	mov	r24, r24
     6e6:	90 e0       	ldi	r25, 0x00	; 0
     6e8:	80 77       	andi	r24, 0x70	; 112
     6ea:	90 70       	andi	r25, 0x00	; 0
     6ec:	95 95       	asr	r25
     6ee:	87 95       	ror	r24
     6f0:	95 95       	asr	r25
     6f2:	87 95       	ror	r24
     6f4:	95 95       	asr	r25
     6f6:	87 95       	ror	r24
     6f8:	95 95       	asr	r25
     6fa:	87 95       	ror	r24
     6fc:	98 2f       	mov	r25, r24
     6fe:	9f 5f       	subi	r25, 0xFF	; 255
     700:	9d 8b       	std	Y+21, r25	; 0x15
     702:	02 c0       	rjmp	.+4      	; 0x708 <can_auto_baudrate+0x15c>
     704:	82 e0       	ldi	r24, 0x02	; 2
     706:	8d 8b       	std	Y+21, r24	; 0x15
     708:	9d 89       	ldd	r25, Y+21	; 0x15
     70a:	9c 87       	std	Y+12, r25	; 0x0c
        ntq  = Max ((prs + phs1 + phs2 + 1) , NTQ_MIN);
     70c:	8f 85       	ldd	r24, Y+15	; 0x0f
     70e:	28 2f       	mov	r18, r24
     710:	30 e0       	ldi	r19, 0x00	; 0
     712:	8d 85       	ldd	r24, Y+13	; 0x0d
     714:	88 2f       	mov	r24, r24
     716:	90 e0       	ldi	r25, 0x00	; 0
     718:	28 0f       	add	r18, r24
     71a:	39 1f       	adc	r19, r25
     71c:	8c 85       	ldd	r24, Y+12	; 0x0c
     71e:	88 2f       	mov	r24, r24
     720:	90 e0       	ldi	r25, 0x00	; 0
     722:	82 0f       	add	r24, r18
     724:	93 1f       	adc	r25, r19
     726:	01 96       	adiw	r24, 0x01	; 1
     728:	9c 8b       	std	Y+20, r25	; 0x14
     72a:	8b 8b       	std	Y+19, r24	; 0x13
     72c:	8b 89       	ldd	r24, Y+19	; 0x13
     72e:	9c 89       	ldd	r25, Y+20	; 0x14
     730:	88 30       	cpi	r24, 0x08	; 8
     732:	91 05       	cpc	r25, r1
     734:	24 f4       	brge	.+8      	; 0x73e <can_auto_baudrate+0x192>
     736:	88 e0       	ldi	r24, 0x08	; 8
     738:	90 e0       	ldi	r25, 0x00	; 0
     73a:	9c 8b       	std	Y+20, r25	; 0x14
     73c:	8b 8b       	std	Y+19, r24	; 0x13
     73e:	9b 89       	ldd	r25, Y+19	; 0x13
     740:	9e 87       	std	Y+14, r25	; 0x0e
        phs1_inc = evaluate = 1;   //! To enter in "while (evaluate ..." loop
     742:	81 e0       	ldi	r24, 0x01	; 1
     744:	88 87       	std	Y+8, r24	; 0x08
     746:	88 85       	ldd	r24, Y+8	; 0x08
     748:	8b 87       	std	Y+11, r24	; 0x0b
        try_conf = 0;       //! Look for the next configuration
     74a:	1f 82       	std	Y+7, r1	; 0x07
        wait_for_rx = 0;    //! Skip "while (wait_for_rx ..." loop
     74c:	19 86       	std	Y+9, r1	; 0x09
    }

    //! --- Clear all MOb's (CANMSG not cleared)
    for (u8_temp0 = 0; u8_temp0 < NB_MOB; u8_temp0++)
     74e:	19 8a       	std	Y+17, r1	; 0x11
     750:	1b c0       	rjmp	.+54     	; 0x788 <can_auto_baudrate+0x1dc>
    {
        Can_set_mob(u8_temp0);  //! Page index
     752:	ed ee       	ldi	r30, 0xED	; 237
     754:	f0 e0       	ldi	r31, 0x00	; 0
     756:	89 89       	ldd	r24, Y+17	; 0x11
     758:	82 95       	swap	r24
     75a:	80 7f       	andi	r24, 0xF0	; 240
     75c:	80 83       	st	Z, r24
        Can_clear_mob();        //! All MOb Registers = 0x00
     75e:	8e ee       	ldi	r24, 0xEE	; 238
     760:	90 e0       	ldi	r25, 0x00	; 0
     762:	9a 83       	std	Y+2, r25	; 0x02
     764:	89 83       	std	Y+1, r24	; 0x01
     766:	08 c0       	rjmp	.+16     	; 0x778 <can_auto_baudrate+0x1cc>
     768:	e9 81       	ldd	r30, Y+1	; 0x01
     76a:	fa 81       	ldd	r31, Y+2	; 0x02
     76c:	10 82       	st	Z, r1
     76e:	89 81       	ldd	r24, Y+1	; 0x01
     770:	9a 81       	ldd	r25, Y+2	; 0x02
     772:	01 96       	adiw	r24, 0x01	; 1
     774:	9a 83       	std	Y+2, r25	; 0x02
     776:	89 83       	std	Y+1, r24	; 0x01
     778:	89 81       	ldd	r24, Y+1	; 0x01
     77a:	9a 81       	ldd	r25, Y+2	; 0x02
     77c:	88 3f       	cpi	r24, 0xF8	; 248
     77e:	91 05       	cpc	r25, r1
     780:	98 f3       	brcs	.-26     	; 0x768 <can_auto_baudrate+0x1bc>
        try_conf = 0;       //! Look for the next configuration
        wait_for_rx = 0;    //! Skip "while (wait_for_rx ..." loop
    }

    //! --- Clear all MOb's (CANMSG not cleared)
    for (u8_temp0 = 0; u8_temp0 < NB_MOB; u8_temp0++)
     782:	89 89       	ldd	r24, Y+17	; 0x11
     784:	8f 5f       	subi	r24, 0xFF	; 255
     786:	89 8b       	std	Y+17, r24	; 0x11
     788:	89 89       	ldd	r24, Y+17	; 0x11
     78a:	8f 30       	cpi	r24, 0x0F	; 15
     78c:	10 f3       	brcs	.-60     	; 0x752 <can_auto_baudrate+0x1a6>
     78e:	61 c1       	rjmp	.+706    	; 0xa52 <can_auto_baudrate+0x4a6>
        Can_clear_mob();        //! All MOb Registers = 0x00
    }

    while (bt_not_found == 1)
    {
        if (try_conf == 1)
     790:	8f 81       	ldd	r24, Y+7	; 0x07
     792:	81 30       	cpi	r24, 0x01	; 1
     794:	09 f0       	breq	.+2      	; 0x798 <can_auto_baudrate+0x1ec>
     796:	c2 c0       	rjmp	.+388    	; 0x91c <can_auto_baudrate+0x370>
        {
            Can_reset();
     798:	e8 ed       	ldi	r30, 0xD8	; 216
     79a:	f0 e0       	ldi	r31, 0x00	; 0
     79c:	81 e0       	ldi	r24, 0x01	; 1
     79e:	80 83       	st	Z, r24
            conf_index++;
     7a0:	8c 81       	ldd	r24, Y+4	; 0x04
     7a2:	9d 81       	ldd	r25, Y+5	; 0x05
     7a4:	01 96       	adiw	r24, 0x01	; 1
     7a6:	9d 83       	std	Y+5, r25	; 0x05
     7a8:	8c 83       	std	Y+4, r24	; 0x04
            ovrtim_flag=0;
     7aa:	1e 82       	std	Y+6, r1	; 0x06

            //! --- CANBTx registers update (sjw = phs2/2, 3 sample points)
            CANBT1 = ((brp-1) << BRP);
     7ac:	e2 ee       	ldi	r30, 0xE2	; 226
     7ae:	f0 e0       	ldi	r31, 0x00	; 0
     7b0:	88 89       	ldd	r24, Y+16	; 0x10
     7b2:	81 50       	subi	r24, 0x01	; 1
     7b4:	88 0f       	add	r24, r24
     7b6:	80 83       	st	Z, r24
            CANBT2 = (((phs2 >> 1)-1) << SJW) |((prs-1) << PRS);
     7b8:	e3 ee       	ldi	r30, 0xE3	; 227
     7ba:	f0 e0       	ldi	r31, 0x00	; 0
     7bc:	8c 85       	ldd	r24, Y+12	; 0x0c
     7be:	86 95       	lsr	r24
     7c0:	88 2f       	mov	r24, r24
     7c2:	90 e0       	ldi	r25, 0x00	; 0
     7c4:	01 97       	sbiw	r24, 0x01	; 1
     7c6:	88 0f       	add	r24, r24
     7c8:	99 1f       	adc	r25, r25
     7ca:	82 95       	swap	r24
     7cc:	92 95       	swap	r25
     7ce:	90 7f       	andi	r25, 0xF0	; 240
     7d0:	98 27       	eor	r25, r24
     7d2:	80 7f       	andi	r24, 0xF0	; 240
     7d4:	98 27       	eor	r25, r24
     7d6:	28 2f       	mov	r18, r24
     7d8:	8f 85       	ldd	r24, Y+15	; 0x0f
     7da:	88 2f       	mov	r24, r24
     7dc:	90 e0       	ldi	r25, 0x00	; 0
     7de:	01 97       	sbiw	r24, 0x01	; 1
     7e0:	88 0f       	add	r24, r24
     7e2:	99 1f       	adc	r25, r25
     7e4:	82 2b       	or	r24, r18
     7e6:	80 83       	st	Z, r24
            CANBT3 = (((phs2-1) << PHS2) | ((phs1-1) << PHS1) | (1<<SMP));
     7e8:	e4 ee       	ldi	r30, 0xE4	; 228
     7ea:	f0 e0       	ldi	r31, 0x00	; 0
     7ec:	8c 85       	ldd	r24, Y+12	; 0x0c
     7ee:	88 2f       	mov	r24, r24
     7f0:	90 e0       	ldi	r25, 0x00	; 0
     7f2:	01 97       	sbiw	r24, 0x01	; 1
     7f4:	82 95       	swap	r24
     7f6:	92 95       	swap	r25
     7f8:	90 7f       	andi	r25, 0xF0	; 240
     7fa:	98 27       	eor	r25, r24
     7fc:	80 7f       	andi	r24, 0xF0	; 240
     7fe:	98 27       	eor	r25, r24
     800:	28 2f       	mov	r18, r24
     802:	8d 85       	ldd	r24, Y+13	; 0x0d
     804:	88 2f       	mov	r24, r24
     806:	90 e0       	ldi	r25, 0x00	; 0
     808:	01 97       	sbiw	r24, 0x01	; 1
     80a:	88 0f       	add	r24, r24
     80c:	99 1f       	adc	r25, r25
     80e:	82 2b       	or	r24, r18
     810:	81 60       	ori	r24, 0x01	; 1
     812:	80 83       	st	Z, r24

            //! --- Set CAN-Timer - Used for time-out
            //!     There are 641 (0x281) possible evaluations. The first one provides the faster
            //!         the faster bit timing, the last one gives the slower. It is necessary to
            //!         modulate the time-out versus bit timing (0x281>>3=0x50, matching an U8).
            CANTCON = (U8)(conf_index >> 3);
     814:	e5 ee       	ldi	r30, 0xE5	; 229
     816:	f0 e0       	ldi	r31, 0x00	; 0
     818:	8c 81       	ldd	r24, Y+4	; 0x04
     81a:	9d 81       	ldd	r25, Y+5	; 0x05
     81c:	96 95       	lsr	r25
     81e:	87 95       	ror	r24
     820:	96 95       	lsr	r25
     822:	87 95       	ror	r24
     824:	96 95       	lsr	r25
     826:	87 95       	ror	r24
     828:	80 83       	st	Z, r24

            //! --- MOb configuration
            Can_set_mob(MOB_0);                 //! Use MOb-0
     82a:	ed ee       	ldi	r30, 0xED	; 237
     82c:	f0 e0       	ldi	r31, 0x00	; 0
     82e:	10 82       	st	Z, r1
            CANSTMOB = 0;                       //! Reset MOb status (undone by "Can_reset()")
     830:	ee ee       	ldi	r30, 0xEE	; 238
     832:	f0 e0       	ldi	r31, 0x00	; 0
     834:	10 82       	st	Z, r1
            CANCDMOB = (MOB_Rx_ENA  << CONMOB); //! MOb 0 in receive mode
     836:	ef ee       	ldi	r30, 0xEF	; 239
     838:	f0 e0       	ldi	r31, 0x00	; 0
     83a:	80 e8       	ldi	r24, 0x80	; 128
     83c:	80 83       	st	Z, r24

            //! CAN controller configuration
            CANGCON = (1<<LISTEN) | (1<<ENASTB);//! Enable CAN controller in "listen" mode
     83e:	e8 ed       	ldi	r30, 0xD8	; 216
     840:	f0 e0       	ldi	r31, 0x00	; 0
     842:	8a e0       	ldi	r24, 0x0A	; 10
     844:	80 83       	st	Z, r24
            while ((CANGSTA & (1<<ENFG)) == 0); //! Wait for Enable OK
     846:	e9 ed       	ldi	r30, 0xD9	; 217
     848:	f0 e0       	ldi	r31, 0x00	; 0
     84a:	80 81       	ld	r24, Z
     84c:	88 2f       	mov	r24, r24
     84e:	90 e0       	ldi	r25, 0x00	; 0
     850:	84 70       	andi	r24, 0x04	; 4
     852:	90 70       	andi	r25, 0x00	; 0
     854:	00 97       	sbiw	r24, 0x00	; 0
     856:	b9 f3       	breq	.-18     	; 0x846 <can_auto_baudrate+0x29a>
            CANGIT = 0xFF;                      //! Reset General errors and OVRTIM flag
     858:	ea ed       	ldi	r30, 0xDA	; 218
     85a:	f0 e0       	ldi	r31, 0x00	; 0
     85c:	8f ef       	ldi	r24, 0xFF	; 255
     85e:	80 83       	st	Z, r24
     860:	5d c0       	rjmp	.+186    	; 0x91c <can_auto_baudrate+0x370>
        //!     Try to perform a CAN message reception in "LISTEN" mode without error and
        //!     before a time_out done by CAN-Timer.
        //!     Else gives the hand to "EVALUATE LOOP" to have a new set of bit timing.
        while (wait_for_rx == 1)
        {
            u8_temp0 = CANSTMOB;
     862:	ee ee       	ldi	r30, 0xEE	; 238
     864:	f0 e0       	ldi	r31, 0x00	; 0
     866:	80 81       	ld	r24, Z
     868:	89 8b       	std	Y+17, r24	; 0x11
            //! --- RxOK received ?
            if ((u8_temp0 & (1<<RXOK)) != 0)
     86a:	89 89       	ldd	r24, Y+17	; 0x11
     86c:	88 2f       	mov	r24, r24
     86e:	90 e0       	ldi	r25, 0x00	; 0
     870:	80 72       	andi	r24, 0x20	; 32
     872:	90 70       	andi	r25, 0x00	; 0
     874:	00 97       	sbiw	r24, 0x00	; 0
     876:	c9 f0       	breq	.+50     	; 0x8aa <can_auto_baudrate+0x2fe>
            {   //! --- It is the successful output of "can_auto_baudrate" function
                wait_for_rx = 0;    //! Out of "while (wait_for_rx ..." loop
     878:	19 86       	std	Y+9, r1	; 0x09
                evaluate = 0;       //! Will skip "while (evaluate ..." loop
     87a:	18 86       	std	Y+8, r1	; 0x08
                bt_not_found = 0;   //! Out of "while (bt_not_found ..." loop
     87c:	1a 86       	std	Y+10, r1	; 0x0a
                bt_performed = 1;   //! Return flag = TRUE
     87e:	81 e0       	ldi	r24, 0x01	; 1
     880:	8b 83       	std	Y+3, r24	; 0x03
                DISABLE_MOB;        //! Disable MOb-0
     882:	af ee       	ldi	r26, 0xEF	; 239
     884:	b0 e0       	ldi	r27, 0x00	; 0
     886:	ef ee       	ldi	r30, 0xEF	; 239
     888:	f0 e0       	ldi	r31, 0x00	; 0
     88a:	80 81       	ld	r24, Z
     88c:	8f 73       	andi	r24, 0x3F	; 63
     88e:	8c 93       	st	X, r24
                CANGCON = 0x00;     //! Disable CAN controller & reset "listen" mode
     890:	e8 ed       	ldi	r30, 0xD8	; 216
     892:	f0 e0       	ldi	r31, 0x00	; 0
     894:	10 82       	st	Z, r1
                while ((CANGSTA & (1<<ENFG)) != 0); //! Wait for Disable OK
     896:	e9 ed       	ldi	r30, 0xD9	; 217
     898:	f0 e0       	ldi	r31, 0x00	; 0
     89a:	80 81       	ld	r24, Z
     89c:	88 2f       	mov	r24, r24
     89e:	90 e0       	ldi	r25, 0x00	; 0
     8a0:	84 70       	andi	r24, 0x04	; 4
     8a2:	90 70       	andi	r25, 0x00	; 0
     8a4:	00 97       	sbiw	r24, 0x00	; 0
     8a6:	b9 f7       	brne	.-18     	; 0x896 <can_auto_baudrate+0x2ea>
     8a8:	39 c0       	rjmp	.+114    	; 0x91c <can_auto_baudrate+0x370>
            }
             //! --- Else stop if any errors
             else
            {
                //! --- MOb error ?
                if ((u8_temp0 & ((1<<BERR)|(1<<SERR)|(1<<CERR)|(1<<FERR)|(1<<AERR))) !=0)
     8aa:	89 89       	ldd	r24, Y+17	; 0x11
     8ac:	88 2f       	mov	r24, r24
     8ae:	90 e0       	ldi	r25, 0x00	; 0
     8b0:	8f 71       	andi	r24, 0x1F	; 31
     8b2:	90 70       	andi	r25, 0x00	; 0
     8b4:	00 97       	sbiw	r24, 0x00	; 0
     8b6:	19 f0       	breq	.+6      	; 0x8be <can_auto_baudrate+0x312>
                {
                    evaluate = 1;       //! Will enter in "while (evaluate ..." loop
     8b8:	81 e0       	ldi	r24, 0x01	; 1
     8ba:	88 87       	std	Y+8, r24	; 0x08
                    wait_for_rx = 0;    //! Out of "while (wait_for_rx ..." loop
     8bc:	19 86       	std	Y+9, r1	; 0x09
                }

                u8_temp0 = CANGIT;
     8be:	ea ed       	ldi	r30, 0xDA	; 218
     8c0:	f0 e0       	ldi	r31, 0x00	; 0
     8c2:	80 81       	ld	r24, Z
     8c4:	89 8b       	std	Y+17, r24	; 0x11

                //! --- Time_out reached ?
                if ((u8_temp0 & (1<<OVRTIM)) !=0 )
     8c6:	89 89       	ldd	r24, Y+17	; 0x11
     8c8:	88 2f       	mov	r24, r24
     8ca:	90 e0       	ldi	r25, 0x00	; 0
     8cc:	80 72       	andi	r24, 0x20	; 32
     8ce:	90 70       	andi	r25, 0x00	; 0
     8d0:	00 97       	sbiw	r24, 0x00	; 0
     8d2:	c1 f0       	breq	.+48     	; 0x904 <can_auto_baudrate+0x358>
                {
                    if (ovrtim_flag==0)
     8d4:	8e 81       	ldd	r24, Y+6	; 0x06
     8d6:	88 23       	and	r24, r24
     8d8:	59 f4       	brne	.+22     	; 0x8f0 <can_auto_baudrate+0x344>
                    {
                        //! --- First Time_out
                        CANGIT |= (1<<OVRTIM);  // Reset OVRTIM
     8da:	aa ed       	ldi	r26, 0xDA	; 218
     8dc:	b0 e0       	ldi	r27, 0x00	; 0
     8de:	ea ed       	ldi	r30, 0xDA	; 218
     8e0:	f0 e0       	ldi	r31, 0x00	; 0
     8e2:	80 81       	ld	r24, Z
     8e4:	80 62       	ori	r24, 0x20	; 32
     8e6:	8c 93       	st	X, r24
                        ovrtim_flag++;
     8e8:	8e 81       	ldd	r24, Y+6	; 0x06
     8ea:	8f 5f       	subi	r24, 0xFF	; 255
     8ec:	8e 83       	std	Y+6, r24	; 0x06
     8ee:	0a c0       	rjmp	.+20     	; 0x904 <can_auto_baudrate+0x358>
                    }
                    else
                    {
                        //! --- Second Time_out
                        CANGIT |= (1<<OVRTIM);  // Reset OVRTIM
     8f0:	aa ed       	ldi	r26, 0xDA	; 218
     8f2:	b0 e0       	ldi	r27, 0x00	; 0
     8f4:	ea ed       	ldi	r30, 0xDA	; 218
     8f6:	f0 e0       	ldi	r31, 0x00	; 0
     8f8:	80 81       	ld	r24, Z
     8fa:	80 62       	ori	r24, 0x20	; 32
     8fc:	8c 93       	st	X, r24
                        evaluate = 1;           //! Will enter in "while (evaluate ..." loop
     8fe:	81 e0       	ldi	r24, 0x01	; 1
     900:	88 87       	std	Y+8, r24	; 0x08
                        wait_for_rx = 0;        //! Out of "while (wait_for_rx ..." loop
     902:	19 86       	std	Y+9, r1	; 0x09
                    }
                }

                //! --- General error ?
                if ((u8_temp0 & ((1<<SERG)|(1<<CERG)|(1<<FERG)|(1<<AERG))) !=0)
     904:	89 89       	ldd	r24, Y+17	; 0x11
     906:	88 2f       	mov	r24, r24
     908:	90 e0       	ldi	r25, 0x00	; 0
     90a:	8f 70       	andi	r24, 0x0F	; 15
     90c:	90 70       	andi	r25, 0x00	; 0
     90e:	00 97       	sbiw	r24, 0x00	; 0
     910:	29 f0       	breq	.+10     	; 0x91c <can_auto_baudrate+0x370>
                {
                    evaluate = 1;       //! Will enter in "while (evaluate ..." loop
     912:	81 e0       	ldi	r24, 0x01	; 1
     914:	88 87       	std	Y+8, r24	; 0x08
                    wait_for_rx = 0;    //! Out of "while (wait_for_rx ..." loop
     916:	19 86       	std	Y+9, r1	; 0x09
                    try_conf = 1;       //! Try this configuration
     918:	81 e0       	ldi	r24, 0x01	; 1
     91a:	8f 83       	std	Y+7, r24	; 0x07
        //! --- WAIT_FOR_RX LOOP:
        //!     ================
        //!     Try to perform a CAN message reception in "LISTEN" mode without error and
        //!     before a time_out done by CAN-Timer.
        //!     Else gives the hand to "EVALUATE LOOP" to have a new set of bit timing.
        while (wait_for_rx == 1)
     91c:	89 85       	ldd	r24, Y+9	; 0x09
     91e:	81 30       	cpi	r24, 0x01	; 1
     920:	09 f4       	brne	.+2      	; 0x924 <can_auto_baudrate+0x378>
     922:	9f cf       	rjmp	.-194    	; 0x862 <can_auto_baudrate+0x2b6>
     924:	92 c0       	rjmp	.+292    	; 0xa4a <can_auto_baudrate+0x49e>
        //!     limit and after it is the Prescaler. During the computing high (80%)
        //!     and low (75%) limits of sampling point location are tested. SJW and
        //!     the number of sampling points are not calculated in this loop.
        while (evaluate == 1)
        {
            if (phs1_inc != 0) phs1++;
     926:	8b 85       	ldd	r24, Y+11	; 0x0b
     928:	88 23       	and	r24, r24
     92a:	19 f0       	breq	.+6      	; 0x932 <can_auto_baudrate+0x386>
     92c:	8d 85       	ldd	r24, Y+13	; 0x0d
     92e:	8f 5f       	subi	r24, 0xFF	; 255
     930:	8d 87       	std	Y+13, r24	; 0x0d
            phs1_inc = 1;
     932:	81 e0       	ldi	r24, 0x01	; 1
     934:	8b 87       	std	Y+11, r24	; 0x0b

            // --- The following test takes into account the previous incrementation of phs1
            if ((phs1 > PHS1_MAX) && (phs2 >= PHS2_MAX))
     936:	8d 85       	ldd	r24, Y+13	; 0x0d
     938:	89 30       	cpi	r24, 0x09	; 9
     93a:	78 f1       	brcs	.+94     	; 0x99a <can_auto_baudrate+0x3ee>
     93c:	8c 85       	ldd	r24, Y+12	; 0x0c
     93e:	88 30       	cpi	r24, 0x08	; 8
     940:	60 f1       	brcs	.+88     	; 0x99a <can_auto_baudrate+0x3ee>
            {
                phs1 = PHS1_MIN;
     942:	82 e0       	ldi	r24, 0x02	; 2
     944:	8d 87       	std	Y+13, r24	; 0x0d
                phs2 = PHS2_MIN;
     946:	82 e0       	ldi	r24, 0x02	; 2
     948:	8c 87       	std	Y+12, r24	; 0x0c
                phs1_inc = 0;
     94a:	1b 86       	std	Y+11, r1	; 0x0b
                if (ntq != NTQ_MAX) ntq++;
     94c:	8e 85       	ldd	r24, Y+14	; 0x0e
     94e:	89 31       	cpi	r24, 0x19	; 25
     950:	21 f0       	breq	.+8      	; 0x95a <can_auto_baudrate+0x3ae>
     952:	8e 85       	ldd	r24, Y+14	; 0x0e
     954:	8f 5f       	subi	r24, 0xFF	; 255
     956:	8e 87       	std	Y+14, r24	; 0x0e
     958:	78 c0       	rjmp	.+240    	; 0xa4a <can_auto_baudrate+0x49e>
                else
                {
                    ntq = NTQ_MIN;
     95a:	88 e0       	ldi	r24, 0x08	; 8
     95c:	8e 87       	std	Y+14, r24	; 0x0e
                    if (brp != BRP_MAX) brp++;
     95e:	88 89       	ldd	r24, Y+16	; 0x10
     960:	80 34       	cpi	r24, 0x40	; 64
     962:	21 f0       	breq	.+8      	; 0x96c <can_auto_baudrate+0x3c0>
     964:	88 89       	ldd	r24, Y+16	; 0x10
     966:	8f 5f       	subi	r24, 0xFF	; 255
     968:	88 8b       	std	Y+16, r24	; 0x10
     96a:	6f c0       	rjmp	.+222    	; 0xa4a <can_auto_baudrate+0x49e>
                    else
                    {
                        //! --- It is the failing of "can_auto_baudrate" function
                        evaluate = 0;       //! Out of "while (evaluate ..." loop
     96c:	18 86       	std	Y+8, r1	; 0x08
                        bt_performed = 0;   //! Return flag = FALSE
     96e:	1b 82       	std	Y+3, r1	; 0x03
                        bt_not_found = 0;   //! Out of "while (bt_not_found ..." loop
     970:	1a 86       	std	Y+10, r1	; 0x0a
                        DISABLE_MOB;        //! Disable MOb-0
     972:	af ee       	ldi	r26, 0xEF	; 239
     974:	b0 e0       	ldi	r27, 0x00	; 0
     976:	ef ee       	ldi	r30, 0xEF	; 239
     978:	f0 e0       	ldi	r31, 0x00	; 0
     97a:	80 81       	ld	r24, Z
     97c:	8f 73       	andi	r24, 0x3F	; 63
     97e:	8c 93       	st	X, r24
                        CANGCON = 0x00;     //! Disable CAN controller & reset "listen" mode
     980:	e8 ed       	ldi	r30, 0xD8	; 216
     982:	f0 e0       	ldi	r31, 0x00	; 0
     984:	10 82       	st	Z, r1
                        while ((CANGSTA & (1<<ENFG)) != 0); //! Wait for Disable OK
     986:	e9 ed       	ldi	r30, 0xD9	; 217
     988:	f0 e0       	ldi	r31, 0x00	; 0
     98a:	80 81       	ld	r24, Z
     98c:	88 2f       	mov	r24, r24
     98e:	90 e0       	ldi	r25, 0x00	; 0
     990:	84 70       	andi	r24, 0x04	; 4
     992:	90 70       	andi	r25, 0x00	; 0
     994:	00 97       	sbiw	r24, 0x00	; 0
     996:	b9 f7       	brne	.-18     	; 0x986 <can_auto_baudrate+0x3da>
     998:	58 c0       	rjmp	.+176    	; 0xa4a <can_auto_baudrate+0x49e>
                }
            }
            else    // if (phs1 > PHS1_MAX ...
            {
                //! --- If psh1 > 5 then phs1 =phs2 or =phs2+1, else phs1=phs2
                if (phs1>5)
     99a:	8d 85       	ldd	r24, Y+13	; 0x0d
     99c:	86 30       	cpi	r24, 0x06	; 6
     99e:	80 f0       	brcs	.+32     	; 0x9c0 <can_auto_baudrate+0x414>
                {
                    if (phs1>(phs2+1)) phs1=(++phs2);
     9a0:	8d 85       	ldd	r24, Y+13	; 0x0d
     9a2:	28 2f       	mov	r18, r24
     9a4:	30 e0       	ldi	r19, 0x00	; 0
     9a6:	8c 85       	ldd	r24, Y+12	; 0x0c
     9a8:	88 2f       	mov	r24, r24
     9aa:	90 e0       	ldi	r25, 0x00	; 0
     9ac:	01 96       	adiw	r24, 0x01	; 1
     9ae:	82 17       	cp	r24, r18
     9b0:	93 07       	cpc	r25, r19
     9b2:	44 f4       	brge	.+16     	; 0x9c4 <can_auto_baudrate+0x418>
     9b4:	8c 85       	ldd	r24, Y+12	; 0x0c
     9b6:	8f 5f       	subi	r24, 0xFF	; 255
     9b8:	8c 87       	std	Y+12, r24	; 0x0c
     9ba:	8c 85       	ldd	r24, Y+12	; 0x0c
     9bc:	8d 87       	std	Y+13, r24	; 0x0d
     9be:	02 c0       	rjmp	.+4      	; 0x9c4 <can_auto_baudrate+0x418>
                }
                else
                {
                phs2=phs1;
     9c0:	8d 85       	ldd	r24, Y+13	; 0x0d
     9c2:	8c 87       	std	Y+12, r24	; 0x0c
                }
                prs = ntq - ( phs1 + phs2 + 1 );
     9c4:	9d 85       	ldd	r25, Y+13	; 0x0d
     9c6:	8c 85       	ldd	r24, Y+12	; 0x0c
     9c8:	89 0f       	add	r24, r25
     9ca:	98 2f       	mov	r25, r24
     9cc:	90 95       	com	r25
     9ce:	8e 85       	ldd	r24, Y+14	; 0x0e
     9d0:	89 0f       	add	r24, r25
     9d2:	8f 87       	std	Y+15, r24	; 0x0f

                //! --- Test PRS limits
                if ((prs <= PRS_MAX) && (prs >= PRS_MIN))
     9d4:	8f 85       	ldd	r24, Y+15	; 0x0f
     9d6:	89 30       	cpi	r24, 0x09	; 9
     9d8:	c0 f5       	brcc	.+112    	; 0xa4a <can_auto_baudrate+0x49e>
     9da:	8f 85       	ldd	r24, Y+15	; 0x0f
     9dc:	88 23       	and	r24, r24
     9de:	a9 f1       	breq	.+106    	; 0xa4a <can_auto_baudrate+0x49e>
                {
                    //! --- Values  accepted if  80% >= sampling point >= 75%
                    if (((phs2<<2) >= (1+prs+phs1)) && ((phs2+phs2+phs2) <= (1+prs+phs1)))
     9e0:	8c 85       	ldd	r24, Y+12	; 0x0c
     9e2:	88 2f       	mov	r24, r24
     9e4:	90 e0       	ldi	r25, 0x00	; 0
     9e6:	ac 01       	movw	r20, r24
     9e8:	44 0f       	add	r20, r20
     9ea:	55 1f       	adc	r21, r21
     9ec:	44 0f       	add	r20, r20
     9ee:	55 1f       	adc	r21, r21
     9f0:	8f 85       	ldd	r24, Y+15	; 0x0f
     9f2:	88 2f       	mov	r24, r24
     9f4:	90 e0       	ldi	r25, 0x00	; 0
     9f6:	9c 01       	movw	r18, r24
     9f8:	2f 5f       	subi	r18, 0xFF	; 255
     9fa:	3f 4f       	sbci	r19, 0xFF	; 255
     9fc:	8d 85       	ldd	r24, Y+13	; 0x0d
     9fe:	88 2f       	mov	r24, r24
     a00:	90 e0       	ldi	r25, 0x00	; 0
     a02:	82 0f       	add	r24, r18
     a04:	93 1f       	adc	r25, r19
     a06:	48 17       	cp	r20, r24
     a08:	59 07       	cpc	r21, r25
     a0a:	fc f0       	brlt	.+62     	; 0xa4a <can_auto_baudrate+0x49e>
     a0c:	8c 85       	ldd	r24, Y+12	; 0x0c
     a0e:	28 2f       	mov	r18, r24
     a10:	30 e0       	ldi	r19, 0x00	; 0
     a12:	8c 85       	ldd	r24, Y+12	; 0x0c
     a14:	88 2f       	mov	r24, r24
     a16:	90 e0       	ldi	r25, 0x00	; 0
     a18:	28 0f       	add	r18, r24
     a1a:	39 1f       	adc	r19, r25
     a1c:	8c 85       	ldd	r24, Y+12	; 0x0c
     a1e:	88 2f       	mov	r24, r24
     a20:	90 e0       	ldi	r25, 0x00	; 0
     a22:	a9 01       	movw	r20, r18
     a24:	48 0f       	add	r20, r24
     a26:	59 1f       	adc	r21, r25
     a28:	8f 85       	ldd	r24, Y+15	; 0x0f
     a2a:	88 2f       	mov	r24, r24
     a2c:	90 e0       	ldi	r25, 0x00	; 0
     a2e:	9c 01       	movw	r18, r24
     a30:	2f 5f       	subi	r18, 0xFF	; 255
     a32:	3f 4f       	sbci	r19, 0xFF	; 255
     a34:	8d 85       	ldd	r24, Y+13	; 0x0d
     a36:	88 2f       	mov	r24, r24
     a38:	90 e0       	ldi	r25, 0x00	; 0
     a3a:	82 0f       	add	r24, r18
     a3c:	93 1f       	adc	r25, r19
     a3e:	84 17       	cp	r24, r20
     a40:	95 07       	cpc	r25, r21
     a42:	1c f0       	brlt	.+6      	; 0xa4a <can_auto_baudrate+0x49e>
                    {
                        evaluate = 0;     //! Out of "while (evaluate ..." loop &
     a44:	18 86       	std	Y+8, r1	; 0x08
                        wait_for_rx = 1;  //!    new "while (bt_not_found ..." loop
     a46:	81 e0       	ldi	r24, 0x01	; 1
     a48:	89 87       	std	Y+9, r24	; 0x09
        //!     then Phase2=Phase1 and if Phase1>5, Phase1 can be equal to Phase2 or
        //!     Phase2+1. After this, the number of TQ is increased up to its high
        //!     limit and after it is the Prescaler. During the computing high (80%)
        //!     and low (75%) limits of sampling point location are tested. SJW and
        //!     the number of sampling points are not calculated in this loop.
        while (evaluate == 1)
     a4a:	88 85       	ldd	r24, Y+8	; 0x08
     a4c:	81 30       	cpi	r24, 0x01	; 1
     a4e:	09 f4       	brne	.+2      	; 0xa52 <can_auto_baudrate+0x4a6>
     a50:	6a cf       	rjmp	.-300    	; 0x926 <can_auto_baudrate+0x37a>
    {
        Can_set_mob(u8_temp0);  //! Page index
        Can_clear_mob();        //! All MOb Registers = 0x00
    }

    while (bt_not_found == 1)
     a52:	8a 85       	ldd	r24, Y+10	; 0x0a
     a54:	81 30       	cpi	r24, 0x01	; 1
     a56:	09 f4       	brne	.+2      	; 0xa5a <can_auto_baudrate+0x4ae>
     a58:	9b ce       	rjmp	.-714    	; 0x790 <can_auto_baudrate+0x1e4>
                }
            }
        } // while (evaluate ...
    } // while (bt_not_found ...

    return (bt_performed);
     a5a:	8b 81       	ldd	r24, Y+3	; 0x03
}
     a5c:	68 96       	adiw	r28, 0x18	; 24
     a5e:	0f b6       	in	r0, 0x3f	; 63
     a60:	f8 94       	cli
     a62:	de bf       	out	0x3e, r29	; 62
     a64:	0f be       	out	0x3f, r0	; 63
     a66:	cd bf       	out	0x3d, r28	; 61
     a68:	cf 91       	pop	r28
     a6a:	df 91       	pop	r29
     a6c:	08 95       	ret

00000a6e <can_fixed_baudrate>:
//!
//! @return Baudrate Status
//!         fixed = 1: baudrate performed
//------------------------------------------------------------------------------
U8 can_fixed_baudrate(U8 mode)
{
     a6e:	df 93       	push	r29
     a70:	cf 93       	push	r28
     a72:	0f 92       	push	r0
     a74:	cd b7       	in	r28, 0x3d	; 61
     a76:	de b7       	in	r29, 0x3e	; 62
     a78:	89 83       	std	Y+1, r24	; 0x01
    Can_reset();
     a7a:	e8 ed       	ldi	r30, 0xD8	; 216
     a7c:	f0 e0       	ldi	r31, 0x00	; 0
     a7e:	81 e0       	ldi	r24, 0x01	; 1
     a80:	80 83       	st	Z, r24
    Can_conf_bt();
     a82:	e2 ee       	ldi	r30, 0xE2	; 226
     a84:	f0 e0       	ldi	r31, 0x00	; 0
     a86:	82 e0       	ldi	r24, 0x02	; 2
     a88:	80 83       	st	Z, r24
     a8a:	e3 ee       	ldi	r30, 0xE3	; 227
     a8c:	f0 e0       	ldi	r31, 0x00	; 0
     a8e:	8c e0       	ldi	r24, 0x0C	; 12
     a90:	80 83       	st	Z, r24
     a92:	e4 ee       	ldi	r30, 0xE4	; 228
     a94:	f0 e0       	ldi	r31, 0x00	; 0
     a96:	87 e3       	ldi	r24, 0x37	; 55
     a98:	80 83       	st	Z, r24
    return 1;
     a9a:	81 e0       	ldi	r24, 0x01	; 1
}
     a9c:	0f 90       	pop	r0
     a9e:	cf 91       	pop	r28
     aa0:	df 91       	pop	r29
     aa2:	08 95       	ret

00000aa4 <can_init>:
//!         ==0: research of bit timing configuration failed
//!         ==1: baudrate performed 
//!
//------------------------------------------------------------------------------
U8 can_init(U8 mode)
{
     aa4:	df 93       	push	r29
     aa6:	cf 93       	push	r28
     aa8:	00 d0       	rcall	.+0      	; 0xaaa <can_init+0x6>
     aaa:	cd b7       	in	r28, 0x3d	; 61
     aac:	de b7       	in	r29, 0x3e	; 62
     aae:	89 83       	std	Y+1, r24	; 0x01
    if ((Can_bit_timing(mode))==0) return (0);  // c.f. macro in "can_drv.h"
     ab0:	89 81       	ldd	r24, Y+1	; 0x01
     ab2:	0e 94 37 05 	call	0xa6e	; 0xa6e <can_fixed_baudrate>
     ab6:	88 23       	and	r24, r24
     ab8:	11 f4       	brne	.+4      	; 0xabe <can_init+0x1a>
     aba:	1a 82       	std	Y+2, r1	; 0x02
     abc:	0b c0       	rjmp	.+22     	; 0xad4 <can_init+0x30>
    can_clear_all_mob();                        // c.f. function in "can_drv.c"
     abe:	0e 94 13 02 	call	0x426	; 0x426 <can_clear_all_mob>
    Can_enable();                               // c.f. macro in "can_drv.h" 
     ac2:	a8 ed       	ldi	r26, 0xD8	; 216
     ac4:	b0 e0       	ldi	r27, 0x00	; 0
     ac6:	e8 ed       	ldi	r30, 0xD8	; 216
     ac8:	f0 e0       	ldi	r31, 0x00	; 0
     aca:	80 81       	ld	r24, Z
     acc:	82 60       	ori	r24, 0x02	; 2
     ace:	8c 93       	st	X, r24
    return (1);
     ad0:	81 e0       	ldi	r24, 0x01	; 1
     ad2:	8a 83       	std	Y+2, r24	; 0x02
     ad4:	8a 81       	ldd	r24, Y+2	; 0x02
}
     ad6:	0f 90       	pop	r0
     ad8:	0f 90       	pop	r0
     ada:	cf 91       	pop	r28
     adc:	df 91       	pop	r29
     ade:	08 95       	ret

00000ae0 <can_cmd>:
//! @return CAN_CMD_ACCEPTED - command is accepted
//!         CAN_CMD_REFUSED  - command is refused
//!
//------------------------------------------------------------------------------
U8 can_cmd(st_cmd_t* cmd)
{
     ae0:	df 93       	push	r29
     ae2:	cf 93       	push	r28
     ae4:	cd b7       	in	r28, 0x3d	; 61
     ae6:	de b7       	in	r29, 0x3e	; 62
     ae8:	2d 97       	sbiw	r28, 0x0d	; 13
     aea:	0f b6       	in	r0, 0x3f	; 63
     aec:	f8 94       	cli
     aee:	de bf       	out	0x3e, r29	; 62
     af0:	0f be       	out	0x3f, r0	; 63
     af2:	cd bf       	out	0x3d, r28	; 61
     af4:	9a 87       	std	Y+10, r25	; 0x0a
     af6:	89 87       	std	Y+9, r24	; 0x09
  U8 mob_handle, cpt;
  U32 u32_temp;
  
  if (cmd->cmd == CMD_ABORT)
     af8:	e9 85       	ldd	r30, Y+9	; 0x09
     afa:	fa 85       	ldd	r31, Y+10	; 0x0a
     afc:	81 81       	ldd	r24, Z+1	; 0x01
     afe:	92 81       	ldd	r25, Z+2	; 0x02
     b00:	8c 30       	cpi	r24, 0x0C	; 12
     b02:	91 05       	cpc	r25, r1
     b04:	f9 f4       	brne	.+62     	; 0xb44 <can_cmd+0x64>
  {
    if (cmd->status == MOB_PENDING)
     b06:	e9 85       	ldd	r30, Y+9	; 0x09
     b08:	fa 85       	ldd	r31, Y+10	; 0x0a
     b0a:	82 85       	ldd	r24, Z+10	; 0x0a
     b0c:	80 36       	cpi	r24, 0x60	; 96
     b0e:	a9 f4       	brne	.+42     	; 0xb3a <can_cmd+0x5a>
    {
      // Rx or Tx not yet performed
      Can_set_mob(cmd->handle);
     b10:	ad ee       	ldi	r26, 0xED	; 237
     b12:	b0 e0       	ldi	r27, 0x00	; 0
     b14:	e9 85       	ldd	r30, Y+9	; 0x09
     b16:	fa 85       	ldd	r31, Y+10	; 0x0a
     b18:	80 81       	ld	r24, Z
     b1a:	82 95       	swap	r24
     b1c:	80 7f       	andi	r24, 0xF0	; 240
     b1e:	8c 93       	st	X, r24
      Can_mob_abort();
     b20:	af ee       	ldi	r26, 0xEF	; 239
     b22:	b0 e0       	ldi	r27, 0x00	; 0
     b24:	ef ee       	ldi	r30, 0xEF	; 239
     b26:	f0 e0       	ldi	r31, 0x00	; 0
     b28:	80 81       	ld	r24, Z
     b2a:	8f 73       	andi	r24, 0x3F	; 63
     b2c:	8c 93       	st	X, r24
      Can_clear_status_mob();       // To be sure !
     b2e:	ee ee       	ldi	r30, 0xEE	; 238
     b30:	f0 e0       	ldi	r31, 0x00	; 0
     b32:	10 82       	st	Z, r1
      cmd->handle = 0;
     b34:	e9 85       	ldd	r30, Y+9	; 0x09
     b36:	fa 85       	ldd	r31, Y+10	; 0x0a
     b38:	10 82       	st	Z, r1
    }
    cmd->status = STATUS_CLEARED; 
     b3a:	e9 85       	ldd	r30, Y+9	; 0x09
     b3c:	fa 85       	ldd	r31, Y+10	; 0x0a
     b3e:	12 86       	std	Z+10, r1	; 0x0a
     b40:	0c 94 a2 0e 	jmp	0x1d44	; 0x1d44 <__stack+0xc45>
  }
  else
  {
    mob_handle = can_get_mob_free();
     b44:	0e 94 3f 02 	call	0x47e	; 0x47e <can_get_mob_free>
     b48:	8c 83       	std	Y+4, r24	; 0x04
    if (mob_handle!= NO_MOB)
     b4a:	8c 81       	ldd	r24, Y+4	; 0x04
     b4c:	8f 3f       	cpi	r24, 0xFF	; 255
     b4e:	11 f4       	brne	.+4      	; 0xb54 <can_cmd+0x74>
     b50:	0c 94 9b 0e 	jmp	0x1d36	; 0x1d36 <__stack+0xc37>
    {
      cmd->status = MOB_PENDING; 
     b54:	e9 85       	ldd	r30, Y+9	; 0x09
     b56:	fa 85       	ldd	r31, Y+10	; 0x0a
     b58:	80 e6       	ldi	r24, 0x60	; 96
     b5a:	82 87       	std	Z+10, r24	; 0x0a
      cmd->handle = mob_handle;
     b5c:	e9 85       	ldd	r30, Y+9	; 0x09
     b5e:	fa 85       	ldd	r31, Y+10	; 0x0a
     b60:	8c 81       	ldd	r24, Y+4	; 0x04
     b62:	80 83       	st	Z, r24
      Can_set_mob(mob_handle);
     b64:	ed ee       	ldi	r30, 0xED	; 237
     b66:	f0 e0       	ldi	r31, 0x00	; 0
     b68:	8c 81       	ldd	r24, Y+4	; 0x04
     b6a:	82 95       	swap	r24
     b6c:	80 7f       	andi	r24, 0xF0	; 240
     b6e:	80 83       	st	Z, r24
      Can_clear_mob();
     b70:	8e ee       	ldi	r24, 0xEE	; 238
     b72:	90 e0       	ldi	r25, 0x00	; 0
     b74:	9a 83       	std	Y+2, r25	; 0x02
     b76:	89 83       	std	Y+1, r24	; 0x01
     b78:	08 c0       	rjmp	.+16     	; 0xb8a <can_cmd+0xaa>
     b7a:	e9 81       	ldd	r30, Y+1	; 0x01
     b7c:	fa 81       	ldd	r31, Y+2	; 0x02
     b7e:	10 82       	st	Z, r1
     b80:	89 81       	ldd	r24, Y+1	; 0x01
     b82:	9a 81       	ldd	r25, Y+2	; 0x02
     b84:	01 96       	adiw	r24, 0x01	; 1
     b86:	9a 83       	std	Y+2, r25	; 0x02
     b88:	89 83       	std	Y+1, r24	; 0x01
     b8a:	89 81       	ldd	r24, Y+1	; 0x01
     b8c:	9a 81       	ldd	r25, Y+2	; 0x02
     b8e:	88 3f       	cpi	r24, 0xF8	; 248
     b90:	91 05       	cpc	r25, r1
     b92:	98 f3       	brcs	.-26     	; 0xb7a <can_cmd+0x9a>
          
      switch (cmd->cmd)
     b94:	e9 85       	ldd	r30, Y+9	; 0x09
     b96:	fa 85       	ldd	r31, Y+10	; 0x0a
     b98:	81 81       	ldd	r24, Z+1	; 0x01
     b9a:	92 81       	ldd	r25, Z+2	; 0x02
     b9c:	9d 87       	std	Y+13, r25	; 0x0d
     b9e:	8c 87       	std	Y+12, r24	; 0x0c
     ba0:	8c 85       	ldd	r24, Y+12	; 0x0c
     ba2:	9d 85       	ldd	r25, Y+13	; 0x0d
     ba4:	86 30       	cpi	r24, 0x06	; 6
     ba6:	91 05       	cpc	r25, r1
     ba8:	09 f4       	brne	.+2      	; 0xbac <can_cmd+0xcc>
     baa:	73 c3       	rjmp	.+1766   	; 0x1292 <__stack+0x193>
     bac:	8c 85       	ldd	r24, Y+12	; 0x0c
     bae:	9d 85       	ldd	r25, Y+13	; 0x0d
     bb0:	87 30       	cpi	r24, 0x07	; 7
     bb2:	91 05       	cpc	r25, r1
     bb4:	30 f5       	brcc	.+76     	; 0xc02 <can_cmd+0x122>
     bb6:	8c 85       	ldd	r24, Y+12	; 0x0c
     bb8:	9d 85       	ldd	r25, Y+13	; 0x0d
     bba:	83 30       	cpi	r24, 0x03	; 3
     bbc:	91 05       	cpc	r25, r1
     bbe:	09 f4       	brne	.+2      	; 0xbc2 <can_cmd+0xe2>
     bc0:	d3 c1       	rjmp	.+934    	; 0xf68 <can_cmd+0x488>
     bc2:	8c 85       	ldd	r24, Y+12	; 0x0c
     bc4:	9d 85       	ldd	r25, Y+13	; 0x0d
     bc6:	84 30       	cpi	r24, 0x04	; 4
     bc8:	91 05       	cpc	r25, r1
     bca:	68 f4       	brcc	.+26     	; 0xbe6 <can_cmd+0x106>
     bcc:	8c 85       	ldd	r24, Y+12	; 0x0c
     bce:	9d 85       	ldd	r25, Y+13	; 0x0d
     bd0:	81 30       	cpi	r24, 0x01	; 1
     bd2:	91 05       	cpc	r25, r1
     bd4:	e9 f1       	breq	.+122    	; 0xc50 <can_cmd+0x170>
     bd6:	8c 85       	ldd	r24, Y+12	; 0x0c
     bd8:	9d 85       	ldd	r25, Y+13	; 0x0d
     bda:	82 30       	cpi	r24, 0x02	; 2
     bdc:	91 05       	cpc	r25, r1
     bde:	09 f4       	brne	.+2      	; 0xbe2 <can_cmd+0x102>
     be0:	02 c1       	rjmp	.+516    	; 0xde6 <can_cmd+0x306>
     be2:	0c 94 97 0e 	jmp	0x1d2e	; 0x1d2e <__stack+0xc2f>
     be6:	8c 85       	ldd	r24, Y+12	; 0x0c
     be8:	9d 85       	ldd	r25, Y+13	; 0x0d
     bea:	84 30       	cpi	r24, 0x04	; 4
     bec:	91 05       	cpc	r25, r1
     bee:	09 f4       	brne	.+2      	; 0xbf2 <can_cmd+0x112>
     bf0:	64 c2       	rjmp	.+1224   	; 0x10ba <can_cmd+0x5da>
     bf2:	8c 85       	ldd	r24, Y+12	; 0x0c
     bf4:	9d 85       	ldd	r25, Y+13	; 0x0d
     bf6:	85 30       	cpi	r24, 0x05	; 5
     bf8:	91 05       	cpc	r25, r1
     bfa:	09 f4       	brne	.+2      	; 0xbfe <can_cmd+0x11e>
     bfc:	cf c2       	rjmp	.+1438   	; 0x119c <__stack+0x9d>
     bfe:	0c 94 97 0e 	jmp	0x1d2e	; 0x1d2e <__stack+0xc2f>
     c02:	8c 85       	ldd	r24, Y+12	; 0x0c
     c04:	9d 85       	ldd	r25, Y+13	; 0x0d
     c06:	89 30       	cpi	r24, 0x09	; 9
     c08:	91 05       	cpc	r25, r1
     c0a:	09 f4       	brne	.+2      	; 0xc0e <can_cmd+0x12e>
     c0c:	c3 c5       	rjmp	.+2950   	; 0x1794 <__stack+0x695>
     c0e:	8c 85       	ldd	r24, Y+12	; 0x0c
     c10:	9d 85       	ldd	r25, Y+13	; 0x0d
     c12:	8a 30       	cpi	r24, 0x0A	; 10
     c14:	91 05       	cpc	r25, r1
     c16:	70 f4       	brcc	.+28     	; 0xc34 <can_cmd+0x154>
     c18:	8c 85       	ldd	r24, Y+12	; 0x0c
     c1a:	9d 85       	ldd	r25, Y+13	; 0x0d
     c1c:	87 30       	cpi	r24, 0x07	; 7
     c1e:	91 05       	cpc	r25, r1
     c20:	09 f4       	brne	.+2      	; 0xc24 <can_cmd+0x144>
     c22:	ba c3       	rjmp	.+1908   	; 0x1398 <__stack+0x299>
     c24:	8c 85       	ldd	r24, Y+12	; 0x0c
     c26:	9d 85       	ldd	r25, Y+13	; 0x0d
     c28:	88 30       	cpi	r24, 0x08	; 8
     c2a:	91 05       	cpc	r25, r1
     c2c:	09 f4       	brne	.+2      	; 0xc30 <can_cmd+0x150>
     c2e:	ae c4       	rjmp	.+2396   	; 0x158c <__stack+0x48d>
     c30:	0c 94 97 0e 	jmp	0x1d2e	; 0x1d2e <__stack+0xc2f>
     c34:	8c 85       	ldd	r24, Y+12	; 0x0c
     c36:	9d 85       	ldd	r25, Y+13	; 0x0d
     c38:	8a 30       	cpi	r24, 0x0A	; 10
     c3a:	91 05       	cpc	r25, r1
     c3c:	09 f4       	brne	.+2      	; 0xc40 <can_cmd+0x160>
     c3e:	b6 c6       	rjmp	.+3436   	; 0x19ac <__stack+0x8ad>
     c40:	8c 85       	ldd	r24, Y+12	; 0x0c
     c42:	9d 85       	ldd	r25, Y+13	; 0x0d
     c44:	8b 30       	cpi	r24, 0x0B	; 11
     c46:	91 05       	cpc	r25, r1
     c48:	09 f4       	brne	.+2      	; 0xc4c <can_cmd+0x16c>
     c4a:	4c c7       	rjmp	.+3736   	; 0x1ae4 <__stack+0x9e5>
     c4c:	0c 94 97 0e 	jmp	0x1d2e	; 0x1d2e <__stack+0xc2f>
      {
        //------------      
        case CMD_TX:    
          if (cmd->ctrl.ide){ Can_set_ext_id(cmd->id.ext);}
     c50:	e9 85       	ldd	r30, Y+9	; 0x09
     c52:	fa 85       	ldd	r31, Y+10	; 0x0a
     c54:	84 85       	ldd	r24, Z+12	; 0x0c
     c56:	88 23       	and	r24, r24
     c58:	09 f4       	brne	.+2      	; 0xc5c <can_cmd+0x17c>
     c5a:	57 c0       	rjmp	.+174    	; 0xd0a <can_cmd+0x22a>
     c5c:	a3 ef       	ldi	r26, 0xF3	; 243
     c5e:	b0 e0       	ldi	r27, 0x00	; 0
     c60:	89 85       	ldd	r24, Y+9	; 0x09
     c62:	9a 85       	ldd	r25, Y+10	; 0x0a
     c64:	03 96       	adiw	r24, 0x03	; 3
     c66:	fc 01       	movw	r30, r24
     c68:	33 96       	adiw	r30, 0x03	; 3
     c6a:	80 81       	ld	r24, Z
     c6c:	28 2f       	mov	r18, r24
     c6e:	22 0f       	add	r18, r18
     c70:	22 0f       	add	r18, r18
     c72:	22 0f       	add	r18, r18
     c74:	89 85       	ldd	r24, Y+9	; 0x09
     c76:	9a 85       	ldd	r25, Y+10	; 0x0a
     c78:	03 96       	adiw	r24, 0x03	; 3
     c7a:	fc 01       	movw	r30, r24
     c7c:	32 96       	adiw	r30, 0x02	; 2
     c7e:	80 81       	ld	r24, Z
     c80:	82 95       	swap	r24
     c82:	86 95       	lsr	r24
     c84:	87 70       	andi	r24, 0x07	; 7
     c86:	82 0f       	add	r24, r18
     c88:	8c 93       	st	X, r24
     c8a:	a2 ef       	ldi	r26, 0xF2	; 242
     c8c:	b0 e0       	ldi	r27, 0x00	; 0
     c8e:	89 85       	ldd	r24, Y+9	; 0x09
     c90:	9a 85       	ldd	r25, Y+10	; 0x0a
     c92:	03 96       	adiw	r24, 0x03	; 3
     c94:	fc 01       	movw	r30, r24
     c96:	32 96       	adiw	r30, 0x02	; 2
     c98:	80 81       	ld	r24, Z
     c9a:	28 2f       	mov	r18, r24
     c9c:	22 0f       	add	r18, r18
     c9e:	22 0f       	add	r18, r18
     ca0:	22 0f       	add	r18, r18
     ca2:	89 85       	ldd	r24, Y+9	; 0x09
     ca4:	9a 85       	ldd	r25, Y+10	; 0x0a
     ca6:	03 96       	adiw	r24, 0x03	; 3
     ca8:	fc 01       	movw	r30, r24
     caa:	31 96       	adiw	r30, 0x01	; 1
     cac:	80 81       	ld	r24, Z
     cae:	82 95       	swap	r24
     cb0:	86 95       	lsr	r24
     cb2:	87 70       	andi	r24, 0x07	; 7
     cb4:	82 0f       	add	r24, r18
     cb6:	8c 93       	st	X, r24
     cb8:	a1 ef       	ldi	r26, 0xF1	; 241
     cba:	b0 e0       	ldi	r27, 0x00	; 0
     cbc:	89 85       	ldd	r24, Y+9	; 0x09
     cbe:	9a 85       	ldd	r25, Y+10	; 0x0a
     cc0:	03 96       	adiw	r24, 0x03	; 3
     cc2:	fc 01       	movw	r30, r24
     cc4:	31 96       	adiw	r30, 0x01	; 1
     cc6:	80 81       	ld	r24, Z
     cc8:	28 2f       	mov	r18, r24
     cca:	22 0f       	add	r18, r18
     ccc:	22 0f       	add	r18, r18
     cce:	22 0f       	add	r18, r18
     cd0:	89 85       	ldd	r24, Y+9	; 0x09
     cd2:	9a 85       	ldd	r25, Y+10	; 0x0a
     cd4:	03 96       	adiw	r24, 0x03	; 3
     cd6:	fc 01       	movw	r30, r24
     cd8:	80 81       	ld	r24, Z
     cda:	82 95       	swap	r24
     cdc:	86 95       	lsr	r24
     cde:	87 70       	andi	r24, 0x07	; 7
     ce0:	82 0f       	add	r24, r18
     ce2:	8c 93       	st	X, r24
     ce4:	a0 ef       	ldi	r26, 0xF0	; 240
     ce6:	b0 e0       	ldi	r27, 0x00	; 0
     ce8:	89 85       	ldd	r24, Y+9	; 0x09
     cea:	9a 85       	ldd	r25, Y+10	; 0x0a
     cec:	03 96       	adiw	r24, 0x03	; 3
     cee:	fc 01       	movw	r30, r24
     cf0:	80 81       	ld	r24, Z
     cf2:	88 0f       	add	r24, r24
     cf4:	88 0f       	add	r24, r24
     cf6:	88 0f       	add	r24, r24
     cf8:	8c 93       	st	X, r24
     cfa:	af ee       	ldi	r26, 0xEF	; 239
     cfc:	b0 e0       	ldi	r27, 0x00	; 0
     cfe:	ef ee       	ldi	r30, 0xEF	; 239
     d00:	f0 e0       	ldi	r31, 0x00	; 0
     d02:	80 81       	ld	r24, Z
     d04:	80 61       	ori	r24, 0x10	; 16
     d06:	8c 93       	st	X, r24
     d08:	28 c0       	rjmp	.+80     	; 0xd5a <can_cmd+0x27a>
          else              { Can_set_std_id(cmd->id.std);}
     d0a:	a3 ef       	ldi	r26, 0xF3	; 243
     d0c:	b0 e0       	ldi	r27, 0x00	; 0
     d0e:	89 85       	ldd	r24, Y+9	; 0x09
     d10:	9a 85       	ldd	r25, Y+10	; 0x0a
     d12:	03 96       	adiw	r24, 0x03	; 3
     d14:	fc 01       	movw	r30, r24
     d16:	31 96       	adiw	r30, 0x01	; 1
     d18:	80 81       	ld	r24, Z
     d1a:	28 2f       	mov	r18, r24
     d1c:	22 95       	swap	r18
     d1e:	22 0f       	add	r18, r18
     d20:	20 7e       	andi	r18, 0xE0	; 224
     d22:	89 85       	ldd	r24, Y+9	; 0x09
     d24:	9a 85       	ldd	r25, Y+10	; 0x0a
     d26:	03 96       	adiw	r24, 0x03	; 3
     d28:	fc 01       	movw	r30, r24
     d2a:	80 81       	ld	r24, Z
     d2c:	86 95       	lsr	r24
     d2e:	86 95       	lsr	r24
     d30:	86 95       	lsr	r24
     d32:	82 0f       	add	r24, r18
     d34:	8c 93       	st	X, r24
     d36:	a2 ef       	ldi	r26, 0xF2	; 242
     d38:	b0 e0       	ldi	r27, 0x00	; 0
     d3a:	89 85       	ldd	r24, Y+9	; 0x09
     d3c:	9a 85       	ldd	r25, Y+10	; 0x0a
     d3e:	03 96       	adiw	r24, 0x03	; 3
     d40:	fc 01       	movw	r30, r24
     d42:	80 81       	ld	r24, Z
     d44:	82 95       	swap	r24
     d46:	88 0f       	add	r24, r24
     d48:	80 7e       	andi	r24, 0xE0	; 224
     d4a:	8c 93       	st	X, r24
     d4c:	af ee       	ldi	r26, 0xEF	; 239
     d4e:	b0 e0       	ldi	r27, 0x00	; 0
     d50:	ef ee       	ldi	r30, 0xEF	; 239
     d52:	f0 e0       	ldi	r31, 0x00	; 0
     d54:	80 81       	ld	r24, Z
     d56:	8f 7e       	andi	r24, 0xEF	; 239
     d58:	8c 93       	st	X, r24
          for (cpt=0;cpt<cmd->dlc;cpt++) CANMSG = *(cmd->pt_data + cpt);
     d5a:	1b 82       	std	Y+3, r1	; 0x03
     d5c:	11 c0       	rjmp	.+34     	; 0xd80 <can_cmd+0x2a0>
     d5e:	aa ef       	ldi	r26, 0xFA	; 250
     d60:	b0 e0       	ldi	r27, 0x00	; 0
     d62:	e9 85       	ldd	r30, Y+9	; 0x09
     d64:	fa 85       	ldd	r31, Y+10	; 0x0a
     d66:	20 85       	ldd	r18, Z+8	; 0x08
     d68:	31 85       	ldd	r19, Z+9	; 0x09
     d6a:	8b 81       	ldd	r24, Y+3	; 0x03
     d6c:	88 2f       	mov	r24, r24
     d6e:	90 e0       	ldi	r25, 0x00	; 0
     d70:	f9 01       	movw	r30, r18
     d72:	e8 0f       	add	r30, r24
     d74:	f9 1f       	adc	r31, r25
     d76:	80 81       	ld	r24, Z
     d78:	8c 93       	st	X, r24
     d7a:	8b 81       	ldd	r24, Y+3	; 0x03
     d7c:	8f 5f       	subi	r24, 0xFF	; 255
     d7e:	8b 83       	std	Y+3, r24	; 0x03
     d80:	e9 85       	ldd	r30, Y+9	; 0x09
     d82:	fa 85       	ldd	r31, Y+10	; 0x0a
     d84:	97 81       	ldd	r25, Z+7	; 0x07
     d86:	8b 81       	ldd	r24, Y+3	; 0x03
     d88:	89 17       	cp	r24, r25
     d8a:	48 f3       	brcs	.-46     	; 0xd5e <can_cmd+0x27e>
          if (cmd->ctrl.rtr) Can_set_rtr(); 
     d8c:	e9 85       	ldd	r30, Y+9	; 0x09
     d8e:	fa 85       	ldd	r31, Y+10	; 0x0a
     d90:	83 85       	ldd	r24, Z+11	; 0x0b
     d92:	88 23       	and	r24, r24
     d94:	41 f0       	breq	.+16     	; 0xda6 <can_cmd+0x2c6>
     d96:	a0 ef       	ldi	r26, 0xF0	; 240
     d98:	b0 e0       	ldi	r27, 0x00	; 0
     d9a:	e0 ef       	ldi	r30, 0xF0	; 240
     d9c:	f0 e0       	ldi	r31, 0x00	; 0
     d9e:	80 81       	ld	r24, Z
     da0:	84 60       	ori	r24, 0x04	; 4
     da2:	8c 93       	st	X, r24
     da4:	07 c0       	rjmp	.+14     	; 0xdb4 <can_cmd+0x2d4>
            else Can_clear_rtr();    
     da6:	a0 ef       	ldi	r26, 0xF0	; 240
     da8:	b0 e0       	ldi	r27, 0x00	; 0
     daa:	e0 ef       	ldi	r30, 0xF0	; 240
     dac:	f0 e0       	ldi	r31, 0x00	; 0
     dae:	80 81       	ld	r24, Z
     db0:	8b 7f       	andi	r24, 0xFB	; 251
     db2:	8c 93       	st	X, r24
          Can_set_dlc(cmd->dlc);
     db4:	af ee       	ldi	r26, 0xEF	; 239
     db6:	b0 e0       	ldi	r27, 0x00	; 0
     db8:	ef ee       	ldi	r30, 0xEF	; 239
     dba:	f0 e0       	ldi	r31, 0x00	; 0
     dbc:	90 81       	ld	r25, Z
     dbe:	e9 85       	ldd	r30, Y+9	; 0x09
     dc0:	fa 85       	ldd	r31, Y+10	; 0x0a
     dc2:	87 81       	ldd	r24, Z+7	; 0x07
     dc4:	89 2b       	or	r24, r25
     dc6:	8c 93       	st	X, r24
          Can_config_tx();
     dc8:	af ee       	ldi	r26, 0xEF	; 239
     dca:	b0 e0       	ldi	r27, 0x00	; 0
     dcc:	ef ee       	ldi	r30, 0xEF	; 239
     dce:	f0 e0       	ldi	r31, 0x00	; 0
     dd0:	80 81       	ld	r24, Z
     dd2:	8f 73       	andi	r24, 0x3F	; 63
     dd4:	8c 93       	st	X, r24
     dd6:	af ee       	ldi	r26, 0xEF	; 239
     dd8:	b0 e0       	ldi	r27, 0x00	; 0
     dda:	ef ee       	ldi	r30, 0xEF	; 239
     ddc:	f0 e0       	ldi	r31, 0x00	; 0
     dde:	80 81       	ld	r24, Z
     de0:	80 64       	ori	r24, 0x40	; 64
     de2:	8c 93       	st	X, r24
     de4:	af c7       	rjmp	.+3934   	; 0x1d44 <__stack+0xc45>
          break;
        //------------      
        case CMD_TX_DATA:    
          if (cmd->ctrl.ide){ Can_set_ext_id(cmd->id.ext);}
     de6:	e9 85       	ldd	r30, Y+9	; 0x09
     de8:	fa 85       	ldd	r31, Y+10	; 0x0a
     dea:	84 85       	ldd	r24, Z+12	; 0x0c
     dec:	88 23       	and	r24, r24
     dee:	09 f4       	brne	.+2      	; 0xdf2 <can_cmd+0x312>
     df0:	57 c0       	rjmp	.+174    	; 0xea0 <can_cmd+0x3c0>
     df2:	a3 ef       	ldi	r26, 0xF3	; 243
     df4:	b0 e0       	ldi	r27, 0x00	; 0
     df6:	89 85       	ldd	r24, Y+9	; 0x09
     df8:	9a 85       	ldd	r25, Y+10	; 0x0a
     dfa:	03 96       	adiw	r24, 0x03	; 3
     dfc:	fc 01       	movw	r30, r24
     dfe:	33 96       	adiw	r30, 0x03	; 3
     e00:	80 81       	ld	r24, Z
     e02:	28 2f       	mov	r18, r24
     e04:	22 0f       	add	r18, r18
     e06:	22 0f       	add	r18, r18
     e08:	22 0f       	add	r18, r18
     e0a:	89 85       	ldd	r24, Y+9	; 0x09
     e0c:	9a 85       	ldd	r25, Y+10	; 0x0a
     e0e:	03 96       	adiw	r24, 0x03	; 3
     e10:	fc 01       	movw	r30, r24
     e12:	32 96       	adiw	r30, 0x02	; 2
     e14:	80 81       	ld	r24, Z
     e16:	82 95       	swap	r24
     e18:	86 95       	lsr	r24
     e1a:	87 70       	andi	r24, 0x07	; 7
     e1c:	82 0f       	add	r24, r18
     e1e:	8c 93       	st	X, r24
     e20:	a2 ef       	ldi	r26, 0xF2	; 242
     e22:	b0 e0       	ldi	r27, 0x00	; 0
     e24:	89 85       	ldd	r24, Y+9	; 0x09
     e26:	9a 85       	ldd	r25, Y+10	; 0x0a
     e28:	03 96       	adiw	r24, 0x03	; 3
     e2a:	fc 01       	movw	r30, r24
     e2c:	32 96       	adiw	r30, 0x02	; 2
     e2e:	80 81       	ld	r24, Z
     e30:	28 2f       	mov	r18, r24
     e32:	22 0f       	add	r18, r18
     e34:	22 0f       	add	r18, r18
     e36:	22 0f       	add	r18, r18
     e38:	89 85       	ldd	r24, Y+9	; 0x09
     e3a:	9a 85       	ldd	r25, Y+10	; 0x0a
     e3c:	03 96       	adiw	r24, 0x03	; 3
     e3e:	fc 01       	movw	r30, r24
     e40:	31 96       	adiw	r30, 0x01	; 1
     e42:	80 81       	ld	r24, Z
     e44:	82 95       	swap	r24
     e46:	86 95       	lsr	r24
     e48:	87 70       	andi	r24, 0x07	; 7
     e4a:	82 0f       	add	r24, r18
     e4c:	8c 93       	st	X, r24
     e4e:	a1 ef       	ldi	r26, 0xF1	; 241
     e50:	b0 e0       	ldi	r27, 0x00	; 0
     e52:	89 85       	ldd	r24, Y+9	; 0x09
     e54:	9a 85       	ldd	r25, Y+10	; 0x0a
     e56:	03 96       	adiw	r24, 0x03	; 3
     e58:	fc 01       	movw	r30, r24
     e5a:	31 96       	adiw	r30, 0x01	; 1
     e5c:	80 81       	ld	r24, Z
     e5e:	28 2f       	mov	r18, r24
     e60:	22 0f       	add	r18, r18
     e62:	22 0f       	add	r18, r18
     e64:	22 0f       	add	r18, r18
     e66:	89 85       	ldd	r24, Y+9	; 0x09
     e68:	9a 85       	ldd	r25, Y+10	; 0x0a
     e6a:	03 96       	adiw	r24, 0x03	; 3
     e6c:	fc 01       	movw	r30, r24
     e6e:	80 81       	ld	r24, Z
     e70:	82 95       	swap	r24
     e72:	86 95       	lsr	r24
     e74:	87 70       	andi	r24, 0x07	; 7
     e76:	82 0f       	add	r24, r18
     e78:	8c 93       	st	X, r24
     e7a:	a0 ef       	ldi	r26, 0xF0	; 240
     e7c:	b0 e0       	ldi	r27, 0x00	; 0
     e7e:	89 85       	ldd	r24, Y+9	; 0x09
     e80:	9a 85       	ldd	r25, Y+10	; 0x0a
     e82:	03 96       	adiw	r24, 0x03	; 3
     e84:	fc 01       	movw	r30, r24
     e86:	80 81       	ld	r24, Z
     e88:	88 0f       	add	r24, r24
     e8a:	88 0f       	add	r24, r24
     e8c:	88 0f       	add	r24, r24
     e8e:	8c 93       	st	X, r24
     e90:	af ee       	ldi	r26, 0xEF	; 239
     e92:	b0 e0       	ldi	r27, 0x00	; 0
     e94:	ef ee       	ldi	r30, 0xEF	; 239
     e96:	f0 e0       	ldi	r31, 0x00	; 0
     e98:	80 81       	ld	r24, Z
     e9a:	80 61       	ori	r24, 0x10	; 16
     e9c:	8c 93       	st	X, r24
     e9e:	28 c0       	rjmp	.+80     	; 0xef0 <can_cmd+0x410>
          else              { Can_set_std_id(cmd->id.std);}
     ea0:	a3 ef       	ldi	r26, 0xF3	; 243
     ea2:	b0 e0       	ldi	r27, 0x00	; 0
     ea4:	89 85       	ldd	r24, Y+9	; 0x09
     ea6:	9a 85       	ldd	r25, Y+10	; 0x0a
     ea8:	03 96       	adiw	r24, 0x03	; 3
     eaa:	fc 01       	movw	r30, r24
     eac:	31 96       	adiw	r30, 0x01	; 1
     eae:	80 81       	ld	r24, Z
     eb0:	28 2f       	mov	r18, r24
     eb2:	22 95       	swap	r18
     eb4:	22 0f       	add	r18, r18
     eb6:	20 7e       	andi	r18, 0xE0	; 224
     eb8:	89 85       	ldd	r24, Y+9	; 0x09
     eba:	9a 85       	ldd	r25, Y+10	; 0x0a
     ebc:	03 96       	adiw	r24, 0x03	; 3
     ebe:	fc 01       	movw	r30, r24
     ec0:	80 81       	ld	r24, Z
     ec2:	86 95       	lsr	r24
     ec4:	86 95       	lsr	r24
     ec6:	86 95       	lsr	r24
     ec8:	82 0f       	add	r24, r18
     eca:	8c 93       	st	X, r24
     ecc:	a2 ef       	ldi	r26, 0xF2	; 242
     ece:	b0 e0       	ldi	r27, 0x00	; 0
     ed0:	89 85       	ldd	r24, Y+9	; 0x09
     ed2:	9a 85       	ldd	r25, Y+10	; 0x0a
     ed4:	03 96       	adiw	r24, 0x03	; 3
     ed6:	fc 01       	movw	r30, r24
     ed8:	80 81       	ld	r24, Z
     eda:	82 95       	swap	r24
     edc:	88 0f       	add	r24, r24
     ede:	80 7e       	andi	r24, 0xE0	; 224
     ee0:	8c 93       	st	X, r24
     ee2:	af ee       	ldi	r26, 0xEF	; 239
     ee4:	b0 e0       	ldi	r27, 0x00	; 0
     ee6:	ef ee       	ldi	r30, 0xEF	; 239
     ee8:	f0 e0       	ldi	r31, 0x00	; 0
     eea:	80 81       	ld	r24, Z
     eec:	8f 7e       	andi	r24, 0xEF	; 239
     eee:	8c 93       	st	X, r24
          for (cpt=0;cpt<cmd->dlc;cpt++) CANMSG = *(cmd->pt_data + cpt);
     ef0:	1b 82       	std	Y+3, r1	; 0x03
     ef2:	11 c0       	rjmp	.+34     	; 0xf16 <can_cmd+0x436>
     ef4:	aa ef       	ldi	r26, 0xFA	; 250
     ef6:	b0 e0       	ldi	r27, 0x00	; 0
     ef8:	e9 85       	ldd	r30, Y+9	; 0x09
     efa:	fa 85       	ldd	r31, Y+10	; 0x0a
     efc:	20 85       	ldd	r18, Z+8	; 0x08
     efe:	31 85       	ldd	r19, Z+9	; 0x09
     f00:	8b 81       	ldd	r24, Y+3	; 0x03
     f02:	88 2f       	mov	r24, r24
     f04:	90 e0       	ldi	r25, 0x00	; 0
     f06:	f9 01       	movw	r30, r18
     f08:	e8 0f       	add	r30, r24
     f0a:	f9 1f       	adc	r31, r25
     f0c:	80 81       	ld	r24, Z
     f0e:	8c 93       	st	X, r24
     f10:	8b 81       	ldd	r24, Y+3	; 0x03
     f12:	8f 5f       	subi	r24, 0xFF	; 255
     f14:	8b 83       	std	Y+3, r24	; 0x03
     f16:	e9 85       	ldd	r30, Y+9	; 0x09
     f18:	fa 85       	ldd	r31, Y+10	; 0x0a
     f1a:	97 81       	ldd	r25, Z+7	; 0x07
     f1c:	8b 81       	ldd	r24, Y+3	; 0x03
     f1e:	89 17       	cp	r24, r25
     f20:	48 f3       	brcs	.-46     	; 0xef4 <can_cmd+0x414>
          cmd->ctrl.rtr=0; Can_clear_rtr();
     f22:	e9 85       	ldd	r30, Y+9	; 0x09
     f24:	fa 85       	ldd	r31, Y+10	; 0x0a
     f26:	13 86       	std	Z+11, r1	; 0x0b
     f28:	a0 ef       	ldi	r26, 0xF0	; 240
     f2a:	b0 e0       	ldi	r27, 0x00	; 0
     f2c:	e0 ef       	ldi	r30, 0xF0	; 240
     f2e:	f0 e0       	ldi	r31, 0x00	; 0
     f30:	80 81       	ld	r24, Z
     f32:	8b 7f       	andi	r24, 0xFB	; 251
     f34:	8c 93       	st	X, r24
          Can_set_dlc(cmd->dlc);
     f36:	af ee       	ldi	r26, 0xEF	; 239
     f38:	b0 e0       	ldi	r27, 0x00	; 0
     f3a:	ef ee       	ldi	r30, 0xEF	; 239
     f3c:	f0 e0       	ldi	r31, 0x00	; 0
     f3e:	90 81       	ld	r25, Z
     f40:	e9 85       	ldd	r30, Y+9	; 0x09
     f42:	fa 85       	ldd	r31, Y+10	; 0x0a
     f44:	87 81       	ldd	r24, Z+7	; 0x07
     f46:	89 2b       	or	r24, r25
     f48:	8c 93       	st	X, r24
          Can_config_tx();
     f4a:	af ee       	ldi	r26, 0xEF	; 239
     f4c:	b0 e0       	ldi	r27, 0x00	; 0
     f4e:	ef ee       	ldi	r30, 0xEF	; 239
     f50:	f0 e0       	ldi	r31, 0x00	; 0
     f52:	80 81       	ld	r24, Z
     f54:	8f 73       	andi	r24, 0x3F	; 63
     f56:	8c 93       	st	X, r24
     f58:	af ee       	ldi	r26, 0xEF	; 239
     f5a:	b0 e0       	ldi	r27, 0x00	; 0
     f5c:	ef ee       	ldi	r30, 0xEF	; 239
     f5e:	f0 e0       	ldi	r31, 0x00	; 0
     f60:	80 81       	ld	r24, Z
     f62:	80 64       	ori	r24, 0x40	; 64
     f64:	8c 93       	st	X, r24
     f66:	ee c6       	rjmp	.+3548   	; 0x1d44 <__stack+0xc45>
          break;
        //------------      
        case CMD_TX_REMOTE:       
          if (cmd->ctrl.ide){ Can_set_ext_id(cmd->id.ext);}
     f68:	e9 85       	ldd	r30, Y+9	; 0x09
     f6a:	fa 85       	ldd	r31, Y+10	; 0x0a
     f6c:	84 85       	ldd	r24, Z+12	; 0x0c
     f6e:	88 23       	and	r24, r24
     f70:	09 f4       	brne	.+2      	; 0xf74 <can_cmd+0x494>
     f72:	57 c0       	rjmp	.+174    	; 0x1022 <can_cmd+0x542>
     f74:	a3 ef       	ldi	r26, 0xF3	; 243
     f76:	b0 e0       	ldi	r27, 0x00	; 0
     f78:	89 85       	ldd	r24, Y+9	; 0x09
     f7a:	9a 85       	ldd	r25, Y+10	; 0x0a
     f7c:	03 96       	adiw	r24, 0x03	; 3
     f7e:	fc 01       	movw	r30, r24
     f80:	33 96       	adiw	r30, 0x03	; 3
     f82:	80 81       	ld	r24, Z
     f84:	28 2f       	mov	r18, r24
     f86:	22 0f       	add	r18, r18
     f88:	22 0f       	add	r18, r18
     f8a:	22 0f       	add	r18, r18
     f8c:	89 85       	ldd	r24, Y+9	; 0x09
     f8e:	9a 85       	ldd	r25, Y+10	; 0x0a
     f90:	03 96       	adiw	r24, 0x03	; 3
     f92:	fc 01       	movw	r30, r24
     f94:	32 96       	adiw	r30, 0x02	; 2
     f96:	80 81       	ld	r24, Z
     f98:	82 95       	swap	r24
     f9a:	86 95       	lsr	r24
     f9c:	87 70       	andi	r24, 0x07	; 7
     f9e:	82 0f       	add	r24, r18
     fa0:	8c 93       	st	X, r24
     fa2:	a2 ef       	ldi	r26, 0xF2	; 242
     fa4:	b0 e0       	ldi	r27, 0x00	; 0
     fa6:	89 85       	ldd	r24, Y+9	; 0x09
     fa8:	9a 85       	ldd	r25, Y+10	; 0x0a
     faa:	03 96       	adiw	r24, 0x03	; 3
     fac:	fc 01       	movw	r30, r24
     fae:	32 96       	adiw	r30, 0x02	; 2
     fb0:	80 81       	ld	r24, Z
     fb2:	28 2f       	mov	r18, r24
     fb4:	22 0f       	add	r18, r18
     fb6:	22 0f       	add	r18, r18
     fb8:	22 0f       	add	r18, r18
     fba:	89 85       	ldd	r24, Y+9	; 0x09
     fbc:	9a 85       	ldd	r25, Y+10	; 0x0a
     fbe:	03 96       	adiw	r24, 0x03	; 3
     fc0:	fc 01       	movw	r30, r24
     fc2:	31 96       	adiw	r30, 0x01	; 1
     fc4:	80 81       	ld	r24, Z
     fc6:	82 95       	swap	r24
     fc8:	86 95       	lsr	r24
     fca:	87 70       	andi	r24, 0x07	; 7
     fcc:	82 0f       	add	r24, r18
     fce:	8c 93       	st	X, r24
     fd0:	a1 ef       	ldi	r26, 0xF1	; 241
     fd2:	b0 e0       	ldi	r27, 0x00	; 0
     fd4:	89 85       	ldd	r24, Y+9	; 0x09
     fd6:	9a 85       	ldd	r25, Y+10	; 0x0a
     fd8:	03 96       	adiw	r24, 0x03	; 3
     fda:	fc 01       	movw	r30, r24
     fdc:	31 96       	adiw	r30, 0x01	; 1
     fde:	80 81       	ld	r24, Z
     fe0:	28 2f       	mov	r18, r24
     fe2:	22 0f       	add	r18, r18
     fe4:	22 0f       	add	r18, r18
     fe6:	22 0f       	add	r18, r18
     fe8:	89 85       	ldd	r24, Y+9	; 0x09
     fea:	9a 85       	ldd	r25, Y+10	; 0x0a
     fec:	03 96       	adiw	r24, 0x03	; 3
     fee:	fc 01       	movw	r30, r24
     ff0:	80 81       	ld	r24, Z
     ff2:	82 95       	swap	r24
     ff4:	86 95       	lsr	r24
     ff6:	87 70       	andi	r24, 0x07	; 7
     ff8:	82 0f       	add	r24, r18
     ffa:	8c 93       	st	X, r24
     ffc:	a0 ef       	ldi	r26, 0xF0	; 240
     ffe:	b0 e0       	ldi	r27, 0x00	; 0
    1000:	89 85       	ldd	r24, Y+9	; 0x09
    1002:	9a 85       	ldd	r25, Y+10	; 0x0a
    1004:	03 96       	adiw	r24, 0x03	; 3
    1006:	fc 01       	movw	r30, r24
    1008:	80 81       	ld	r24, Z
    100a:	88 0f       	add	r24, r24
    100c:	88 0f       	add	r24, r24
    100e:	88 0f       	add	r24, r24
    1010:	8c 93       	st	X, r24
    1012:	af ee       	ldi	r26, 0xEF	; 239
    1014:	b0 e0       	ldi	r27, 0x00	; 0
    1016:	ef ee       	ldi	r30, 0xEF	; 239
    1018:	f0 e0       	ldi	r31, 0x00	; 0
    101a:	80 81       	ld	r24, Z
    101c:	80 61       	ori	r24, 0x10	; 16
    101e:	8c 93       	st	X, r24
    1020:	28 c0       	rjmp	.+80     	; 0x1072 <can_cmd+0x592>
          else              { Can_set_std_id(cmd->id.std);}
    1022:	a3 ef       	ldi	r26, 0xF3	; 243
    1024:	b0 e0       	ldi	r27, 0x00	; 0
    1026:	89 85       	ldd	r24, Y+9	; 0x09
    1028:	9a 85       	ldd	r25, Y+10	; 0x0a
    102a:	03 96       	adiw	r24, 0x03	; 3
    102c:	fc 01       	movw	r30, r24
    102e:	31 96       	adiw	r30, 0x01	; 1
    1030:	80 81       	ld	r24, Z
    1032:	28 2f       	mov	r18, r24
    1034:	22 95       	swap	r18
    1036:	22 0f       	add	r18, r18
    1038:	20 7e       	andi	r18, 0xE0	; 224
    103a:	89 85       	ldd	r24, Y+9	; 0x09
    103c:	9a 85       	ldd	r25, Y+10	; 0x0a
    103e:	03 96       	adiw	r24, 0x03	; 3
    1040:	fc 01       	movw	r30, r24
    1042:	80 81       	ld	r24, Z
    1044:	86 95       	lsr	r24
    1046:	86 95       	lsr	r24
    1048:	86 95       	lsr	r24
    104a:	82 0f       	add	r24, r18
    104c:	8c 93       	st	X, r24
    104e:	a2 ef       	ldi	r26, 0xF2	; 242
    1050:	b0 e0       	ldi	r27, 0x00	; 0
    1052:	89 85       	ldd	r24, Y+9	; 0x09
    1054:	9a 85       	ldd	r25, Y+10	; 0x0a
    1056:	03 96       	adiw	r24, 0x03	; 3
    1058:	fc 01       	movw	r30, r24
    105a:	80 81       	ld	r24, Z
    105c:	82 95       	swap	r24
    105e:	88 0f       	add	r24, r24
    1060:	80 7e       	andi	r24, 0xE0	; 224
    1062:	8c 93       	st	X, r24
    1064:	af ee       	ldi	r26, 0xEF	; 239
    1066:	b0 e0       	ldi	r27, 0x00	; 0
    1068:	ef ee       	ldi	r30, 0xEF	; 239
    106a:	f0 e0       	ldi	r31, 0x00	; 0
    106c:	80 81       	ld	r24, Z
    106e:	8f 7e       	andi	r24, 0xEF	; 239
    1070:	8c 93       	st	X, r24
          cmd->ctrl.rtr=1; Can_set_rtr();
    1072:	e9 85       	ldd	r30, Y+9	; 0x09
    1074:	fa 85       	ldd	r31, Y+10	; 0x0a
    1076:	81 e0       	ldi	r24, 0x01	; 1
    1078:	83 87       	std	Z+11, r24	; 0x0b
    107a:	a0 ef       	ldi	r26, 0xF0	; 240
    107c:	b0 e0       	ldi	r27, 0x00	; 0
    107e:	e0 ef       	ldi	r30, 0xF0	; 240
    1080:	f0 e0       	ldi	r31, 0x00	; 0
    1082:	80 81       	ld	r24, Z
    1084:	84 60       	ori	r24, 0x04	; 4
    1086:	8c 93       	st	X, r24
          Can_set_dlc(cmd->dlc);
    1088:	af ee       	ldi	r26, 0xEF	; 239
    108a:	b0 e0       	ldi	r27, 0x00	; 0
    108c:	ef ee       	ldi	r30, 0xEF	; 239
    108e:	f0 e0       	ldi	r31, 0x00	; 0
    1090:	90 81       	ld	r25, Z
    1092:	e9 85       	ldd	r30, Y+9	; 0x09
    1094:	fa 85       	ldd	r31, Y+10	; 0x0a
    1096:	87 81       	ldd	r24, Z+7	; 0x07
    1098:	89 2b       	or	r24, r25
    109a:	8c 93       	st	X, r24
          Can_config_tx();
    109c:	af ee       	ldi	r26, 0xEF	; 239
    109e:	b0 e0       	ldi	r27, 0x00	; 0
    10a0:	ef ee       	ldi	r30, 0xEF	; 239
    10a2:	f0 e0       	ldi	r31, 0x00	; 0
    10a4:	80 81       	ld	r24, Z
    10a6:	8f 73       	andi	r24, 0x3F	; 63
    10a8:	8c 93       	st	X, r24
    10aa:	af ee       	ldi	r26, 0xEF	; 239
    10ac:	b0 e0       	ldi	r27, 0x00	; 0
    10ae:	ef ee       	ldi	r30, 0xEF	; 239
    10b0:	f0 e0       	ldi	r31, 0x00	; 0
    10b2:	80 81       	ld	r24, Z
    10b4:	80 64       	ori	r24, 0x40	; 64
    10b6:	8c 93       	st	X, r24
    10b8:	45 c6       	rjmp	.+3210   	; 0x1d44 <__stack+0xc45>
          break;
        //------------      
        case CMD_RX:
          u32_temp=0; Can_set_ext_msk(u32_temp);
    10ba:	1d 82       	std	Y+5, r1	; 0x05
    10bc:	1e 82       	std	Y+6, r1	; 0x06
    10be:	1f 82       	std	Y+7, r1	; 0x07
    10c0:	18 86       	std	Y+8, r1	; 0x08
    10c2:	a7 ef       	ldi	r26, 0xF7	; 247
    10c4:	b0 e0       	ldi	r27, 0x00	; 0
    10c6:	ce 01       	movw	r24, r28
    10c8:	05 96       	adiw	r24, 0x05	; 5
    10ca:	fc 01       	movw	r30, r24
    10cc:	33 96       	adiw	r30, 0x03	; 3
    10ce:	80 81       	ld	r24, Z
    10d0:	28 2f       	mov	r18, r24
    10d2:	22 0f       	add	r18, r18
    10d4:	22 0f       	add	r18, r18
    10d6:	22 0f       	add	r18, r18
    10d8:	ce 01       	movw	r24, r28
    10da:	05 96       	adiw	r24, 0x05	; 5
    10dc:	fc 01       	movw	r30, r24
    10de:	32 96       	adiw	r30, 0x02	; 2
    10e0:	80 81       	ld	r24, Z
    10e2:	82 95       	swap	r24
    10e4:	86 95       	lsr	r24
    10e6:	87 70       	andi	r24, 0x07	; 7
    10e8:	82 0f       	add	r24, r18
    10ea:	8c 93       	st	X, r24
    10ec:	a6 ef       	ldi	r26, 0xF6	; 246
    10ee:	b0 e0       	ldi	r27, 0x00	; 0
    10f0:	ce 01       	movw	r24, r28
    10f2:	05 96       	adiw	r24, 0x05	; 5
    10f4:	fc 01       	movw	r30, r24
    10f6:	32 96       	adiw	r30, 0x02	; 2
    10f8:	80 81       	ld	r24, Z
    10fa:	28 2f       	mov	r18, r24
    10fc:	22 0f       	add	r18, r18
    10fe:	22 0f       	add	r18, r18
    1100:	22 0f       	add	r18, r18
    1102:	ce 01       	movw	r24, r28
    1104:	05 96       	adiw	r24, 0x05	; 5
    1106:	fc 01       	movw	r30, r24
    1108:	31 96       	adiw	r30, 0x01	; 1
    110a:	80 81       	ld	r24, Z
    110c:	82 95       	swap	r24
    110e:	86 95       	lsr	r24
    1110:	87 70       	andi	r24, 0x07	; 7
    1112:	82 0f       	add	r24, r18
    1114:	8c 93       	st	X, r24
    1116:	a5 ef       	ldi	r26, 0xF5	; 245
    1118:	b0 e0       	ldi	r27, 0x00	; 0
    111a:	ce 01       	movw	r24, r28
    111c:	05 96       	adiw	r24, 0x05	; 5
    111e:	fc 01       	movw	r30, r24
    1120:	31 96       	adiw	r30, 0x01	; 1
    1122:	80 81       	ld	r24, Z
    1124:	98 2f       	mov	r25, r24
    1126:	99 0f       	add	r25, r25
    1128:	99 0f       	add	r25, r25
    112a:	99 0f       	add	r25, r25
    112c:	fe 01       	movw	r30, r28
    112e:	35 96       	adiw	r30, 0x05	; 5
    1130:	80 81       	ld	r24, Z
    1132:	82 95       	swap	r24
    1134:	86 95       	lsr	r24
    1136:	87 70       	andi	r24, 0x07	; 7
    1138:	89 0f       	add	r24, r25
    113a:	8c 93       	st	X, r24
    113c:	a4 ef       	ldi	r26, 0xF4	; 244
    113e:	b0 e0       	ldi	r27, 0x00	; 0
    1140:	fe 01       	movw	r30, r28
    1142:	35 96       	adiw	r30, 0x05	; 5
    1144:	80 81       	ld	r24, Z
    1146:	88 0f       	add	r24, r24
    1148:	88 0f       	add	r24, r24
    114a:	88 0f       	add	r24, r24
    114c:	8c 93       	st	X, r24
          Can_set_dlc(cmd->dlc);
    114e:	af ee       	ldi	r26, 0xEF	; 239
    1150:	b0 e0       	ldi	r27, 0x00	; 0
    1152:	ef ee       	ldi	r30, 0xEF	; 239
    1154:	f0 e0       	ldi	r31, 0x00	; 0
    1156:	90 81       	ld	r25, Z
    1158:	e9 85       	ldd	r30, Y+9	; 0x09
    115a:	fa 85       	ldd	r31, Y+10	; 0x0a
    115c:	87 81       	ldd	r24, Z+7	; 0x07
    115e:	89 2b       	or	r24, r25
    1160:	8c 93       	st	X, r24
          Can_clear_rtrmsk();
    1162:	a4 ef       	ldi	r26, 0xF4	; 244
    1164:	b0 e0       	ldi	r27, 0x00	; 0
    1166:	e4 ef       	ldi	r30, 0xF4	; 244
    1168:	f0 e0       	ldi	r31, 0x00	; 0
    116a:	80 81       	ld	r24, Z
    116c:	8b 7f       	andi	r24, 0xFB	; 251
    116e:	8c 93       	st	X, r24
          Can_clear_idemsk();
    1170:	a4 ef       	ldi	r26, 0xF4	; 244
    1172:	b0 e0       	ldi	r27, 0x00	; 0
    1174:	e4 ef       	ldi	r30, 0xF4	; 244
    1176:	f0 e0       	ldi	r31, 0x00	; 0
    1178:	80 81       	ld	r24, Z
    117a:	8e 7f       	andi	r24, 0xFE	; 254
    117c:	8c 93       	st	X, r24
          Can_config_rx();       
    117e:	af ee       	ldi	r26, 0xEF	; 239
    1180:	b0 e0       	ldi	r27, 0x00	; 0
    1182:	ef ee       	ldi	r30, 0xEF	; 239
    1184:	f0 e0       	ldi	r31, 0x00	; 0
    1186:	80 81       	ld	r24, Z
    1188:	8f 73       	andi	r24, 0x3F	; 63
    118a:	8c 93       	st	X, r24
    118c:	af ee       	ldi	r26, 0xEF	; 239
    118e:	b0 e0       	ldi	r27, 0x00	; 0
    1190:	ef ee       	ldi	r30, 0xEF	; 239
    1192:	f0 e0       	ldi	r31, 0x00	; 0
    1194:	80 81       	ld	r24, Z
    1196:	80 68       	ori	r24, 0x80	; 128
    1198:	8c 93       	st	X, r24
    119a:	d4 c5       	rjmp	.+2984   	; 0x1d44 <__stack+0xc45>
          break;
        //------------      
        case CMD_RX_DATA:
          u32_temp=0; Can_set_ext_msk(u32_temp);
    119c:	1d 82       	std	Y+5, r1	; 0x05
    119e:	1e 82       	std	Y+6, r1	; 0x06
    11a0:	1f 82       	std	Y+7, r1	; 0x07
    11a2:	18 86       	std	Y+8, r1	; 0x08
    11a4:	a7 ef       	ldi	r26, 0xF7	; 247
    11a6:	b0 e0       	ldi	r27, 0x00	; 0
    11a8:	ce 01       	movw	r24, r28
    11aa:	05 96       	adiw	r24, 0x05	; 5
    11ac:	fc 01       	movw	r30, r24
    11ae:	33 96       	adiw	r30, 0x03	; 3
    11b0:	80 81       	ld	r24, Z
    11b2:	28 2f       	mov	r18, r24
    11b4:	22 0f       	add	r18, r18
    11b6:	22 0f       	add	r18, r18
    11b8:	22 0f       	add	r18, r18
    11ba:	ce 01       	movw	r24, r28
    11bc:	05 96       	adiw	r24, 0x05	; 5
    11be:	fc 01       	movw	r30, r24
    11c0:	32 96       	adiw	r30, 0x02	; 2
    11c2:	80 81       	ld	r24, Z
    11c4:	82 95       	swap	r24
    11c6:	86 95       	lsr	r24
    11c8:	87 70       	andi	r24, 0x07	; 7
    11ca:	82 0f       	add	r24, r18
    11cc:	8c 93       	st	X, r24
    11ce:	a6 ef       	ldi	r26, 0xF6	; 246
    11d0:	b0 e0       	ldi	r27, 0x00	; 0
    11d2:	ce 01       	movw	r24, r28
    11d4:	05 96       	adiw	r24, 0x05	; 5
    11d6:	fc 01       	movw	r30, r24
    11d8:	32 96       	adiw	r30, 0x02	; 2
    11da:	80 81       	ld	r24, Z
    11dc:	28 2f       	mov	r18, r24
    11de:	22 0f       	add	r18, r18
    11e0:	22 0f       	add	r18, r18
    11e2:	22 0f       	add	r18, r18
    11e4:	ce 01       	movw	r24, r28
    11e6:	05 96       	adiw	r24, 0x05	; 5
    11e8:	fc 01       	movw	r30, r24
    11ea:	31 96       	adiw	r30, 0x01	; 1
    11ec:	80 81       	ld	r24, Z
    11ee:	82 95       	swap	r24
    11f0:	86 95       	lsr	r24
    11f2:	87 70       	andi	r24, 0x07	; 7
    11f4:	82 0f       	add	r24, r18
    11f6:	8c 93       	st	X, r24
    11f8:	a5 ef       	ldi	r26, 0xF5	; 245
    11fa:	b0 e0       	ldi	r27, 0x00	; 0
    11fc:	ce 01       	movw	r24, r28
    11fe:	05 96       	adiw	r24, 0x05	; 5
    1200:	fc 01       	movw	r30, r24
    1202:	31 96       	adiw	r30, 0x01	; 1
    1204:	80 81       	ld	r24, Z
    1206:	98 2f       	mov	r25, r24
    1208:	99 0f       	add	r25, r25
    120a:	99 0f       	add	r25, r25
    120c:	99 0f       	add	r25, r25
    120e:	fe 01       	movw	r30, r28
    1210:	35 96       	adiw	r30, 0x05	; 5
    1212:	80 81       	ld	r24, Z
    1214:	82 95       	swap	r24
    1216:	86 95       	lsr	r24
    1218:	87 70       	andi	r24, 0x07	; 7
    121a:	89 0f       	add	r24, r25
    121c:	8c 93       	st	X, r24
    121e:	a4 ef       	ldi	r26, 0xF4	; 244
    1220:	b0 e0       	ldi	r27, 0x00	; 0
    1222:	fe 01       	movw	r30, r28
    1224:	35 96       	adiw	r30, 0x05	; 5
    1226:	80 81       	ld	r24, Z
    1228:	88 0f       	add	r24, r24
    122a:	88 0f       	add	r24, r24
    122c:	88 0f       	add	r24, r24
    122e:	8c 93       	st	X, r24
          Can_set_dlc(cmd->dlc);
    1230:	af ee       	ldi	r26, 0xEF	; 239
    1232:	b0 e0       	ldi	r27, 0x00	; 0
    1234:	ef ee       	ldi	r30, 0xEF	; 239
    1236:	f0 e0       	ldi	r31, 0x00	; 0
    1238:	90 81       	ld	r25, Z
    123a:	e9 85       	ldd	r30, Y+9	; 0x09
    123c:	fa 85       	ldd	r31, Y+10	; 0x0a
    123e:	87 81       	ldd	r24, Z+7	; 0x07
    1240:	89 2b       	or	r24, r25
    1242:	8c 93       	st	X, r24
          cmd->ctrl.rtr=0; Can_set_rtrmsk(); Can_clear_rtr();
    1244:	e9 85       	ldd	r30, Y+9	; 0x09
    1246:	fa 85       	ldd	r31, Y+10	; 0x0a
    1248:	13 86       	std	Z+11, r1	; 0x0b
    124a:	a4 ef       	ldi	r26, 0xF4	; 244
    124c:	b0 e0       	ldi	r27, 0x00	; 0
    124e:	e4 ef       	ldi	r30, 0xF4	; 244
    1250:	f0 e0       	ldi	r31, 0x00	; 0
    1252:	80 81       	ld	r24, Z
    1254:	84 60       	ori	r24, 0x04	; 4
    1256:	8c 93       	st	X, r24
    1258:	a0 ef       	ldi	r26, 0xF0	; 240
    125a:	b0 e0       	ldi	r27, 0x00	; 0
    125c:	e0 ef       	ldi	r30, 0xF0	; 240
    125e:	f0 e0       	ldi	r31, 0x00	; 0
    1260:	80 81       	ld	r24, Z
    1262:	8b 7f       	andi	r24, 0xFB	; 251
    1264:	8c 93       	st	X, r24
          Can_clear_idemsk();
    1266:	a4 ef       	ldi	r26, 0xF4	; 244
    1268:	b0 e0       	ldi	r27, 0x00	; 0
    126a:	e4 ef       	ldi	r30, 0xF4	; 244
    126c:	f0 e0       	ldi	r31, 0x00	; 0
    126e:	80 81       	ld	r24, Z
    1270:	8e 7f       	andi	r24, 0xFE	; 254
    1272:	8c 93       	st	X, r24
          Can_config_rx();       
    1274:	af ee       	ldi	r26, 0xEF	; 239
    1276:	b0 e0       	ldi	r27, 0x00	; 0
    1278:	ef ee       	ldi	r30, 0xEF	; 239
    127a:	f0 e0       	ldi	r31, 0x00	; 0
    127c:	80 81       	ld	r24, Z
    127e:	8f 73       	andi	r24, 0x3F	; 63
    1280:	8c 93       	st	X, r24
    1282:	af ee       	ldi	r26, 0xEF	; 239
    1284:	b0 e0       	ldi	r27, 0x00	; 0
    1286:	ef ee       	ldi	r30, 0xEF	; 239
    1288:	f0 e0       	ldi	r31, 0x00	; 0
    128a:	80 81       	ld	r24, Z
    128c:	80 68       	ori	r24, 0x80	; 128
    128e:	8c 93       	st	X, r24
    1290:	59 c5       	rjmp	.+2738   	; 0x1d44 <__stack+0xc45>
          break;
        //------------      
        case CMD_RX_REMOTE:
          u32_temp=0; Can_set_ext_msk(u32_temp);
    1292:	1d 82       	std	Y+5, r1	; 0x05
    1294:	1e 82       	std	Y+6, r1	; 0x06
    1296:	1f 82       	std	Y+7, r1	; 0x07
    1298:	18 86       	std	Y+8, r1	; 0x08
    129a:	a7 ef       	ldi	r26, 0xF7	; 247
    129c:	b0 e0       	ldi	r27, 0x00	; 0
    129e:	ce 01       	movw	r24, r28
    12a0:	05 96       	adiw	r24, 0x05	; 5
    12a2:	fc 01       	movw	r30, r24
    12a4:	33 96       	adiw	r30, 0x03	; 3
    12a6:	80 81       	ld	r24, Z
    12a8:	28 2f       	mov	r18, r24
    12aa:	22 0f       	add	r18, r18
    12ac:	22 0f       	add	r18, r18
    12ae:	22 0f       	add	r18, r18
    12b0:	ce 01       	movw	r24, r28
    12b2:	05 96       	adiw	r24, 0x05	; 5
    12b4:	fc 01       	movw	r30, r24
    12b6:	32 96       	adiw	r30, 0x02	; 2
    12b8:	80 81       	ld	r24, Z
    12ba:	82 95       	swap	r24
    12bc:	86 95       	lsr	r24
    12be:	87 70       	andi	r24, 0x07	; 7
    12c0:	82 0f       	add	r24, r18
    12c2:	8c 93       	st	X, r24
    12c4:	a6 ef       	ldi	r26, 0xF6	; 246
    12c6:	b0 e0       	ldi	r27, 0x00	; 0
    12c8:	ce 01       	movw	r24, r28
    12ca:	05 96       	adiw	r24, 0x05	; 5
    12cc:	fc 01       	movw	r30, r24
    12ce:	32 96       	adiw	r30, 0x02	; 2
    12d0:	80 81       	ld	r24, Z
    12d2:	28 2f       	mov	r18, r24
    12d4:	22 0f       	add	r18, r18
    12d6:	22 0f       	add	r18, r18
    12d8:	22 0f       	add	r18, r18
    12da:	ce 01       	movw	r24, r28
    12dc:	05 96       	adiw	r24, 0x05	; 5
    12de:	fc 01       	movw	r30, r24
    12e0:	31 96       	adiw	r30, 0x01	; 1
    12e2:	80 81       	ld	r24, Z
    12e4:	82 95       	swap	r24
    12e6:	86 95       	lsr	r24
    12e8:	87 70       	andi	r24, 0x07	; 7
    12ea:	82 0f       	add	r24, r18
    12ec:	8c 93       	st	X, r24
    12ee:	a5 ef       	ldi	r26, 0xF5	; 245
    12f0:	b0 e0       	ldi	r27, 0x00	; 0
    12f2:	ce 01       	movw	r24, r28
    12f4:	05 96       	adiw	r24, 0x05	; 5
    12f6:	fc 01       	movw	r30, r24
    12f8:	31 96       	adiw	r30, 0x01	; 1
    12fa:	80 81       	ld	r24, Z
    12fc:	98 2f       	mov	r25, r24
    12fe:	99 0f       	add	r25, r25
    1300:	99 0f       	add	r25, r25
    1302:	99 0f       	add	r25, r25
    1304:	fe 01       	movw	r30, r28
    1306:	35 96       	adiw	r30, 0x05	; 5
    1308:	80 81       	ld	r24, Z
    130a:	82 95       	swap	r24
    130c:	86 95       	lsr	r24
    130e:	87 70       	andi	r24, 0x07	; 7
    1310:	89 0f       	add	r24, r25
    1312:	8c 93       	st	X, r24
    1314:	a4 ef       	ldi	r26, 0xF4	; 244
    1316:	b0 e0       	ldi	r27, 0x00	; 0
    1318:	fe 01       	movw	r30, r28
    131a:	35 96       	adiw	r30, 0x05	; 5
    131c:	80 81       	ld	r24, Z
    131e:	88 0f       	add	r24, r24
    1320:	88 0f       	add	r24, r24
    1322:	88 0f       	add	r24, r24
    1324:	8c 93       	st	X, r24
          Can_set_dlc(cmd->dlc);
    1326:	af ee       	ldi	r26, 0xEF	; 239
    1328:	b0 e0       	ldi	r27, 0x00	; 0
    132a:	ef ee       	ldi	r30, 0xEF	; 239
    132c:	f0 e0       	ldi	r31, 0x00	; 0
    132e:	90 81       	ld	r25, Z
    1330:	e9 85       	ldd	r30, Y+9	; 0x09
    1332:	fa 85       	ldd	r31, Y+10	; 0x0a
    1334:	87 81       	ldd	r24, Z+7	; 0x07
    1336:	89 2b       	or	r24, r25
    1338:	8c 93       	st	X, r24
          cmd->ctrl.rtr=1; Can_set_rtrmsk(); Can_set_rtr();
    133a:	e9 85       	ldd	r30, Y+9	; 0x09
    133c:	fa 85       	ldd	r31, Y+10	; 0x0a
    133e:	81 e0       	ldi	r24, 0x01	; 1
    1340:	83 87       	std	Z+11, r24	; 0x0b
    1342:	a4 ef       	ldi	r26, 0xF4	; 244
    1344:	b0 e0       	ldi	r27, 0x00	; 0
    1346:	e4 ef       	ldi	r30, 0xF4	; 244
    1348:	f0 e0       	ldi	r31, 0x00	; 0
    134a:	80 81       	ld	r24, Z
    134c:	84 60       	ori	r24, 0x04	; 4
    134e:	8c 93       	st	X, r24
    1350:	a0 ef       	ldi	r26, 0xF0	; 240
    1352:	b0 e0       	ldi	r27, 0x00	; 0
    1354:	e0 ef       	ldi	r30, 0xF0	; 240
    1356:	f0 e0       	ldi	r31, 0x00	; 0
    1358:	80 81       	ld	r24, Z
    135a:	84 60       	ori	r24, 0x04	; 4
    135c:	8c 93       	st	X, r24
          Can_clear_rplv();
    135e:	af ee       	ldi	r26, 0xEF	; 239
    1360:	b0 e0       	ldi	r27, 0x00	; 0
    1362:	ef ee       	ldi	r30, 0xEF	; 239
    1364:	f0 e0       	ldi	r31, 0x00	; 0
    1366:	80 81       	ld	r24, Z
    1368:	8f 7d       	andi	r24, 0xDF	; 223
    136a:	8c 93       	st	X, r24
          Can_clear_idemsk();
    136c:	a4 ef       	ldi	r26, 0xF4	; 244
    136e:	b0 e0       	ldi	r27, 0x00	; 0
    1370:	e4 ef       	ldi	r30, 0xF4	; 244
    1372:	f0 e0       	ldi	r31, 0x00	; 0
    1374:	80 81       	ld	r24, Z
    1376:	8e 7f       	andi	r24, 0xFE	; 254
    1378:	8c 93       	st	X, r24
          Can_config_rx();       
    137a:	af ee       	ldi	r26, 0xEF	; 239
    137c:	b0 e0       	ldi	r27, 0x00	; 0
    137e:	ef ee       	ldi	r30, 0xEF	; 239
    1380:	f0 e0       	ldi	r31, 0x00	; 0
    1382:	80 81       	ld	r24, Z
    1384:	8f 73       	andi	r24, 0x3F	; 63
    1386:	8c 93       	st	X, r24
    1388:	af ee       	ldi	r26, 0xEF	; 239
    138a:	b0 e0       	ldi	r27, 0x00	; 0
    138c:	ef ee       	ldi	r30, 0xEF	; 239
    138e:	f0 e0       	ldi	r31, 0x00	; 0
    1390:	80 81       	ld	r24, Z
    1392:	80 68       	ori	r24, 0x80	; 128
    1394:	8c 93       	st	X, r24
    1396:	d6 c4       	rjmp	.+2476   	; 0x1d44 <__stack+0xc45>
          break;
        //------------      
        case CMD_RX_MASKED:
          if (cmd->ctrl.ide){ Can_set_ext_id(cmd->id.ext);}
    1398:	e9 85       	ldd	r30, Y+9	; 0x09
    139a:	fa 85       	ldd	r31, Y+10	; 0x0a
    139c:	84 85       	ldd	r24, Z+12	; 0x0c
    139e:	88 23       	and	r24, r24
    13a0:	09 f4       	brne	.+2      	; 0x13a4 <__stack+0x2a5>
    13a2:	57 c0       	rjmp	.+174    	; 0x1452 <__stack+0x353>
    13a4:	a3 ef       	ldi	r26, 0xF3	; 243
    13a6:	b0 e0       	ldi	r27, 0x00	; 0
    13a8:	89 85       	ldd	r24, Y+9	; 0x09
    13aa:	9a 85       	ldd	r25, Y+10	; 0x0a
    13ac:	03 96       	adiw	r24, 0x03	; 3
    13ae:	fc 01       	movw	r30, r24
    13b0:	33 96       	adiw	r30, 0x03	; 3
    13b2:	80 81       	ld	r24, Z
    13b4:	28 2f       	mov	r18, r24
    13b6:	22 0f       	add	r18, r18
    13b8:	22 0f       	add	r18, r18
    13ba:	22 0f       	add	r18, r18
    13bc:	89 85       	ldd	r24, Y+9	; 0x09
    13be:	9a 85       	ldd	r25, Y+10	; 0x0a
    13c0:	03 96       	adiw	r24, 0x03	; 3
    13c2:	fc 01       	movw	r30, r24
    13c4:	32 96       	adiw	r30, 0x02	; 2
    13c6:	80 81       	ld	r24, Z
    13c8:	82 95       	swap	r24
    13ca:	86 95       	lsr	r24
    13cc:	87 70       	andi	r24, 0x07	; 7
    13ce:	82 0f       	add	r24, r18
    13d0:	8c 93       	st	X, r24
    13d2:	a2 ef       	ldi	r26, 0xF2	; 242
    13d4:	b0 e0       	ldi	r27, 0x00	; 0
    13d6:	89 85       	ldd	r24, Y+9	; 0x09
    13d8:	9a 85       	ldd	r25, Y+10	; 0x0a
    13da:	03 96       	adiw	r24, 0x03	; 3
    13dc:	fc 01       	movw	r30, r24
    13de:	32 96       	adiw	r30, 0x02	; 2
    13e0:	80 81       	ld	r24, Z
    13e2:	28 2f       	mov	r18, r24
    13e4:	22 0f       	add	r18, r18
    13e6:	22 0f       	add	r18, r18
    13e8:	22 0f       	add	r18, r18
    13ea:	89 85       	ldd	r24, Y+9	; 0x09
    13ec:	9a 85       	ldd	r25, Y+10	; 0x0a
    13ee:	03 96       	adiw	r24, 0x03	; 3
    13f0:	fc 01       	movw	r30, r24
    13f2:	31 96       	adiw	r30, 0x01	; 1
    13f4:	80 81       	ld	r24, Z
    13f6:	82 95       	swap	r24
    13f8:	86 95       	lsr	r24
    13fa:	87 70       	andi	r24, 0x07	; 7
    13fc:	82 0f       	add	r24, r18
    13fe:	8c 93       	st	X, r24
    1400:	a1 ef       	ldi	r26, 0xF1	; 241
    1402:	b0 e0       	ldi	r27, 0x00	; 0
    1404:	89 85       	ldd	r24, Y+9	; 0x09
    1406:	9a 85       	ldd	r25, Y+10	; 0x0a
    1408:	03 96       	adiw	r24, 0x03	; 3
    140a:	fc 01       	movw	r30, r24
    140c:	31 96       	adiw	r30, 0x01	; 1
    140e:	80 81       	ld	r24, Z
    1410:	28 2f       	mov	r18, r24
    1412:	22 0f       	add	r18, r18
    1414:	22 0f       	add	r18, r18
    1416:	22 0f       	add	r18, r18
    1418:	89 85       	ldd	r24, Y+9	; 0x09
    141a:	9a 85       	ldd	r25, Y+10	; 0x0a
    141c:	03 96       	adiw	r24, 0x03	; 3
    141e:	fc 01       	movw	r30, r24
    1420:	80 81       	ld	r24, Z
    1422:	82 95       	swap	r24
    1424:	86 95       	lsr	r24
    1426:	87 70       	andi	r24, 0x07	; 7
    1428:	82 0f       	add	r24, r18
    142a:	8c 93       	st	X, r24
    142c:	a0 ef       	ldi	r26, 0xF0	; 240
    142e:	b0 e0       	ldi	r27, 0x00	; 0
    1430:	89 85       	ldd	r24, Y+9	; 0x09
    1432:	9a 85       	ldd	r25, Y+10	; 0x0a
    1434:	03 96       	adiw	r24, 0x03	; 3
    1436:	fc 01       	movw	r30, r24
    1438:	80 81       	ld	r24, Z
    143a:	88 0f       	add	r24, r24
    143c:	88 0f       	add	r24, r24
    143e:	88 0f       	add	r24, r24
    1440:	8c 93       	st	X, r24
    1442:	af ee       	ldi	r26, 0xEF	; 239
    1444:	b0 e0       	ldi	r27, 0x00	; 0
    1446:	ef ee       	ldi	r30, 0xEF	; 239
    1448:	f0 e0       	ldi	r31, 0x00	; 0
    144a:	80 81       	ld	r24, Z
    144c:	80 61       	ori	r24, 0x10	; 16
    144e:	8c 93       	st	X, r24
    1450:	28 c0       	rjmp	.+80     	; 0x14a2 <__stack+0x3a3>
          else              { Can_set_std_id(cmd->id.std);}
    1452:	a3 ef       	ldi	r26, 0xF3	; 243
    1454:	b0 e0       	ldi	r27, 0x00	; 0
    1456:	89 85       	ldd	r24, Y+9	; 0x09
    1458:	9a 85       	ldd	r25, Y+10	; 0x0a
    145a:	03 96       	adiw	r24, 0x03	; 3
    145c:	fc 01       	movw	r30, r24
    145e:	31 96       	adiw	r30, 0x01	; 1
    1460:	80 81       	ld	r24, Z
    1462:	28 2f       	mov	r18, r24
    1464:	22 95       	swap	r18
    1466:	22 0f       	add	r18, r18
    1468:	20 7e       	andi	r18, 0xE0	; 224
    146a:	89 85       	ldd	r24, Y+9	; 0x09
    146c:	9a 85       	ldd	r25, Y+10	; 0x0a
    146e:	03 96       	adiw	r24, 0x03	; 3
    1470:	fc 01       	movw	r30, r24
    1472:	80 81       	ld	r24, Z
    1474:	86 95       	lsr	r24
    1476:	86 95       	lsr	r24
    1478:	86 95       	lsr	r24
    147a:	82 0f       	add	r24, r18
    147c:	8c 93       	st	X, r24
    147e:	a2 ef       	ldi	r26, 0xF2	; 242
    1480:	b0 e0       	ldi	r27, 0x00	; 0
    1482:	89 85       	ldd	r24, Y+9	; 0x09
    1484:	9a 85       	ldd	r25, Y+10	; 0x0a
    1486:	03 96       	adiw	r24, 0x03	; 3
    1488:	fc 01       	movw	r30, r24
    148a:	80 81       	ld	r24, Z
    148c:	82 95       	swap	r24
    148e:	88 0f       	add	r24, r24
    1490:	80 7e       	andi	r24, 0xE0	; 224
    1492:	8c 93       	st	X, r24
    1494:	af ee       	ldi	r26, 0xEF	; 239
    1496:	b0 e0       	ldi	r27, 0x00	; 0
    1498:	ef ee       	ldi	r30, 0xEF	; 239
    149a:	f0 e0       	ldi	r31, 0x00	; 0
    149c:	80 81       	ld	r24, Z
    149e:	8f 7e       	andi	r24, 0xEF	; 239
    14a0:	8c 93       	st	X, r24
          u32_temp=~0; Can_set_ext_msk(u32_temp);
    14a2:	8f ef       	ldi	r24, 0xFF	; 255
    14a4:	9f ef       	ldi	r25, 0xFF	; 255
    14a6:	af ef       	ldi	r26, 0xFF	; 255
    14a8:	bf ef       	ldi	r27, 0xFF	; 255
    14aa:	8d 83       	std	Y+5, r24	; 0x05
    14ac:	9e 83       	std	Y+6, r25	; 0x06
    14ae:	af 83       	std	Y+7, r26	; 0x07
    14b0:	b8 87       	std	Y+8, r27	; 0x08
    14b2:	a7 ef       	ldi	r26, 0xF7	; 247
    14b4:	b0 e0       	ldi	r27, 0x00	; 0
    14b6:	ce 01       	movw	r24, r28
    14b8:	05 96       	adiw	r24, 0x05	; 5
    14ba:	fc 01       	movw	r30, r24
    14bc:	33 96       	adiw	r30, 0x03	; 3
    14be:	80 81       	ld	r24, Z
    14c0:	28 2f       	mov	r18, r24
    14c2:	22 0f       	add	r18, r18
    14c4:	22 0f       	add	r18, r18
    14c6:	22 0f       	add	r18, r18
    14c8:	ce 01       	movw	r24, r28
    14ca:	05 96       	adiw	r24, 0x05	; 5
    14cc:	fc 01       	movw	r30, r24
    14ce:	32 96       	adiw	r30, 0x02	; 2
    14d0:	80 81       	ld	r24, Z
    14d2:	82 95       	swap	r24
    14d4:	86 95       	lsr	r24
    14d6:	87 70       	andi	r24, 0x07	; 7
    14d8:	82 0f       	add	r24, r18
    14da:	8c 93       	st	X, r24
    14dc:	a6 ef       	ldi	r26, 0xF6	; 246
    14de:	b0 e0       	ldi	r27, 0x00	; 0
    14e0:	ce 01       	movw	r24, r28
    14e2:	05 96       	adiw	r24, 0x05	; 5
    14e4:	fc 01       	movw	r30, r24
    14e6:	32 96       	adiw	r30, 0x02	; 2
    14e8:	80 81       	ld	r24, Z
    14ea:	28 2f       	mov	r18, r24
    14ec:	22 0f       	add	r18, r18
    14ee:	22 0f       	add	r18, r18
    14f0:	22 0f       	add	r18, r18
    14f2:	ce 01       	movw	r24, r28
    14f4:	05 96       	adiw	r24, 0x05	; 5
    14f6:	fc 01       	movw	r30, r24
    14f8:	31 96       	adiw	r30, 0x01	; 1
    14fa:	80 81       	ld	r24, Z
    14fc:	82 95       	swap	r24
    14fe:	86 95       	lsr	r24
    1500:	87 70       	andi	r24, 0x07	; 7
    1502:	82 0f       	add	r24, r18
    1504:	8c 93       	st	X, r24
    1506:	a5 ef       	ldi	r26, 0xF5	; 245
    1508:	b0 e0       	ldi	r27, 0x00	; 0
    150a:	ce 01       	movw	r24, r28
    150c:	05 96       	adiw	r24, 0x05	; 5
    150e:	fc 01       	movw	r30, r24
    1510:	31 96       	adiw	r30, 0x01	; 1
    1512:	80 81       	ld	r24, Z
    1514:	98 2f       	mov	r25, r24
    1516:	99 0f       	add	r25, r25
    1518:	99 0f       	add	r25, r25
    151a:	99 0f       	add	r25, r25
    151c:	fe 01       	movw	r30, r28
    151e:	35 96       	adiw	r30, 0x05	; 5
    1520:	80 81       	ld	r24, Z
    1522:	82 95       	swap	r24
    1524:	86 95       	lsr	r24
    1526:	87 70       	andi	r24, 0x07	; 7
    1528:	89 0f       	add	r24, r25
    152a:	8c 93       	st	X, r24
    152c:	a4 ef       	ldi	r26, 0xF4	; 244
    152e:	b0 e0       	ldi	r27, 0x00	; 0
    1530:	fe 01       	movw	r30, r28
    1532:	35 96       	adiw	r30, 0x05	; 5
    1534:	80 81       	ld	r24, Z
    1536:	88 0f       	add	r24, r24
    1538:	88 0f       	add	r24, r24
    153a:	88 0f       	add	r24, r24
    153c:	8c 93       	st	X, r24
          Can_set_dlc(cmd->dlc);
    153e:	af ee       	ldi	r26, 0xEF	; 239
    1540:	b0 e0       	ldi	r27, 0x00	; 0
    1542:	ef ee       	ldi	r30, 0xEF	; 239
    1544:	f0 e0       	ldi	r31, 0x00	; 0
    1546:	90 81       	ld	r25, Z
    1548:	e9 85       	ldd	r30, Y+9	; 0x09
    154a:	fa 85       	ldd	r31, Y+10	; 0x0a
    154c:	87 81       	ldd	r24, Z+7	; 0x07
    154e:	89 2b       	or	r24, r25
    1550:	8c 93       	st	X, r24
          Can_clear_rtrmsk();
    1552:	a4 ef       	ldi	r26, 0xF4	; 244
    1554:	b0 e0       	ldi	r27, 0x00	; 0
    1556:	e4 ef       	ldi	r30, 0xF4	; 244
    1558:	f0 e0       	ldi	r31, 0x00	; 0
    155a:	80 81       	ld	r24, Z
    155c:	8b 7f       	andi	r24, 0xFB	; 251
    155e:	8c 93       	st	X, r24
          Can_set_idemsk();
    1560:	a4 ef       	ldi	r26, 0xF4	; 244
    1562:	b0 e0       	ldi	r27, 0x00	; 0
    1564:	e4 ef       	ldi	r30, 0xF4	; 244
    1566:	f0 e0       	ldi	r31, 0x00	; 0
    1568:	80 81       	ld	r24, Z
    156a:	81 60       	ori	r24, 0x01	; 1
    156c:	8c 93       	st	X, r24
          Can_config_rx();       
    156e:	af ee       	ldi	r26, 0xEF	; 239
    1570:	b0 e0       	ldi	r27, 0x00	; 0
    1572:	ef ee       	ldi	r30, 0xEF	; 239
    1574:	f0 e0       	ldi	r31, 0x00	; 0
    1576:	80 81       	ld	r24, Z
    1578:	8f 73       	andi	r24, 0x3F	; 63
    157a:	8c 93       	st	X, r24
    157c:	af ee       	ldi	r26, 0xEF	; 239
    157e:	b0 e0       	ldi	r27, 0x00	; 0
    1580:	ef ee       	ldi	r30, 0xEF	; 239
    1582:	f0 e0       	ldi	r31, 0x00	; 0
    1584:	80 81       	ld	r24, Z
    1586:	80 68       	ori	r24, 0x80	; 128
    1588:	8c 93       	st	X, r24
    158a:	dc c3       	rjmp	.+1976   	; 0x1d44 <__stack+0xc45>
          break;
        //------------      
        case CMD_RX_DATA_MASKED:
          if (cmd->ctrl.ide){ Can_set_ext_id(cmd->id.ext);}
    158c:	e9 85       	ldd	r30, Y+9	; 0x09
    158e:	fa 85       	ldd	r31, Y+10	; 0x0a
    1590:	84 85       	ldd	r24, Z+12	; 0x0c
    1592:	88 23       	and	r24, r24
    1594:	09 f4       	brne	.+2      	; 0x1598 <__stack+0x499>
    1596:	57 c0       	rjmp	.+174    	; 0x1646 <__stack+0x547>
    1598:	a3 ef       	ldi	r26, 0xF3	; 243
    159a:	b0 e0       	ldi	r27, 0x00	; 0
    159c:	89 85       	ldd	r24, Y+9	; 0x09
    159e:	9a 85       	ldd	r25, Y+10	; 0x0a
    15a0:	03 96       	adiw	r24, 0x03	; 3
    15a2:	fc 01       	movw	r30, r24
    15a4:	33 96       	adiw	r30, 0x03	; 3
    15a6:	80 81       	ld	r24, Z
    15a8:	28 2f       	mov	r18, r24
    15aa:	22 0f       	add	r18, r18
    15ac:	22 0f       	add	r18, r18
    15ae:	22 0f       	add	r18, r18
    15b0:	89 85       	ldd	r24, Y+9	; 0x09
    15b2:	9a 85       	ldd	r25, Y+10	; 0x0a
    15b4:	03 96       	adiw	r24, 0x03	; 3
    15b6:	fc 01       	movw	r30, r24
    15b8:	32 96       	adiw	r30, 0x02	; 2
    15ba:	80 81       	ld	r24, Z
    15bc:	82 95       	swap	r24
    15be:	86 95       	lsr	r24
    15c0:	87 70       	andi	r24, 0x07	; 7
    15c2:	82 0f       	add	r24, r18
    15c4:	8c 93       	st	X, r24
    15c6:	a2 ef       	ldi	r26, 0xF2	; 242
    15c8:	b0 e0       	ldi	r27, 0x00	; 0
    15ca:	89 85       	ldd	r24, Y+9	; 0x09
    15cc:	9a 85       	ldd	r25, Y+10	; 0x0a
    15ce:	03 96       	adiw	r24, 0x03	; 3
    15d0:	fc 01       	movw	r30, r24
    15d2:	32 96       	adiw	r30, 0x02	; 2
    15d4:	80 81       	ld	r24, Z
    15d6:	28 2f       	mov	r18, r24
    15d8:	22 0f       	add	r18, r18
    15da:	22 0f       	add	r18, r18
    15dc:	22 0f       	add	r18, r18
    15de:	89 85       	ldd	r24, Y+9	; 0x09
    15e0:	9a 85       	ldd	r25, Y+10	; 0x0a
    15e2:	03 96       	adiw	r24, 0x03	; 3
    15e4:	fc 01       	movw	r30, r24
    15e6:	31 96       	adiw	r30, 0x01	; 1
    15e8:	80 81       	ld	r24, Z
    15ea:	82 95       	swap	r24
    15ec:	86 95       	lsr	r24
    15ee:	87 70       	andi	r24, 0x07	; 7
    15f0:	82 0f       	add	r24, r18
    15f2:	8c 93       	st	X, r24
    15f4:	a1 ef       	ldi	r26, 0xF1	; 241
    15f6:	b0 e0       	ldi	r27, 0x00	; 0
    15f8:	89 85       	ldd	r24, Y+9	; 0x09
    15fa:	9a 85       	ldd	r25, Y+10	; 0x0a
    15fc:	03 96       	adiw	r24, 0x03	; 3
    15fe:	fc 01       	movw	r30, r24
    1600:	31 96       	adiw	r30, 0x01	; 1
    1602:	80 81       	ld	r24, Z
    1604:	28 2f       	mov	r18, r24
    1606:	22 0f       	add	r18, r18
    1608:	22 0f       	add	r18, r18
    160a:	22 0f       	add	r18, r18
    160c:	89 85       	ldd	r24, Y+9	; 0x09
    160e:	9a 85       	ldd	r25, Y+10	; 0x0a
    1610:	03 96       	adiw	r24, 0x03	; 3
    1612:	fc 01       	movw	r30, r24
    1614:	80 81       	ld	r24, Z
    1616:	82 95       	swap	r24
    1618:	86 95       	lsr	r24
    161a:	87 70       	andi	r24, 0x07	; 7
    161c:	82 0f       	add	r24, r18
    161e:	8c 93       	st	X, r24
    1620:	a0 ef       	ldi	r26, 0xF0	; 240
    1622:	b0 e0       	ldi	r27, 0x00	; 0
    1624:	89 85       	ldd	r24, Y+9	; 0x09
    1626:	9a 85       	ldd	r25, Y+10	; 0x0a
    1628:	03 96       	adiw	r24, 0x03	; 3
    162a:	fc 01       	movw	r30, r24
    162c:	80 81       	ld	r24, Z
    162e:	88 0f       	add	r24, r24
    1630:	88 0f       	add	r24, r24
    1632:	88 0f       	add	r24, r24
    1634:	8c 93       	st	X, r24
    1636:	af ee       	ldi	r26, 0xEF	; 239
    1638:	b0 e0       	ldi	r27, 0x00	; 0
    163a:	ef ee       	ldi	r30, 0xEF	; 239
    163c:	f0 e0       	ldi	r31, 0x00	; 0
    163e:	80 81       	ld	r24, Z
    1640:	80 61       	ori	r24, 0x10	; 16
    1642:	8c 93       	st	X, r24
    1644:	28 c0       	rjmp	.+80     	; 0x1696 <__stack+0x597>
          else              { Can_set_std_id(cmd->id.std);}
    1646:	a3 ef       	ldi	r26, 0xF3	; 243
    1648:	b0 e0       	ldi	r27, 0x00	; 0
    164a:	89 85       	ldd	r24, Y+9	; 0x09
    164c:	9a 85       	ldd	r25, Y+10	; 0x0a
    164e:	03 96       	adiw	r24, 0x03	; 3
    1650:	fc 01       	movw	r30, r24
    1652:	31 96       	adiw	r30, 0x01	; 1
    1654:	80 81       	ld	r24, Z
    1656:	28 2f       	mov	r18, r24
    1658:	22 95       	swap	r18
    165a:	22 0f       	add	r18, r18
    165c:	20 7e       	andi	r18, 0xE0	; 224
    165e:	89 85       	ldd	r24, Y+9	; 0x09
    1660:	9a 85       	ldd	r25, Y+10	; 0x0a
    1662:	03 96       	adiw	r24, 0x03	; 3
    1664:	fc 01       	movw	r30, r24
    1666:	80 81       	ld	r24, Z
    1668:	86 95       	lsr	r24
    166a:	86 95       	lsr	r24
    166c:	86 95       	lsr	r24
    166e:	82 0f       	add	r24, r18
    1670:	8c 93       	st	X, r24
    1672:	a2 ef       	ldi	r26, 0xF2	; 242
    1674:	b0 e0       	ldi	r27, 0x00	; 0
    1676:	89 85       	ldd	r24, Y+9	; 0x09
    1678:	9a 85       	ldd	r25, Y+10	; 0x0a
    167a:	03 96       	adiw	r24, 0x03	; 3
    167c:	fc 01       	movw	r30, r24
    167e:	80 81       	ld	r24, Z
    1680:	82 95       	swap	r24
    1682:	88 0f       	add	r24, r24
    1684:	80 7e       	andi	r24, 0xE0	; 224
    1686:	8c 93       	st	X, r24
    1688:	af ee       	ldi	r26, 0xEF	; 239
    168a:	b0 e0       	ldi	r27, 0x00	; 0
    168c:	ef ee       	ldi	r30, 0xEF	; 239
    168e:	f0 e0       	ldi	r31, 0x00	; 0
    1690:	80 81       	ld	r24, Z
    1692:	8f 7e       	andi	r24, 0xEF	; 239
    1694:	8c 93       	st	X, r24
          u32_temp=~0; Can_set_ext_msk(u32_temp);
    1696:	8f ef       	ldi	r24, 0xFF	; 255
    1698:	9f ef       	ldi	r25, 0xFF	; 255
    169a:	af ef       	ldi	r26, 0xFF	; 255
    169c:	bf ef       	ldi	r27, 0xFF	; 255
    169e:	8d 83       	std	Y+5, r24	; 0x05
    16a0:	9e 83       	std	Y+6, r25	; 0x06
    16a2:	af 83       	std	Y+7, r26	; 0x07
    16a4:	b8 87       	std	Y+8, r27	; 0x08
    16a6:	a7 ef       	ldi	r26, 0xF7	; 247
    16a8:	b0 e0       	ldi	r27, 0x00	; 0
    16aa:	ce 01       	movw	r24, r28
    16ac:	05 96       	adiw	r24, 0x05	; 5
    16ae:	fc 01       	movw	r30, r24
    16b0:	33 96       	adiw	r30, 0x03	; 3
    16b2:	80 81       	ld	r24, Z
    16b4:	28 2f       	mov	r18, r24
    16b6:	22 0f       	add	r18, r18
    16b8:	22 0f       	add	r18, r18
    16ba:	22 0f       	add	r18, r18
    16bc:	ce 01       	movw	r24, r28
    16be:	05 96       	adiw	r24, 0x05	; 5
    16c0:	fc 01       	movw	r30, r24
    16c2:	32 96       	adiw	r30, 0x02	; 2
    16c4:	80 81       	ld	r24, Z
    16c6:	82 95       	swap	r24
    16c8:	86 95       	lsr	r24
    16ca:	87 70       	andi	r24, 0x07	; 7
    16cc:	82 0f       	add	r24, r18
    16ce:	8c 93       	st	X, r24
    16d0:	a6 ef       	ldi	r26, 0xF6	; 246
    16d2:	b0 e0       	ldi	r27, 0x00	; 0
    16d4:	ce 01       	movw	r24, r28
    16d6:	05 96       	adiw	r24, 0x05	; 5
    16d8:	fc 01       	movw	r30, r24
    16da:	32 96       	adiw	r30, 0x02	; 2
    16dc:	80 81       	ld	r24, Z
    16de:	28 2f       	mov	r18, r24
    16e0:	22 0f       	add	r18, r18
    16e2:	22 0f       	add	r18, r18
    16e4:	22 0f       	add	r18, r18
    16e6:	ce 01       	movw	r24, r28
    16e8:	05 96       	adiw	r24, 0x05	; 5
    16ea:	fc 01       	movw	r30, r24
    16ec:	31 96       	adiw	r30, 0x01	; 1
    16ee:	80 81       	ld	r24, Z
    16f0:	82 95       	swap	r24
    16f2:	86 95       	lsr	r24
    16f4:	87 70       	andi	r24, 0x07	; 7
    16f6:	82 0f       	add	r24, r18
    16f8:	8c 93       	st	X, r24
    16fa:	a5 ef       	ldi	r26, 0xF5	; 245
    16fc:	b0 e0       	ldi	r27, 0x00	; 0
    16fe:	ce 01       	movw	r24, r28
    1700:	05 96       	adiw	r24, 0x05	; 5
    1702:	fc 01       	movw	r30, r24
    1704:	31 96       	adiw	r30, 0x01	; 1
    1706:	80 81       	ld	r24, Z
    1708:	98 2f       	mov	r25, r24
    170a:	99 0f       	add	r25, r25
    170c:	99 0f       	add	r25, r25
    170e:	99 0f       	add	r25, r25
    1710:	fe 01       	movw	r30, r28
    1712:	35 96       	adiw	r30, 0x05	; 5
    1714:	80 81       	ld	r24, Z
    1716:	82 95       	swap	r24
    1718:	86 95       	lsr	r24
    171a:	87 70       	andi	r24, 0x07	; 7
    171c:	89 0f       	add	r24, r25
    171e:	8c 93       	st	X, r24
    1720:	a4 ef       	ldi	r26, 0xF4	; 244
    1722:	b0 e0       	ldi	r27, 0x00	; 0
    1724:	fe 01       	movw	r30, r28
    1726:	35 96       	adiw	r30, 0x05	; 5
    1728:	80 81       	ld	r24, Z
    172a:	88 0f       	add	r24, r24
    172c:	88 0f       	add	r24, r24
    172e:	88 0f       	add	r24, r24
    1730:	8c 93       	st	X, r24
          Can_set_dlc(cmd->dlc);
    1732:	af ee       	ldi	r26, 0xEF	; 239
    1734:	b0 e0       	ldi	r27, 0x00	; 0
    1736:	ef ee       	ldi	r30, 0xEF	; 239
    1738:	f0 e0       	ldi	r31, 0x00	; 0
    173a:	90 81       	ld	r25, Z
    173c:	e9 85       	ldd	r30, Y+9	; 0x09
    173e:	fa 85       	ldd	r31, Y+10	; 0x0a
    1740:	87 81       	ldd	r24, Z+7	; 0x07
    1742:	89 2b       	or	r24, r25
    1744:	8c 93       	st	X, r24
          cmd->ctrl.rtr=0; Can_set_rtrmsk(); Can_clear_rtr();
    1746:	e9 85       	ldd	r30, Y+9	; 0x09
    1748:	fa 85       	ldd	r31, Y+10	; 0x0a
    174a:	13 86       	std	Z+11, r1	; 0x0b
    174c:	a4 ef       	ldi	r26, 0xF4	; 244
    174e:	b0 e0       	ldi	r27, 0x00	; 0
    1750:	e4 ef       	ldi	r30, 0xF4	; 244
    1752:	f0 e0       	ldi	r31, 0x00	; 0
    1754:	80 81       	ld	r24, Z
    1756:	84 60       	ori	r24, 0x04	; 4
    1758:	8c 93       	st	X, r24
    175a:	a0 ef       	ldi	r26, 0xF0	; 240
    175c:	b0 e0       	ldi	r27, 0x00	; 0
    175e:	e0 ef       	ldi	r30, 0xF0	; 240
    1760:	f0 e0       	ldi	r31, 0x00	; 0
    1762:	80 81       	ld	r24, Z
    1764:	8b 7f       	andi	r24, 0xFB	; 251
    1766:	8c 93       	st	X, r24
          Can_set_idemsk();
    1768:	a4 ef       	ldi	r26, 0xF4	; 244
    176a:	b0 e0       	ldi	r27, 0x00	; 0
    176c:	e4 ef       	ldi	r30, 0xF4	; 244
    176e:	f0 e0       	ldi	r31, 0x00	; 0
    1770:	80 81       	ld	r24, Z
    1772:	81 60       	ori	r24, 0x01	; 1
    1774:	8c 93       	st	X, r24
          Can_config_rx();       
    1776:	af ee       	ldi	r26, 0xEF	; 239
    1778:	b0 e0       	ldi	r27, 0x00	; 0
    177a:	ef ee       	ldi	r30, 0xEF	; 239
    177c:	f0 e0       	ldi	r31, 0x00	; 0
    177e:	80 81       	ld	r24, Z
    1780:	8f 73       	andi	r24, 0x3F	; 63
    1782:	8c 93       	st	X, r24
    1784:	af ee       	ldi	r26, 0xEF	; 239
    1786:	b0 e0       	ldi	r27, 0x00	; 0
    1788:	ef ee       	ldi	r30, 0xEF	; 239
    178a:	f0 e0       	ldi	r31, 0x00	; 0
    178c:	80 81       	ld	r24, Z
    178e:	80 68       	ori	r24, 0x80	; 128
    1790:	8c 93       	st	X, r24
    1792:	d8 c2       	rjmp	.+1456   	; 0x1d44 <__stack+0xc45>
          break;
        //------------      
        case CMD_RX_REMOTE_MASKED:
          if (cmd->ctrl.ide){ Can_set_ext_id(cmd->id.ext);}
    1794:	e9 85       	ldd	r30, Y+9	; 0x09
    1796:	fa 85       	ldd	r31, Y+10	; 0x0a
    1798:	84 85       	ldd	r24, Z+12	; 0x0c
    179a:	88 23       	and	r24, r24
    179c:	09 f4       	brne	.+2      	; 0x17a0 <__stack+0x6a1>
    179e:	57 c0       	rjmp	.+174    	; 0x184e <__stack+0x74f>
    17a0:	a3 ef       	ldi	r26, 0xF3	; 243
    17a2:	b0 e0       	ldi	r27, 0x00	; 0
    17a4:	89 85       	ldd	r24, Y+9	; 0x09
    17a6:	9a 85       	ldd	r25, Y+10	; 0x0a
    17a8:	03 96       	adiw	r24, 0x03	; 3
    17aa:	fc 01       	movw	r30, r24
    17ac:	33 96       	adiw	r30, 0x03	; 3
    17ae:	80 81       	ld	r24, Z
    17b0:	28 2f       	mov	r18, r24
    17b2:	22 0f       	add	r18, r18
    17b4:	22 0f       	add	r18, r18
    17b6:	22 0f       	add	r18, r18
    17b8:	89 85       	ldd	r24, Y+9	; 0x09
    17ba:	9a 85       	ldd	r25, Y+10	; 0x0a
    17bc:	03 96       	adiw	r24, 0x03	; 3
    17be:	fc 01       	movw	r30, r24
    17c0:	32 96       	adiw	r30, 0x02	; 2
    17c2:	80 81       	ld	r24, Z
    17c4:	82 95       	swap	r24
    17c6:	86 95       	lsr	r24
    17c8:	87 70       	andi	r24, 0x07	; 7
    17ca:	82 0f       	add	r24, r18
    17cc:	8c 93       	st	X, r24
    17ce:	a2 ef       	ldi	r26, 0xF2	; 242
    17d0:	b0 e0       	ldi	r27, 0x00	; 0
    17d2:	89 85       	ldd	r24, Y+9	; 0x09
    17d4:	9a 85       	ldd	r25, Y+10	; 0x0a
    17d6:	03 96       	adiw	r24, 0x03	; 3
    17d8:	fc 01       	movw	r30, r24
    17da:	32 96       	adiw	r30, 0x02	; 2
    17dc:	80 81       	ld	r24, Z
    17de:	28 2f       	mov	r18, r24
    17e0:	22 0f       	add	r18, r18
    17e2:	22 0f       	add	r18, r18
    17e4:	22 0f       	add	r18, r18
    17e6:	89 85       	ldd	r24, Y+9	; 0x09
    17e8:	9a 85       	ldd	r25, Y+10	; 0x0a
    17ea:	03 96       	adiw	r24, 0x03	; 3
    17ec:	fc 01       	movw	r30, r24
    17ee:	31 96       	adiw	r30, 0x01	; 1
    17f0:	80 81       	ld	r24, Z
    17f2:	82 95       	swap	r24
    17f4:	86 95       	lsr	r24
    17f6:	87 70       	andi	r24, 0x07	; 7
    17f8:	82 0f       	add	r24, r18
    17fa:	8c 93       	st	X, r24
    17fc:	a1 ef       	ldi	r26, 0xF1	; 241
    17fe:	b0 e0       	ldi	r27, 0x00	; 0
    1800:	89 85       	ldd	r24, Y+9	; 0x09
    1802:	9a 85       	ldd	r25, Y+10	; 0x0a
    1804:	03 96       	adiw	r24, 0x03	; 3
    1806:	fc 01       	movw	r30, r24
    1808:	31 96       	adiw	r30, 0x01	; 1
    180a:	80 81       	ld	r24, Z
    180c:	28 2f       	mov	r18, r24
    180e:	22 0f       	add	r18, r18
    1810:	22 0f       	add	r18, r18
    1812:	22 0f       	add	r18, r18
    1814:	89 85       	ldd	r24, Y+9	; 0x09
    1816:	9a 85       	ldd	r25, Y+10	; 0x0a
    1818:	03 96       	adiw	r24, 0x03	; 3
    181a:	fc 01       	movw	r30, r24
    181c:	80 81       	ld	r24, Z
    181e:	82 95       	swap	r24
    1820:	86 95       	lsr	r24
    1822:	87 70       	andi	r24, 0x07	; 7
    1824:	82 0f       	add	r24, r18
    1826:	8c 93       	st	X, r24
    1828:	a0 ef       	ldi	r26, 0xF0	; 240
    182a:	b0 e0       	ldi	r27, 0x00	; 0
    182c:	89 85       	ldd	r24, Y+9	; 0x09
    182e:	9a 85       	ldd	r25, Y+10	; 0x0a
    1830:	03 96       	adiw	r24, 0x03	; 3
    1832:	fc 01       	movw	r30, r24
    1834:	80 81       	ld	r24, Z
    1836:	88 0f       	add	r24, r24
    1838:	88 0f       	add	r24, r24
    183a:	88 0f       	add	r24, r24
    183c:	8c 93       	st	X, r24
    183e:	af ee       	ldi	r26, 0xEF	; 239
    1840:	b0 e0       	ldi	r27, 0x00	; 0
    1842:	ef ee       	ldi	r30, 0xEF	; 239
    1844:	f0 e0       	ldi	r31, 0x00	; 0
    1846:	80 81       	ld	r24, Z
    1848:	80 61       	ori	r24, 0x10	; 16
    184a:	8c 93       	st	X, r24
    184c:	28 c0       	rjmp	.+80     	; 0x189e <__stack+0x79f>
          else              { Can_set_std_id(cmd->id.std);}
    184e:	a3 ef       	ldi	r26, 0xF3	; 243
    1850:	b0 e0       	ldi	r27, 0x00	; 0
    1852:	89 85       	ldd	r24, Y+9	; 0x09
    1854:	9a 85       	ldd	r25, Y+10	; 0x0a
    1856:	03 96       	adiw	r24, 0x03	; 3
    1858:	fc 01       	movw	r30, r24
    185a:	31 96       	adiw	r30, 0x01	; 1
    185c:	80 81       	ld	r24, Z
    185e:	28 2f       	mov	r18, r24
    1860:	22 95       	swap	r18
    1862:	22 0f       	add	r18, r18
    1864:	20 7e       	andi	r18, 0xE0	; 224
    1866:	89 85       	ldd	r24, Y+9	; 0x09
    1868:	9a 85       	ldd	r25, Y+10	; 0x0a
    186a:	03 96       	adiw	r24, 0x03	; 3
    186c:	fc 01       	movw	r30, r24
    186e:	80 81       	ld	r24, Z
    1870:	86 95       	lsr	r24
    1872:	86 95       	lsr	r24
    1874:	86 95       	lsr	r24
    1876:	82 0f       	add	r24, r18
    1878:	8c 93       	st	X, r24
    187a:	a2 ef       	ldi	r26, 0xF2	; 242
    187c:	b0 e0       	ldi	r27, 0x00	; 0
    187e:	89 85       	ldd	r24, Y+9	; 0x09
    1880:	9a 85       	ldd	r25, Y+10	; 0x0a
    1882:	03 96       	adiw	r24, 0x03	; 3
    1884:	fc 01       	movw	r30, r24
    1886:	80 81       	ld	r24, Z
    1888:	82 95       	swap	r24
    188a:	88 0f       	add	r24, r24
    188c:	80 7e       	andi	r24, 0xE0	; 224
    188e:	8c 93       	st	X, r24
    1890:	af ee       	ldi	r26, 0xEF	; 239
    1892:	b0 e0       	ldi	r27, 0x00	; 0
    1894:	ef ee       	ldi	r30, 0xEF	; 239
    1896:	f0 e0       	ldi	r31, 0x00	; 0
    1898:	80 81       	ld	r24, Z
    189a:	8f 7e       	andi	r24, 0xEF	; 239
    189c:	8c 93       	st	X, r24
          u32_temp=~0; Can_set_ext_msk(u32_temp);
    189e:	8f ef       	ldi	r24, 0xFF	; 255
    18a0:	9f ef       	ldi	r25, 0xFF	; 255
    18a2:	af ef       	ldi	r26, 0xFF	; 255
    18a4:	bf ef       	ldi	r27, 0xFF	; 255
    18a6:	8d 83       	std	Y+5, r24	; 0x05
    18a8:	9e 83       	std	Y+6, r25	; 0x06
    18aa:	af 83       	std	Y+7, r26	; 0x07
    18ac:	b8 87       	std	Y+8, r27	; 0x08
    18ae:	a7 ef       	ldi	r26, 0xF7	; 247
    18b0:	b0 e0       	ldi	r27, 0x00	; 0
    18b2:	ce 01       	movw	r24, r28
    18b4:	05 96       	adiw	r24, 0x05	; 5
    18b6:	fc 01       	movw	r30, r24
    18b8:	33 96       	adiw	r30, 0x03	; 3
    18ba:	80 81       	ld	r24, Z
    18bc:	28 2f       	mov	r18, r24
    18be:	22 0f       	add	r18, r18
    18c0:	22 0f       	add	r18, r18
    18c2:	22 0f       	add	r18, r18
    18c4:	ce 01       	movw	r24, r28
    18c6:	05 96       	adiw	r24, 0x05	; 5
    18c8:	fc 01       	movw	r30, r24
    18ca:	32 96       	adiw	r30, 0x02	; 2
    18cc:	80 81       	ld	r24, Z
    18ce:	82 95       	swap	r24
    18d0:	86 95       	lsr	r24
    18d2:	87 70       	andi	r24, 0x07	; 7
    18d4:	82 0f       	add	r24, r18
    18d6:	8c 93       	st	X, r24
    18d8:	a6 ef       	ldi	r26, 0xF6	; 246
    18da:	b0 e0       	ldi	r27, 0x00	; 0
    18dc:	ce 01       	movw	r24, r28
    18de:	05 96       	adiw	r24, 0x05	; 5
    18e0:	fc 01       	movw	r30, r24
    18e2:	32 96       	adiw	r30, 0x02	; 2
    18e4:	80 81       	ld	r24, Z
    18e6:	28 2f       	mov	r18, r24
    18e8:	22 0f       	add	r18, r18
    18ea:	22 0f       	add	r18, r18
    18ec:	22 0f       	add	r18, r18
    18ee:	ce 01       	movw	r24, r28
    18f0:	05 96       	adiw	r24, 0x05	; 5
    18f2:	fc 01       	movw	r30, r24
    18f4:	31 96       	adiw	r30, 0x01	; 1
    18f6:	80 81       	ld	r24, Z
    18f8:	82 95       	swap	r24
    18fa:	86 95       	lsr	r24
    18fc:	87 70       	andi	r24, 0x07	; 7
    18fe:	82 0f       	add	r24, r18
    1900:	8c 93       	st	X, r24
    1902:	a5 ef       	ldi	r26, 0xF5	; 245
    1904:	b0 e0       	ldi	r27, 0x00	; 0
    1906:	ce 01       	movw	r24, r28
    1908:	05 96       	adiw	r24, 0x05	; 5
    190a:	fc 01       	movw	r30, r24
    190c:	31 96       	adiw	r30, 0x01	; 1
    190e:	80 81       	ld	r24, Z
    1910:	98 2f       	mov	r25, r24
    1912:	99 0f       	add	r25, r25
    1914:	99 0f       	add	r25, r25
    1916:	99 0f       	add	r25, r25
    1918:	fe 01       	movw	r30, r28
    191a:	35 96       	adiw	r30, 0x05	; 5
    191c:	80 81       	ld	r24, Z
    191e:	82 95       	swap	r24
    1920:	86 95       	lsr	r24
    1922:	87 70       	andi	r24, 0x07	; 7
    1924:	89 0f       	add	r24, r25
    1926:	8c 93       	st	X, r24
    1928:	a4 ef       	ldi	r26, 0xF4	; 244
    192a:	b0 e0       	ldi	r27, 0x00	; 0
    192c:	fe 01       	movw	r30, r28
    192e:	35 96       	adiw	r30, 0x05	; 5
    1930:	80 81       	ld	r24, Z
    1932:	88 0f       	add	r24, r24
    1934:	88 0f       	add	r24, r24
    1936:	88 0f       	add	r24, r24
    1938:	8c 93       	st	X, r24
          Can_set_dlc(cmd->dlc);
    193a:	af ee       	ldi	r26, 0xEF	; 239
    193c:	b0 e0       	ldi	r27, 0x00	; 0
    193e:	ef ee       	ldi	r30, 0xEF	; 239
    1940:	f0 e0       	ldi	r31, 0x00	; 0
    1942:	90 81       	ld	r25, Z
    1944:	e9 85       	ldd	r30, Y+9	; 0x09
    1946:	fa 85       	ldd	r31, Y+10	; 0x0a
    1948:	87 81       	ldd	r24, Z+7	; 0x07
    194a:	89 2b       	or	r24, r25
    194c:	8c 93       	st	X, r24
          cmd->ctrl.rtr=1; Can_set_rtrmsk(); Can_set_rtr();
    194e:	e9 85       	ldd	r30, Y+9	; 0x09
    1950:	fa 85       	ldd	r31, Y+10	; 0x0a
    1952:	81 e0       	ldi	r24, 0x01	; 1
    1954:	83 87       	std	Z+11, r24	; 0x0b
    1956:	a4 ef       	ldi	r26, 0xF4	; 244
    1958:	b0 e0       	ldi	r27, 0x00	; 0
    195a:	e4 ef       	ldi	r30, 0xF4	; 244
    195c:	f0 e0       	ldi	r31, 0x00	; 0
    195e:	80 81       	ld	r24, Z
    1960:	84 60       	ori	r24, 0x04	; 4
    1962:	8c 93       	st	X, r24
    1964:	a0 ef       	ldi	r26, 0xF0	; 240
    1966:	b0 e0       	ldi	r27, 0x00	; 0
    1968:	e0 ef       	ldi	r30, 0xF0	; 240
    196a:	f0 e0       	ldi	r31, 0x00	; 0
    196c:	80 81       	ld	r24, Z
    196e:	84 60       	ori	r24, 0x04	; 4
    1970:	8c 93       	st	X, r24
          Can_clear_rplv();
    1972:	af ee       	ldi	r26, 0xEF	; 239
    1974:	b0 e0       	ldi	r27, 0x00	; 0
    1976:	ef ee       	ldi	r30, 0xEF	; 239
    1978:	f0 e0       	ldi	r31, 0x00	; 0
    197a:	80 81       	ld	r24, Z
    197c:	8f 7d       	andi	r24, 0xDF	; 223
    197e:	8c 93       	st	X, r24
          Can_set_idemsk();
    1980:	a4 ef       	ldi	r26, 0xF4	; 244
    1982:	b0 e0       	ldi	r27, 0x00	; 0
    1984:	e4 ef       	ldi	r30, 0xF4	; 244
    1986:	f0 e0       	ldi	r31, 0x00	; 0
    1988:	80 81       	ld	r24, Z
    198a:	81 60       	ori	r24, 0x01	; 1
    198c:	8c 93       	st	X, r24
          Can_config_rx();       
    198e:	af ee       	ldi	r26, 0xEF	; 239
    1990:	b0 e0       	ldi	r27, 0x00	; 0
    1992:	ef ee       	ldi	r30, 0xEF	; 239
    1994:	f0 e0       	ldi	r31, 0x00	; 0
    1996:	80 81       	ld	r24, Z
    1998:	8f 73       	andi	r24, 0x3F	; 63
    199a:	8c 93       	st	X, r24
    199c:	af ee       	ldi	r26, 0xEF	; 239
    199e:	b0 e0       	ldi	r27, 0x00	; 0
    19a0:	ef ee       	ldi	r30, 0xEF	; 239
    19a2:	f0 e0       	ldi	r31, 0x00	; 0
    19a4:	80 81       	ld	r24, Z
    19a6:	80 68       	ori	r24, 0x80	; 128
    19a8:	8c 93       	st	X, r24
    19aa:	cc c1       	rjmp	.+920    	; 0x1d44 <__stack+0xc45>
          break;
        //------------      
        case CMD_REPLY:
          for (cpt=0;cpt<cmd->dlc;cpt++) CANMSG = *(cmd->pt_data + cpt);
    19ac:	1b 82       	std	Y+3, r1	; 0x03
    19ae:	11 c0       	rjmp	.+34     	; 0x19d2 <__stack+0x8d3>
    19b0:	aa ef       	ldi	r26, 0xFA	; 250
    19b2:	b0 e0       	ldi	r27, 0x00	; 0
    19b4:	e9 85       	ldd	r30, Y+9	; 0x09
    19b6:	fa 85       	ldd	r31, Y+10	; 0x0a
    19b8:	20 85       	ldd	r18, Z+8	; 0x08
    19ba:	31 85       	ldd	r19, Z+9	; 0x09
    19bc:	8b 81       	ldd	r24, Y+3	; 0x03
    19be:	88 2f       	mov	r24, r24
    19c0:	90 e0       	ldi	r25, 0x00	; 0
    19c2:	f9 01       	movw	r30, r18
    19c4:	e8 0f       	add	r30, r24
    19c6:	f9 1f       	adc	r31, r25
    19c8:	80 81       	ld	r24, Z
    19ca:	8c 93       	st	X, r24
    19cc:	8b 81       	ldd	r24, Y+3	; 0x03
    19ce:	8f 5f       	subi	r24, 0xFF	; 255
    19d0:	8b 83       	std	Y+3, r24	; 0x03
    19d2:	e9 85       	ldd	r30, Y+9	; 0x09
    19d4:	fa 85       	ldd	r31, Y+10	; 0x0a
    19d6:	97 81       	ldd	r25, Z+7	; 0x07
    19d8:	8b 81       	ldd	r24, Y+3	; 0x03
    19da:	89 17       	cp	r24, r25
    19dc:	48 f3       	brcs	.-46     	; 0x19b0 <__stack+0x8b1>
          u32_temp=0; Can_set_ext_msk(u32_temp);
    19de:	1d 82       	std	Y+5, r1	; 0x05
    19e0:	1e 82       	std	Y+6, r1	; 0x06
    19e2:	1f 82       	std	Y+7, r1	; 0x07
    19e4:	18 86       	std	Y+8, r1	; 0x08
    19e6:	a7 ef       	ldi	r26, 0xF7	; 247
    19e8:	b0 e0       	ldi	r27, 0x00	; 0
    19ea:	ce 01       	movw	r24, r28
    19ec:	05 96       	adiw	r24, 0x05	; 5
    19ee:	fc 01       	movw	r30, r24
    19f0:	33 96       	adiw	r30, 0x03	; 3
    19f2:	80 81       	ld	r24, Z
    19f4:	28 2f       	mov	r18, r24
    19f6:	22 0f       	add	r18, r18
    19f8:	22 0f       	add	r18, r18
    19fa:	22 0f       	add	r18, r18
    19fc:	ce 01       	movw	r24, r28
    19fe:	05 96       	adiw	r24, 0x05	; 5
    1a00:	fc 01       	movw	r30, r24
    1a02:	32 96       	adiw	r30, 0x02	; 2
    1a04:	80 81       	ld	r24, Z
    1a06:	82 95       	swap	r24
    1a08:	86 95       	lsr	r24
    1a0a:	87 70       	andi	r24, 0x07	; 7
    1a0c:	82 0f       	add	r24, r18
    1a0e:	8c 93       	st	X, r24
    1a10:	a6 ef       	ldi	r26, 0xF6	; 246
    1a12:	b0 e0       	ldi	r27, 0x00	; 0
    1a14:	ce 01       	movw	r24, r28
    1a16:	05 96       	adiw	r24, 0x05	; 5
    1a18:	fc 01       	movw	r30, r24
    1a1a:	32 96       	adiw	r30, 0x02	; 2
    1a1c:	80 81       	ld	r24, Z
    1a1e:	28 2f       	mov	r18, r24
    1a20:	22 0f       	add	r18, r18
    1a22:	22 0f       	add	r18, r18
    1a24:	22 0f       	add	r18, r18
    1a26:	ce 01       	movw	r24, r28
    1a28:	05 96       	adiw	r24, 0x05	; 5
    1a2a:	fc 01       	movw	r30, r24
    1a2c:	31 96       	adiw	r30, 0x01	; 1
    1a2e:	80 81       	ld	r24, Z
    1a30:	82 95       	swap	r24
    1a32:	86 95       	lsr	r24
    1a34:	87 70       	andi	r24, 0x07	; 7
    1a36:	82 0f       	add	r24, r18
    1a38:	8c 93       	st	X, r24
    1a3a:	a5 ef       	ldi	r26, 0xF5	; 245
    1a3c:	b0 e0       	ldi	r27, 0x00	; 0
    1a3e:	ce 01       	movw	r24, r28
    1a40:	05 96       	adiw	r24, 0x05	; 5
    1a42:	fc 01       	movw	r30, r24
    1a44:	31 96       	adiw	r30, 0x01	; 1
    1a46:	80 81       	ld	r24, Z
    1a48:	98 2f       	mov	r25, r24
    1a4a:	99 0f       	add	r25, r25
    1a4c:	99 0f       	add	r25, r25
    1a4e:	99 0f       	add	r25, r25
    1a50:	fe 01       	movw	r30, r28
    1a52:	35 96       	adiw	r30, 0x05	; 5
    1a54:	80 81       	ld	r24, Z
    1a56:	82 95       	swap	r24
    1a58:	86 95       	lsr	r24
    1a5a:	87 70       	andi	r24, 0x07	; 7
    1a5c:	89 0f       	add	r24, r25
    1a5e:	8c 93       	st	X, r24
    1a60:	a4 ef       	ldi	r26, 0xF4	; 244
    1a62:	b0 e0       	ldi	r27, 0x00	; 0
    1a64:	fe 01       	movw	r30, r28
    1a66:	35 96       	adiw	r30, 0x05	; 5
    1a68:	80 81       	ld	r24, Z
    1a6a:	88 0f       	add	r24, r24
    1a6c:	88 0f       	add	r24, r24
    1a6e:	88 0f       	add	r24, r24
    1a70:	8c 93       	st	X, r24
          Can_set_dlc(cmd->dlc);
    1a72:	af ee       	ldi	r26, 0xEF	; 239
    1a74:	b0 e0       	ldi	r27, 0x00	; 0
    1a76:	ef ee       	ldi	r30, 0xEF	; 239
    1a78:	f0 e0       	ldi	r31, 0x00	; 0
    1a7a:	90 81       	ld	r25, Z
    1a7c:	e9 85       	ldd	r30, Y+9	; 0x09
    1a7e:	fa 85       	ldd	r31, Y+10	; 0x0a
    1a80:	87 81       	ldd	r24, Z+7	; 0x07
    1a82:	89 2b       	or	r24, r25
    1a84:	8c 93       	st	X, r24
          cmd->ctrl.rtr=1; Can_set_rtrmsk(); Can_set_rtr();
    1a86:	e9 85       	ldd	r30, Y+9	; 0x09
    1a88:	fa 85       	ldd	r31, Y+10	; 0x0a
    1a8a:	81 e0       	ldi	r24, 0x01	; 1
    1a8c:	83 87       	std	Z+11, r24	; 0x0b
    1a8e:	a4 ef       	ldi	r26, 0xF4	; 244
    1a90:	b0 e0       	ldi	r27, 0x00	; 0
    1a92:	e4 ef       	ldi	r30, 0xF4	; 244
    1a94:	f0 e0       	ldi	r31, 0x00	; 0
    1a96:	80 81       	ld	r24, Z
    1a98:	84 60       	ori	r24, 0x04	; 4
    1a9a:	8c 93       	st	X, r24
    1a9c:	a0 ef       	ldi	r26, 0xF0	; 240
    1a9e:	b0 e0       	ldi	r27, 0x00	; 0
    1aa0:	e0 ef       	ldi	r30, 0xF0	; 240
    1aa2:	f0 e0       	ldi	r31, 0x00	; 0
    1aa4:	80 81       	ld	r24, Z
    1aa6:	84 60       	ori	r24, 0x04	; 4
    1aa8:	8c 93       	st	X, r24
          Can_set_rplv();
    1aaa:	af ee       	ldi	r26, 0xEF	; 239
    1aac:	b0 e0       	ldi	r27, 0x00	; 0
    1aae:	ef ee       	ldi	r30, 0xEF	; 239
    1ab0:	f0 e0       	ldi	r31, 0x00	; 0
    1ab2:	80 81       	ld	r24, Z
    1ab4:	80 62       	ori	r24, 0x20	; 32
    1ab6:	8c 93       	st	X, r24
          Can_clear_idemsk();
    1ab8:	a4 ef       	ldi	r26, 0xF4	; 244
    1aba:	b0 e0       	ldi	r27, 0x00	; 0
    1abc:	e4 ef       	ldi	r30, 0xF4	; 244
    1abe:	f0 e0       	ldi	r31, 0x00	; 0
    1ac0:	80 81       	ld	r24, Z
    1ac2:	8e 7f       	andi	r24, 0xFE	; 254
    1ac4:	8c 93       	st	X, r24
          Can_config_rx();       
    1ac6:	af ee       	ldi	r26, 0xEF	; 239
    1ac8:	b0 e0       	ldi	r27, 0x00	; 0
    1aca:	ef ee       	ldi	r30, 0xEF	; 239
    1acc:	f0 e0       	ldi	r31, 0x00	; 0
    1ace:	80 81       	ld	r24, Z
    1ad0:	8f 73       	andi	r24, 0x3F	; 63
    1ad2:	8c 93       	st	X, r24
    1ad4:	af ee       	ldi	r26, 0xEF	; 239
    1ad6:	b0 e0       	ldi	r27, 0x00	; 0
    1ad8:	ef ee       	ldi	r30, 0xEF	; 239
    1ada:	f0 e0       	ldi	r31, 0x00	; 0
    1adc:	80 81       	ld	r24, Z
    1ade:	80 68       	ori	r24, 0x80	; 128
    1ae0:	8c 93       	st	X, r24
    1ae2:	30 c1       	rjmp	.+608    	; 0x1d44 <__stack+0xc45>
          break;
        //------------      
        case CMD_REPLY_MASKED:
          if (cmd->ctrl.ide){ Can_set_ext_id(cmd->id.ext);}
    1ae4:	e9 85       	ldd	r30, Y+9	; 0x09
    1ae6:	fa 85       	ldd	r31, Y+10	; 0x0a
    1ae8:	84 85       	ldd	r24, Z+12	; 0x0c
    1aea:	88 23       	and	r24, r24
    1aec:	09 f4       	brne	.+2      	; 0x1af0 <__stack+0x9f1>
    1aee:	57 c0       	rjmp	.+174    	; 0x1b9e <__stack+0xa9f>
    1af0:	a3 ef       	ldi	r26, 0xF3	; 243
    1af2:	b0 e0       	ldi	r27, 0x00	; 0
    1af4:	89 85       	ldd	r24, Y+9	; 0x09
    1af6:	9a 85       	ldd	r25, Y+10	; 0x0a
    1af8:	03 96       	adiw	r24, 0x03	; 3
    1afa:	fc 01       	movw	r30, r24
    1afc:	33 96       	adiw	r30, 0x03	; 3
    1afe:	80 81       	ld	r24, Z
    1b00:	28 2f       	mov	r18, r24
    1b02:	22 0f       	add	r18, r18
    1b04:	22 0f       	add	r18, r18
    1b06:	22 0f       	add	r18, r18
    1b08:	89 85       	ldd	r24, Y+9	; 0x09
    1b0a:	9a 85       	ldd	r25, Y+10	; 0x0a
    1b0c:	03 96       	adiw	r24, 0x03	; 3
    1b0e:	fc 01       	movw	r30, r24
    1b10:	32 96       	adiw	r30, 0x02	; 2
    1b12:	80 81       	ld	r24, Z
    1b14:	82 95       	swap	r24
    1b16:	86 95       	lsr	r24
    1b18:	87 70       	andi	r24, 0x07	; 7
    1b1a:	82 0f       	add	r24, r18
    1b1c:	8c 93       	st	X, r24
    1b1e:	a2 ef       	ldi	r26, 0xF2	; 242
    1b20:	b0 e0       	ldi	r27, 0x00	; 0
    1b22:	89 85       	ldd	r24, Y+9	; 0x09
    1b24:	9a 85       	ldd	r25, Y+10	; 0x0a
    1b26:	03 96       	adiw	r24, 0x03	; 3
    1b28:	fc 01       	movw	r30, r24
    1b2a:	32 96       	adiw	r30, 0x02	; 2
    1b2c:	80 81       	ld	r24, Z
    1b2e:	28 2f       	mov	r18, r24
    1b30:	22 0f       	add	r18, r18
    1b32:	22 0f       	add	r18, r18
    1b34:	22 0f       	add	r18, r18
    1b36:	89 85       	ldd	r24, Y+9	; 0x09
    1b38:	9a 85       	ldd	r25, Y+10	; 0x0a
    1b3a:	03 96       	adiw	r24, 0x03	; 3
    1b3c:	fc 01       	movw	r30, r24
    1b3e:	31 96       	adiw	r30, 0x01	; 1
    1b40:	80 81       	ld	r24, Z
    1b42:	82 95       	swap	r24
    1b44:	86 95       	lsr	r24
    1b46:	87 70       	andi	r24, 0x07	; 7
    1b48:	82 0f       	add	r24, r18
    1b4a:	8c 93       	st	X, r24
    1b4c:	a1 ef       	ldi	r26, 0xF1	; 241
    1b4e:	b0 e0       	ldi	r27, 0x00	; 0
    1b50:	89 85       	ldd	r24, Y+9	; 0x09
    1b52:	9a 85       	ldd	r25, Y+10	; 0x0a
    1b54:	03 96       	adiw	r24, 0x03	; 3
    1b56:	fc 01       	movw	r30, r24
    1b58:	31 96       	adiw	r30, 0x01	; 1
    1b5a:	80 81       	ld	r24, Z
    1b5c:	28 2f       	mov	r18, r24
    1b5e:	22 0f       	add	r18, r18
    1b60:	22 0f       	add	r18, r18
    1b62:	22 0f       	add	r18, r18
    1b64:	89 85       	ldd	r24, Y+9	; 0x09
    1b66:	9a 85       	ldd	r25, Y+10	; 0x0a
    1b68:	03 96       	adiw	r24, 0x03	; 3
    1b6a:	fc 01       	movw	r30, r24
    1b6c:	80 81       	ld	r24, Z
    1b6e:	82 95       	swap	r24
    1b70:	86 95       	lsr	r24
    1b72:	87 70       	andi	r24, 0x07	; 7
    1b74:	82 0f       	add	r24, r18
    1b76:	8c 93       	st	X, r24
    1b78:	a0 ef       	ldi	r26, 0xF0	; 240
    1b7a:	b0 e0       	ldi	r27, 0x00	; 0
    1b7c:	89 85       	ldd	r24, Y+9	; 0x09
    1b7e:	9a 85       	ldd	r25, Y+10	; 0x0a
    1b80:	03 96       	adiw	r24, 0x03	; 3
    1b82:	fc 01       	movw	r30, r24
    1b84:	80 81       	ld	r24, Z
    1b86:	88 0f       	add	r24, r24
    1b88:	88 0f       	add	r24, r24
    1b8a:	88 0f       	add	r24, r24
    1b8c:	8c 93       	st	X, r24
    1b8e:	af ee       	ldi	r26, 0xEF	; 239
    1b90:	b0 e0       	ldi	r27, 0x00	; 0
    1b92:	ef ee       	ldi	r30, 0xEF	; 239
    1b94:	f0 e0       	ldi	r31, 0x00	; 0
    1b96:	80 81       	ld	r24, Z
    1b98:	80 61       	ori	r24, 0x10	; 16
    1b9a:	8c 93       	st	X, r24
    1b9c:	28 c0       	rjmp	.+80     	; 0x1bee <__stack+0xaef>
          else              { Can_set_std_id(cmd->id.std);}
    1b9e:	a3 ef       	ldi	r26, 0xF3	; 243
    1ba0:	b0 e0       	ldi	r27, 0x00	; 0
    1ba2:	89 85       	ldd	r24, Y+9	; 0x09
    1ba4:	9a 85       	ldd	r25, Y+10	; 0x0a
    1ba6:	03 96       	adiw	r24, 0x03	; 3
    1ba8:	fc 01       	movw	r30, r24
    1baa:	31 96       	adiw	r30, 0x01	; 1
    1bac:	80 81       	ld	r24, Z
    1bae:	28 2f       	mov	r18, r24
    1bb0:	22 95       	swap	r18
    1bb2:	22 0f       	add	r18, r18
    1bb4:	20 7e       	andi	r18, 0xE0	; 224
    1bb6:	89 85       	ldd	r24, Y+9	; 0x09
    1bb8:	9a 85       	ldd	r25, Y+10	; 0x0a
    1bba:	03 96       	adiw	r24, 0x03	; 3
    1bbc:	fc 01       	movw	r30, r24
    1bbe:	80 81       	ld	r24, Z
    1bc0:	86 95       	lsr	r24
    1bc2:	86 95       	lsr	r24
    1bc4:	86 95       	lsr	r24
    1bc6:	82 0f       	add	r24, r18
    1bc8:	8c 93       	st	X, r24
    1bca:	a2 ef       	ldi	r26, 0xF2	; 242
    1bcc:	b0 e0       	ldi	r27, 0x00	; 0
    1bce:	89 85       	ldd	r24, Y+9	; 0x09
    1bd0:	9a 85       	ldd	r25, Y+10	; 0x0a
    1bd2:	03 96       	adiw	r24, 0x03	; 3
    1bd4:	fc 01       	movw	r30, r24
    1bd6:	80 81       	ld	r24, Z
    1bd8:	82 95       	swap	r24
    1bda:	88 0f       	add	r24, r24
    1bdc:	80 7e       	andi	r24, 0xE0	; 224
    1bde:	8c 93       	st	X, r24
    1be0:	af ee       	ldi	r26, 0xEF	; 239
    1be2:	b0 e0       	ldi	r27, 0x00	; 0
    1be4:	ef ee       	ldi	r30, 0xEF	; 239
    1be6:	f0 e0       	ldi	r31, 0x00	; 0
    1be8:	80 81       	ld	r24, Z
    1bea:	8f 7e       	andi	r24, 0xEF	; 239
    1bec:	8c 93       	st	X, r24
          for (cpt=0;cpt<cmd->dlc;cpt++) CANMSG = *(cmd->pt_data + cpt);
    1bee:	1b 82       	std	Y+3, r1	; 0x03
    1bf0:	11 c0       	rjmp	.+34     	; 0x1c14 <__stack+0xb15>
    1bf2:	aa ef       	ldi	r26, 0xFA	; 250
    1bf4:	b0 e0       	ldi	r27, 0x00	; 0
    1bf6:	e9 85       	ldd	r30, Y+9	; 0x09
    1bf8:	fa 85       	ldd	r31, Y+10	; 0x0a
    1bfa:	20 85       	ldd	r18, Z+8	; 0x08
    1bfc:	31 85       	ldd	r19, Z+9	; 0x09
    1bfe:	8b 81       	ldd	r24, Y+3	; 0x03
    1c00:	88 2f       	mov	r24, r24
    1c02:	90 e0       	ldi	r25, 0x00	; 0
    1c04:	f9 01       	movw	r30, r18
    1c06:	e8 0f       	add	r30, r24
    1c08:	f9 1f       	adc	r31, r25
    1c0a:	80 81       	ld	r24, Z
    1c0c:	8c 93       	st	X, r24
    1c0e:	8b 81       	ldd	r24, Y+3	; 0x03
    1c10:	8f 5f       	subi	r24, 0xFF	; 255
    1c12:	8b 83       	std	Y+3, r24	; 0x03
    1c14:	e9 85       	ldd	r30, Y+9	; 0x09
    1c16:	fa 85       	ldd	r31, Y+10	; 0x0a
    1c18:	97 81       	ldd	r25, Z+7	; 0x07
    1c1a:	8b 81       	ldd	r24, Y+3	; 0x03
    1c1c:	89 17       	cp	r24, r25
    1c1e:	48 f3       	brcs	.-46     	; 0x1bf2 <__stack+0xaf3>
          u32_temp=~0; Can_set_ext_msk(u32_temp);
    1c20:	8f ef       	ldi	r24, 0xFF	; 255
    1c22:	9f ef       	ldi	r25, 0xFF	; 255
    1c24:	af ef       	ldi	r26, 0xFF	; 255
    1c26:	bf ef       	ldi	r27, 0xFF	; 255
    1c28:	8d 83       	std	Y+5, r24	; 0x05
    1c2a:	9e 83       	std	Y+6, r25	; 0x06
    1c2c:	af 83       	std	Y+7, r26	; 0x07
    1c2e:	b8 87       	std	Y+8, r27	; 0x08
    1c30:	a7 ef       	ldi	r26, 0xF7	; 247
    1c32:	b0 e0       	ldi	r27, 0x00	; 0
    1c34:	ce 01       	movw	r24, r28
    1c36:	05 96       	adiw	r24, 0x05	; 5
    1c38:	fc 01       	movw	r30, r24
    1c3a:	33 96       	adiw	r30, 0x03	; 3
    1c3c:	80 81       	ld	r24, Z
    1c3e:	28 2f       	mov	r18, r24
    1c40:	22 0f       	add	r18, r18
    1c42:	22 0f       	add	r18, r18
    1c44:	22 0f       	add	r18, r18
    1c46:	ce 01       	movw	r24, r28
    1c48:	05 96       	adiw	r24, 0x05	; 5
    1c4a:	fc 01       	movw	r30, r24
    1c4c:	32 96       	adiw	r30, 0x02	; 2
    1c4e:	80 81       	ld	r24, Z
    1c50:	82 95       	swap	r24
    1c52:	86 95       	lsr	r24
    1c54:	87 70       	andi	r24, 0x07	; 7
    1c56:	82 0f       	add	r24, r18
    1c58:	8c 93       	st	X, r24
    1c5a:	a6 ef       	ldi	r26, 0xF6	; 246
    1c5c:	b0 e0       	ldi	r27, 0x00	; 0
    1c5e:	ce 01       	movw	r24, r28
    1c60:	05 96       	adiw	r24, 0x05	; 5
    1c62:	fc 01       	movw	r30, r24
    1c64:	32 96       	adiw	r30, 0x02	; 2
    1c66:	80 81       	ld	r24, Z
    1c68:	28 2f       	mov	r18, r24
    1c6a:	22 0f       	add	r18, r18
    1c6c:	22 0f       	add	r18, r18
    1c6e:	22 0f       	add	r18, r18
    1c70:	ce 01       	movw	r24, r28
    1c72:	05 96       	adiw	r24, 0x05	; 5
    1c74:	fc 01       	movw	r30, r24
    1c76:	31 96       	adiw	r30, 0x01	; 1
    1c78:	80 81       	ld	r24, Z
    1c7a:	82 95       	swap	r24
    1c7c:	86 95       	lsr	r24
    1c7e:	87 70       	andi	r24, 0x07	; 7
    1c80:	82 0f       	add	r24, r18
    1c82:	8c 93       	st	X, r24
    1c84:	a5 ef       	ldi	r26, 0xF5	; 245
    1c86:	b0 e0       	ldi	r27, 0x00	; 0
    1c88:	ce 01       	movw	r24, r28
    1c8a:	05 96       	adiw	r24, 0x05	; 5
    1c8c:	fc 01       	movw	r30, r24
    1c8e:	31 96       	adiw	r30, 0x01	; 1
    1c90:	80 81       	ld	r24, Z
    1c92:	98 2f       	mov	r25, r24
    1c94:	99 0f       	add	r25, r25
    1c96:	99 0f       	add	r25, r25
    1c98:	99 0f       	add	r25, r25
    1c9a:	fe 01       	movw	r30, r28
    1c9c:	35 96       	adiw	r30, 0x05	; 5
    1c9e:	80 81       	ld	r24, Z
    1ca0:	82 95       	swap	r24
    1ca2:	86 95       	lsr	r24
    1ca4:	87 70       	andi	r24, 0x07	; 7
    1ca6:	89 0f       	add	r24, r25
    1ca8:	8c 93       	st	X, r24
    1caa:	a4 ef       	ldi	r26, 0xF4	; 244
    1cac:	b0 e0       	ldi	r27, 0x00	; 0
    1cae:	fe 01       	movw	r30, r28
    1cb0:	35 96       	adiw	r30, 0x05	; 5
    1cb2:	80 81       	ld	r24, Z
    1cb4:	88 0f       	add	r24, r24
    1cb6:	88 0f       	add	r24, r24
    1cb8:	88 0f       	add	r24, r24
    1cba:	8c 93       	st	X, r24
          Can_set_dlc(cmd->dlc);
    1cbc:	af ee       	ldi	r26, 0xEF	; 239
    1cbe:	b0 e0       	ldi	r27, 0x00	; 0
    1cc0:	ef ee       	ldi	r30, 0xEF	; 239
    1cc2:	f0 e0       	ldi	r31, 0x00	; 0
    1cc4:	90 81       	ld	r25, Z
    1cc6:	e9 85       	ldd	r30, Y+9	; 0x09
    1cc8:	fa 85       	ldd	r31, Y+10	; 0x0a
    1cca:	87 81       	ldd	r24, Z+7	; 0x07
    1ccc:	89 2b       	or	r24, r25
    1cce:	8c 93       	st	X, r24
          cmd->ctrl.rtr=1; Can_set_rtrmsk(); Can_set_rtr();
    1cd0:	e9 85       	ldd	r30, Y+9	; 0x09
    1cd2:	fa 85       	ldd	r31, Y+10	; 0x0a
    1cd4:	81 e0       	ldi	r24, 0x01	; 1
    1cd6:	83 87       	std	Z+11, r24	; 0x0b
    1cd8:	a4 ef       	ldi	r26, 0xF4	; 244
    1cda:	b0 e0       	ldi	r27, 0x00	; 0
    1cdc:	e4 ef       	ldi	r30, 0xF4	; 244
    1cde:	f0 e0       	ldi	r31, 0x00	; 0
    1ce0:	80 81       	ld	r24, Z
    1ce2:	84 60       	ori	r24, 0x04	; 4
    1ce4:	8c 93       	st	X, r24
    1ce6:	a0 ef       	ldi	r26, 0xF0	; 240
    1ce8:	b0 e0       	ldi	r27, 0x00	; 0
    1cea:	e0 ef       	ldi	r30, 0xF0	; 240
    1cec:	f0 e0       	ldi	r31, 0x00	; 0
    1cee:	80 81       	ld	r24, Z
    1cf0:	84 60       	ori	r24, 0x04	; 4
    1cf2:	8c 93       	st	X, r24
          Can_set_rplv();
    1cf4:	af ee       	ldi	r26, 0xEF	; 239
    1cf6:	b0 e0       	ldi	r27, 0x00	; 0
    1cf8:	ef ee       	ldi	r30, 0xEF	; 239
    1cfa:	f0 e0       	ldi	r31, 0x00	; 0
    1cfc:	80 81       	ld	r24, Z
    1cfe:	80 62       	ori	r24, 0x20	; 32
    1d00:	8c 93       	st	X, r24
          Can_set_idemsk();
    1d02:	a4 ef       	ldi	r26, 0xF4	; 244
    1d04:	b0 e0       	ldi	r27, 0x00	; 0
    1d06:	e4 ef       	ldi	r30, 0xF4	; 244
    1d08:	f0 e0       	ldi	r31, 0x00	; 0
    1d0a:	80 81       	ld	r24, Z
    1d0c:	81 60       	ori	r24, 0x01	; 1
    1d0e:	8c 93       	st	X, r24
          Can_config_rx();       
    1d10:	af ee       	ldi	r26, 0xEF	; 239
    1d12:	b0 e0       	ldi	r27, 0x00	; 0
    1d14:	ef ee       	ldi	r30, 0xEF	; 239
    1d16:	f0 e0       	ldi	r31, 0x00	; 0
    1d18:	80 81       	ld	r24, Z
    1d1a:	8f 73       	andi	r24, 0x3F	; 63
    1d1c:	8c 93       	st	X, r24
    1d1e:	af ee       	ldi	r26, 0xEF	; 239
    1d20:	b0 e0       	ldi	r27, 0x00	; 0
    1d22:	ef ee       	ldi	r30, 0xEF	; 239
    1d24:	f0 e0       	ldi	r31, 0x00	; 0
    1d26:	80 81       	ld	r24, Z
    1d28:	80 68       	ori	r24, 0x80	; 128
    1d2a:	8c 93       	st	X, r24
    1d2c:	0b c0       	rjmp	.+22     	; 0x1d44 <__stack+0xc45>
          break;
        //------------      
        default:
          // case CMD_NONE or not implemented command
          cmd->status = STATUS_CLEARED; 
    1d2e:	e9 85       	ldd	r30, Y+9	; 0x09
    1d30:	fa 85       	ldd	r31, Y+10	; 0x0a
    1d32:	12 86       	std	Z+10, r1	; 0x0a
    1d34:	07 c0       	rjmp	.+14     	; 0x1d44 <__stack+0xc45>
        //------------      
      } // switch (cmd ...
    } // if (mob_handle ...
    else
    {
      cmd->status = MOB_NOT_REACHED;
    1d36:	e9 85       	ldd	r30, Y+9	; 0x09
    1d38:	fa 85       	ldd	r31, Y+10	; 0x0a
    1d3a:	8f e1       	ldi	r24, 0x1F	; 31
    1d3c:	82 87       	std	Z+10, r24	; 0x0a
      return CAN_CMD_REFUSED;
    1d3e:	9f ef       	ldi	r25, 0xFF	; 255
    1d40:	9b 87       	std	Y+11, r25	; 0x0b
    1d42:	01 c0       	rjmp	.+2      	; 0x1d46 <__stack+0xc47>
    }
  } // else of no CMD_ABORT
  return CAN_CMD_ACCEPTED;
    1d44:	1b 86       	std	Y+11, r1	; 0x0b
    1d46:	8b 85       	ldd	r24, Y+11	; 0x0b
}
    1d48:	2d 96       	adiw	r28, 0x0d	; 13
    1d4a:	0f b6       	in	r0, 0x3f	; 63
    1d4c:	f8 94       	cli
    1d4e:	de bf       	out	0x3e, r29	; 62
    1d50:	0f be       	out	0x3f, r0	; 63
    1d52:	cd bf       	out	0x3d, r28	; 61
    1d54:	cf 91       	pop	r28
    1d56:	df 91       	pop	r29
    1d58:	08 95       	ret

00001d5a <can_get_status>:
//!         CAN_STATUS_ERROR         - Error in configuration or in the
//!                                    CAN communication
//!
//------------------------------------------------------------------------------
U8 can_get_status (st_cmd_t* cmd)
{
    1d5a:	df 93       	push	r29
    1d5c:	cf 93       	push	r28
    1d5e:	cd b7       	in	r28, 0x3d	; 61
    1d60:	de b7       	in	r29, 0x3e	; 62
    1d62:	27 97       	sbiw	r28, 0x07	; 7
    1d64:	0f b6       	in	r0, 0x3f	; 63
    1d66:	f8 94       	cli
    1d68:	de bf       	out	0x3e, r29	; 62
    1d6a:	0f be       	out	0x3f, r0	; 63
    1d6c:	cd bf       	out	0x3d, r28	; 61
    1d6e:	9c 83       	std	Y+4, r25	; 0x04
    1d70:	8b 83       	std	Y+3, r24	; 0x03
    U8 a_status, rtn_val;
     
    a_status = cmd->status;
    1d72:	eb 81       	ldd	r30, Y+3	; 0x03
    1d74:	fc 81       	ldd	r31, Y+4	; 0x04
    1d76:	82 85       	ldd	r24, Z+10	; 0x0a
    1d78:	8a 83       	std	Y+2, r24	; 0x02
    if ((a_status==STATUS_CLEARED)||(a_status==MOB_NOT_REACHED)||(a_status==MOB_DISABLE))
    1d7a:	8a 81       	ldd	r24, Y+2	; 0x02
    1d7c:	88 23       	and	r24, r24
    1d7e:	31 f0       	breq	.+12     	; 0x1d8c <can_get_status+0x32>
    1d80:	8a 81       	ldd	r24, Y+2	; 0x02
    1d82:	8f 31       	cpi	r24, 0x1F	; 31
    1d84:	19 f0       	breq	.+6      	; 0x1d8c <can_get_status+0x32>
    1d86:	8a 81       	ldd	r24, Y+2	; 0x02
    1d88:	8f 3f       	cpi	r24, 0xFF	; 255
    1d8a:	19 f4       	brne	.+6      	; 0x1d92 <can_get_status+0x38>
    {
        return CAN_STATUS_ERROR;
    1d8c:	22 e0       	ldi	r18, 0x02	; 2
    1d8e:	2f 83       	std	Y+7, r18	; 0x07
    1d90:	fb c0       	rjmp	.+502    	; 0x1f88 <can_get_status+0x22e>
    }

    Can_set_mob(cmd->handle);
    1d92:	ad ee       	ldi	r26, 0xED	; 237
    1d94:	b0 e0       	ldi	r27, 0x00	; 0
    1d96:	eb 81       	ldd	r30, Y+3	; 0x03
    1d98:	fc 81       	ldd	r31, Y+4	; 0x04
    1d9a:	80 81       	ld	r24, Z
    1d9c:	82 95       	swap	r24
    1d9e:	80 7f       	andi	r24, 0xF0	; 240
    1da0:	8c 93       	st	X, r24
    a_status = can_get_mob_status();
    1da2:	0e 94 74 02 	call	0x4e8	; 0x4e8 <can_get_mob_status>
    1da6:	8a 83       	std	Y+2, r24	; 0x02
    
    switch (a_status)
    1da8:	8a 81       	ldd	r24, Y+2	; 0x02
    1daa:	28 2f       	mov	r18, r24
    1dac:	30 e0       	ldi	r19, 0x00	; 0
    1dae:	3e 83       	std	Y+6, r19	; 0x06
    1db0:	2d 83       	std	Y+5, r18	; 0x05
    1db2:	8d 81       	ldd	r24, Y+5	; 0x05
    1db4:	9e 81       	ldd	r25, Y+6	; 0x06
    1db6:	80 32       	cpi	r24, 0x20	; 32
    1db8:	91 05       	cpc	r25, r1
    1dba:	c9 f0       	breq	.+50     	; 0x1dee <can_get_status+0x94>
    1dbc:	2d 81       	ldd	r18, Y+5	; 0x05
    1dbe:	3e 81       	ldd	r19, Y+6	; 0x06
    1dc0:	21 32       	cpi	r18, 0x21	; 33
    1dc2:	31 05       	cpc	r19, r1
    1dc4:	2c f4       	brge	.+10     	; 0x1dd0 <can_get_status+0x76>
    1dc6:	8d 81       	ldd	r24, Y+5	; 0x05
    1dc8:	9e 81       	ldd	r25, Y+6	; 0x06
    1dca:	00 97       	sbiw	r24, 0x00	; 0
    1dcc:	69 f0       	breq	.+26     	; 0x1de8 <can_get_status+0x8e>
    1dce:	ca c0       	rjmp	.+404    	; 0x1f64 <can_get_status+0x20a>
    1dd0:	2d 81       	ldd	r18, Y+5	; 0x05
    1dd2:	3e 81       	ldd	r19, Y+6	; 0x06
    1dd4:	20 34       	cpi	r18, 0x40	; 64
    1dd6:	31 05       	cpc	r19, r1
    1dd8:	09 f4       	brne	.+2      	; 0x1ddc <can_get_status+0x82>
    1dda:	b4 c0       	rjmp	.+360    	; 0x1f44 <can_get_status+0x1ea>
    1ddc:	8d 81       	ldd	r24, Y+5	; 0x05
    1dde:	9e 81       	ldd	r25, Y+6	; 0x06
    1de0:	80 3a       	cpi	r24, 0xA0	; 160
    1de2:	91 05       	cpc	r25, r1
    1de4:	21 f0       	breq	.+8      	; 0x1dee <can_get_status+0x94>
    1de6:	be c0       	rjmp	.+380    	; 0x1f64 <can_get_status+0x20a>
    {
        case MOB_NOT_COMPLETED:
            // cmd->status not updated
            rtn_val = CAN_STATUS_NOT_COMPLETED;
    1de8:	81 e0       	ldi	r24, 0x01	; 1
    1dea:	89 83       	std	Y+1, r24	; 0x01
    1dec:	cb c0       	rjmp	.+406    	; 0x1f84 <can_get_status+0x22a>
            break;
        //---------------      
        case MOB_RX_COMPLETED:     
        case MOB_RX_COMPLETED_DLCW:
            cmd->dlc = Can_get_dlc();
    1dee:	ef ee       	ldi	r30, 0xEF	; 239
    1df0:	f0 e0       	ldi	r31, 0x00	; 0
    1df2:	80 81       	ld	r24, Z
    1df4:	8f 70       	andi	r24, 0x0F	; 15
    1df6:	eb 81       	ldd	r30, Y+3	; 0x03
    1df8:	fc 81       	ldd	r31, Y+4	; 0x04
    1dfa:	87 83       	std	Z+7, r24	; 0x07
            can_get_data(cmd->pt_data);
    1dfc:	eb 81       	ldd	r30, Y+3	; 0x03
    1dfe:	fc 81       	ldd	r31, Y+4	; 0x04
    1e00:	80 85       	ldd	r24, Z+8	; 0x08
    1e02:	91 85       	ldd	r25, Z+9	; 0x09
    1e04:	0e 94 aa 02 	call	0x554	; 0x554 <can_get_data>
            cmd->ctrl.rtr = Can_get_rtr();
    1e08:	e0 ef       	ldi	r30, 0xF0	; 240
    1e0a:	f0 e0       	ldi	r31, 0x00	; 0
    1e0c:	80 81       	ld	r24, Z
    1e0e:	88 2f       	mov	r24, r24
    1e10:	90 e0       	ldi	r25, 0x00	; 0
    1e12:	84 70       	andi	r24, 0x04	; 4
    1e14:	90 70       	andi	r25, 0x00	; 0
    1e16:	95 95       	asr	r25
    1e18:	87 95       	ror	r24
    1e1a:	95 95       	asr	r25
    1e1c:	87 95       	ror	r24
    1e1e:	eb 81       	ldd	r30, Y+3	; 0x03
    1e20:	fc 81       	ldd	r31, Y+4	; 0x04
    1e22:	83 87       	std	Z+11, r24	; 0x0b
            if (Can_get_ide()) // if extended frame
    1e24:	ef ee       	ldi	r30, 0xEF	; 239
    1e26:	f0 e0       	ldi	r31, 0x00	; 0
    1e28:	80 81       	ld	r24, Z
    1e2a:	88 2f       	mov	r24, r24
    1e2c:	90 e0       	ldi	r25, 0x00	; 0
    1e2e:	80 71       	andi	r24, 0x10	; 16
    1e30:	90 70       	andi	r25, 0x00	; 0
    1e32:	95 95       	asr	r25
    1e34:	87 95       	ror	r24
    1e36:	95 95       	asr	r25
    1e38:	87 95       	ror	r24
    1e3a:	95 95       	asr	r25
    1e3c:	87 95       	ror	r24
    1e3e:	95 95       	asr	r25
    1e40:	87 95       	ror	r24
    1e42:	00 97       	sbiw	r24, 0x00	; 0
    1e44:	09 f4       	brne	.+2      	; 0x1e48 <can_get_status+0xee>
    1e46:	4c c0       	rjmp	.+152    	; 0x1ee0 <can_get_status+0x186>
            {
                cmd->ctrl.ide = 1; // extended frame
    1e48:	eb 81       	ldd	r30, Y+3	; 0x03
    1e4a:	fc 81       	ldd	r31, Y+4	; 0x04
    1e4c:	81 e0       	ldi	r24, 0x01	; 1
    1e4e:	84 87       	std	Z+12, r24	; 0x0c
                Can_get_ext_id(cmd->id.ext);
    1e50:	8b 81       	ldd	r24, Y+3	; 0x03
    1e52:	9c 81       	ldd	r25, Y+4	; 0x04
    1e54:	03 96       	adiw	r24, 0x03	; 3
    1e56:	dc 01       	movw	r26, r24
    1e58:	13 96       	adiw	r26, 0x03	; 3
    1e5a:	e3 ef       	ldi	r30, 0xF3	; 243
    1e5c:	f0 e0       	ldi	r31, 0x00	; 0
    1e5e:	80 81       	ld	r24, Z
    1e60:	86 95       	lsr	r24
    1e62:	86 95       	lsr	r24
    1e64:	86 95       	lsr	r24
    1e66:	8c 93       	st	X, r24
    1e68:	8b 81       	ldd	r24, Y+3	; 0x03
    1e6a:	9c 81       	ldd	r25, Y+4	; 0x04
    1e6c:	03 96       	adiw	r24, 0x03	; 3
    1e6e:	dc 01       	movw	r26, r24
    1e70:	12 96       	adiw	r26, 0x02	; 2
    1e72:	e2 ef       	ldi	r30, 0xF2	; 242
    1e74:	f0 e0       	ldi	r31, 0x00	; 0
    1e76:	80 81       	ld	r24, Z
    1e78:	98 2f       	mov	r25, r24
    1e7a:	96 95       	lsr	r25
    1e7c:	96 95       	lsr	r25
    1e7e:	96 95       	lsr	r25
    1e80:	e3 ef       	ldi	r30, 0xF3	; 243
    1e82:	f0 e0       	ldi	r31, 0x00	; 0
    1e84:	80 81       	ld	r24, Z
    1e86:	82 95       	swap	r24
    1e88:	88 0f       	add	r24, r24
    1e8a:	80 7e       	andi	r24, 0xE0	; 224
    1e8c:	89 0f       	add	r24, r25
    1e8e:	8c 93       	st	X, r24
    1e90:	8b 81       	ldd	r24, Y+3	; 0x03
    1e92:	9c 81       	ldd	r25, Y+4	; 0x04
    1e94:	03 96       	adiw	r24, 0x03	; 3
    1e96:	dc 01       	movw	r26, r24
    1e98:	11 96       	adiw	r26, 0x01	; 1
    1e9a:	e1 ef       	ldi	r30, 0xF1	; 241
    1e9c:	f0 e0       	ldi	r31, 0x00	; 0
    1e9e:	80 81       	ld	r24, Z
    1ea0:	98 2f       	mov	r25, r24
    1ea2:	96 95       	lsr	r25
    1ea4:	96 95       	lsr	r25
    1ea6:	96 95       	lsr	r25
    1ea8:	e2 ef       	ldi	r30, 0xF2	; 242
    1eaa:	f0 e0       	ldi	r31, 0x00	; 0
    1eac:	80 81       	ld	r24, Z
    1eae:	82 95       	swap	r24
    1eb0:	88 0f       	add	r24, r24
    1eb2:	80 7e       	andi	r24, 0xE0	; 224
    1eb4:	89 0f       	add	r24, r25
    1eb6:	8c 93       	st	X, r24
    1eb8:	8b 81       	ldd	r24, Y+3	; 0x03
    1eba:	9c 81       	ldd	r25, Y+4	; 0x04
    1ebc:	03 96       	adiw	r24, 0x03	; 3
    1ebe:	dc 01       	movw	r26, r24
    1ec0:	e0 ef       	ldi	r30, 0xF0	; 240
    1ec2:	f0 e0       	ldi	r31, 0x00	; 0
    1ec4:	80 81       	ld	r24, Z
    1ec6:	98 2f       	mov	r25, r24
    1ec8:	96 95       	lsr	r25
    1eca:	96 95       	lsr	r25
    1ecc:	96 95       	lsr	r25
    1ece:	e1 ef       	ldi	r30, 0xF1	; 241
    1ed0:	f0 e0       	ldi	r31, 0x00	; 0
    1ed2:	80 81       	ld	r24, Z
    1ed4:	82 95       	swap	r24
    1ed6:	88 0f       	add	r24, r24
    1ed8:	80 7e       	andi	r24, 0xE0	; 224
    1eda:	89 0f       	add	r24, r25
    1edc:	8c 93       	st	X, r24
    1ede:	22 c0       	rjmp	.+68     	; 0x1f24 <can_get_status+0x1ca>
            }
            else // else standard frame
                {
                    cmd->ctrl.ide = 0;
    1ee0:	eb 81       	ldd	r30, Y+3	; 0x03
    1ee2:	fc 81       	ldd	r31, Y+4	; 0x04
    1ee4:	14 86       	std	Z+12, r1	; 0x0c
                    Can_get_std_id(cmd->id.std);
    1ee6:	8b 81       	ldd	r24, Y+3	; 0x03
    1ee8:	9c 81       	ldd	r25, Y+4	; 0x04
    1eea:	03 96       	adiw	r24, 0x03	; 3
    1eec:	dc 01       	movw	r26, r24
    1eee:	11 96       	adiw	r26, 0x01	; 1
    1ef0:	e3 ef       	ldi	r30, 0xF3	; 243
    1ef2:	f0 e0       	ldi	r31, 0x00	; 0
    1ef4:	80 81       	ld	r24, Z
    1ef6:	82 95       	swap	r24
    1ef8:	86 95       	lsr	r24
    1efa:	87 70       	andi	r24, 0x07	; 7
    1efc:	8c 93       	st	X, r24
    1efe:	8b 81       	ldd	r24, Y+3	; 0x03
    1f00:	9c 81       	ldd	r25, Y+4	; 0x04
    1f02:	03 96       	adiw	r24, 0x03	; 3
    1f04:	dc 01       	movw	r26, r24
    1f06:	e2 ef       	ldi	r30, 0xF2	; 242
    1f08:	f0 e0       	ldi	r31, 0x00	; 0
    1f0a:	80 81       	ld	r24, Z
    1f0c:	98 2f       	mov	r25, r24
    1f0e:	92 95       	swap	r25
    1f10:	96 95       	lsr	r25
    1f12:	97 70       	andi	r25, 0x07	; 7
    1f14:	e3 ef       	ldi	r30, 0xF3	; 243
    1f16:	f0 e0       	ldi	r31, 0x00	; 0
    1f18:	80 81       	ld	r24, Z
    1f1a:	88 0f       	add	r24, r24
    1f1c:	88 0f       	add	r24, r24
    1f1e:	88 0f       	add	r24, r24
    1f20:	89 0f       	add	r24, r25
    1f22:	8c 93       	st	X, r24
                }
            // Status field of descriptor: 0x20 if Rx completed
            // Status field of descriptor: 0xA0 if Rx completed with DLCWarning    
            cmd->status = a_status;
    1f24:	eb 81       	ldd	r30, Y+3	; 0x03
    1f26:	fc 81       	ldd	r31, Y+4	; 0x04
    1f28:	8a 81       	ldd	r24, Y+2	; 0x02
    1f2a:	82 87       	std	Z+10, r24	; 0x0a
            Can_mob_abort();        // Freed the MOB
    1f2c:	af ee       	ldi	r26, 0xEF	; 239
    1f2e:	b0 e0       	ldi	r27, 0x00	; 0
    1f30:	ef ee       	ldi	r30, 0xEF	; 239
    1f32:	f0 e0       	ldi	r31, 0x00	; 0
    1f34:	80 81       	ld	r24, Z
    1f36:	8f 73       	andi	r24, 0x3F	; 63
    1f38:	8c 93       	st	X, r24
            Can_clear_status_mob(); //   and reset MOb status
    1f3a:	ee ee       	ldi	r30, 0xEE	; 238
    1f3c:	f0 e0       	ldi	r31, 0x00	; 0
    1f3e:	10 82       	st	Z, r1
            rtn_val = CAN_STATUS_COMPLETED;
    1f40:	19 82       	std	Y+1, r1	; 0x01
    1f42:	20 c0       	rjmp	.+64     	; 0x1f84 <can_get_status+0x22a>
            break;
        //---------------      
        case MOB_TX_COMPLETED:     
            // Status field of descriptor: 0x40 if Tx completed
            cmd->status = a_status;
    1f44:	eb 81       	ldd	r30, Y+3	; 0x03
    1f46:	fc 81       	ldd	r31, Y+4	; 0x04
    1f48:	8a 81       	ldd	r24, Y+2	; 0x02
    1f4a:	82 87       	std	Z+10, r24	; 0x0a
            Can_mob_abort();        // Freed the MOB
    1f4c:	af ee       	ldi	r26, 0xEF	; 239
    1f4e:	b0 e0       	ldi	r27, 0x00	; 0
    1f50:	ef ee       	ldi	r30, 0xEF	; 239
    1f52:	f0 e0       	ldi	r31, 0x00	; 0
    1f54:	80 81       	ld	r24, Z
    1f56:	8f 73       	andi	r24, 0x3F	; 63
    1f58:	8c 93       	st	X, r24
            Can_clear_status_mob(); //   and reset MOb status
    1f5a:	ee ee       	ldi	r30, 0xEE	; 238
    1f5c:	f0 e0       	ldi	r31, 0x00	; 0
    1f5e:	10 82       	st	Z, r1
            rtn_val = CAN_STATUS_COMPLETED;
    1f60:	19 82       	std	Y+1, r1	; 0x01
    1f62:	10 c0       	rjmp	.+32     	; 0x1f84 <can_get_status+0x22a>
            break;
        //---------------      
        default:
            // Status field of descriptor: (bin)000b.scfa if MOb error
            cmd->status = a_status;
    1f64:	eb 81       	ldd	r30, Y+3	; 0x03
    1f66:	fc 81       	ldd	r31, Y+4	; 0x04
    1f68:	8a 81       	ldd	r24, Y+2	; 0x02
    1f6a:	82 87       	std	Z+10, r24	; 0x0a
            Can_mob_abort();        // Freed the MOB
    1f6c:	af ee       	ldi	r26, 0xEF	; 239
    1f6e:	b0 e0       	ldi	r27, 0x00	; 0
    1f70:	ef ee       	ldi	r30, 0xEF	; 239
    1f72:	f0 e0       	ldi	r31, 0x00	; 0
    1f74:	80 81       	ld	r24, Z
    1f76:	8f 73       	andi	r24, 0x3F	; 63
    1f78:	8c 93       	st	X, r24
            Can_clear_status_mob(); //   and reset MOb status
    1f7a:	ee ee       	ldi	r30, 0xEE	; 238
    1f7c:	f0 e0       	ldi	r31, 0x00	; 0
    1f7e:	10 82       	st	Z, r1
            rtn_val = CAN_STATUS_ERROR;
    1f80:	82 e0       	ldi	r24, 0x02	; 2
    1f82:	89 83       	std	Y+1, r24	; 0x01
            break;
             
    } // switch (a_status...
 
    return (rtn_val);
    1f84:	99 81       	ldd	r25, Y+1	; 0x01
    1f86:	9f 83       	std	Y+7, r25	; 0x07
    1f88:	8f 81       	ldd	r24, Y+7	; 0x07
}
    1f8a:	27 96       	adiw	r28, 0x07	; 7
    1f8c:	0f b6       	in	r0, 0x3f	; 63
    1f8e:	f8 94       	cli
    1f90:	de bf       	out	0x3e, r29	; 62
    1f92:	0f be       	out	0x3f, r0	; 63
    1f94:	cd bf       	out	0x3d, r28	; 61
    1f96:	cf 91       	pop	r28
    1f98:	df 91       	pop	r29
    1f9a:	08 95       	ret

00001f9c <led_init>:
//!
//! @return  none
//!
//------------------------------------------------------------------------------
void led_init(void)
{
    1f9c:	df 93       	push	r29
    1f9e:	cf 93       	push	r28
    1fa0:	cd b7       	in	r28, 0x3d	; 61
    1fa2:	de b7       	in	r29, 0x3e	; 62
    //-- Set direction
    LED_PORT_DIR = 0xFF;
    1fa4:	e1 e2       	ldi	r30, 0x21	; 33
    1fa6:	f0 e0       	ldi	r31, 0x00	; 0
    1fa8:	8f ef       	ldi	r24, 0xFF	; 255
    1faa:	80 83       	st	Z, r24
    //-- Clear LEDs.
    LED_PORT_OUT = 0x00;    
    1fac:	e2 e2       	ldi	r30, 0x22	; 34
    1fae:	f0 e0       	ldi	r31, 0x00	; 0
    1fb0:	10 82       	st	Z, r1
}
    1fb2:	cf 91       	pop	r28
    1fb4:	df 91       	pop	r29
    1fb6:	08 95       	ret

00001fb8 <write_led>:
//!
//! @return (none)
//!
//------------------------------------------------------------------------------
void write_led(U8 led_display)
{
    1fb8:	df 93       	push	r29
    1fba:	cf 93       	push	r28
    1fbc:	0f 92       	push	r0
    1fbe:	cd b7       	in	r28, 0x3d	; 61
    1fc0:	de b7       	in	r29, 0x3e	; 62
    1fc2:	89 83       	std	Y+1, r24	; 0x01
    LED_PORT_OUT = led_display;
    1fc4:	e2 e2       	ldi	r30, 0x22	; 34
    1fc6:	f0 e0       	ldi	r31, 0x00	; 0
    1fc8:	89 81       	ldd	r24, Y+1	; 0x01
    1fca:	80 83       	st	Z, r24
}
    1fcc:	0f 90       	pop	r0
    1fce:	cf 91       	pop	r28
    1fd0:	df 91       	pop	r29
    1fd2:	08 95       	ret

00001fd4 <swap_nibble_led>:
//!
//! @return  none
//!
//------------------------------------------------------------------------------
void swap_nibble_led(void)
{
    1fd4:	df 93       	push	r29
    1fd6:	cf 93       	push	r28
    1fd8:	cd b7       	in	r28, 0x3d	; 61
    1fda:	de b7       	in	r29, 0x3e	; 62
    LED_PORT_OUT = (LED_PORT_IN << 4) | (LED_PORT_IN >> 4);
    1fdc:	a2 e2       	ldi	r26, 0x22	; 34
    1fde:	b0 e0       	ldi	r27, 0x00	; 0
    1fe0:	e0 e2       	ldi	r30, 0x20	; 32
    1fe2:	f0 e0       	ldi	r31, 0x00	; 0
    1fe4:	80 81       	ld	r24, Z
    1fe6:	88 2f       	mov	r24, r24
    1fe8:	90 e0       	ldi	r25, 0x00	; 0
    1fea:	82 95       	swap	r24
    1fec:	92 95       	swap	r25
    1fee:	90 7f       	andi	r25, 0xF0	; 240
    1ff0:	98 27       	eor	r25, r24
    1ff2:	80 7f       	andi	r24, 0xF0	; 240
    1ff4:	98 27       	eor	r25, r24
    1ff6:	98 2f       	mov	r25, r24
    1ff8:	e0 e2       	ldi	r30, 0x20	; 32
    1ffa:	f0 e0       	ldi	r31, 0x00	; 0
    1ffc:	80 81       	ld	r24, Z
    1ffe:	82 95       	swap	r24
    2000:	8f 70       	andi	r24, 0x0F	; 15
    2002:	89 2b       	or	r24, r25
    2004:	8c 93       	st	X, r24
}
    2006:	cf 91       	pop	r28
    2008:	df 91       	pop	r29
    200a:	08 95       	ret

0000200c <toggle_led>:
//!
//! @return  none
//!
//------------------------------------------------------------------------------
void toggle_led(void)
{
    200c:	df 93       	push	r29
    200e:	cf 93       	push	r28
    2010:	cd b7       	in	r28, 0x3d	; 61
    2012:	de b7       	in	r29, 0x3e	; 62
    LED_PORT_IN = 0xFF;
    2014:	e0 e2       	ldi	r30, 0x20	; 32
    2016:	f0 e0       	ldi	r31, 0x00	; 0
    2018:	8f ef       	ldi	r24, 0xFF	; 255
    201a:	80 83       	st	Z, r24
}
    201c:	cf 91       	pop	r28
    201e:	df 91       	pop	r29
    2020:	08 95       	ret

00002022 <write_led_number>:
//!             FALSE: led_number >= 8 or led_level >=2,
//!             TRUE:  In range
//!
//------------------------------------------------------------------------------
U8 write_led_number(U8 led_number,Bool led_level)
{
    2022:	df 93       	push	r29
    2024:	cf 93       	push	r28
    2026:	00 d0       	rcall	.+0      	; 0x2028 <write_led_number+0x6>
    2028:	0f 92       	push	r0
    202a:	cd b7       	in	r28, 0x3d	; 61
    202c:	de b7       	in	r29, 0x3e	; 62
    202e:	8a 83       	std	Y+2, r24	; 0x02
    2030:	6b 83       	std	Y+3, r22	; 0x03
U8 range_error;
    
    range_error = FALSE;
    2032:	19 82       	std	Y+1, r1	; 0x01
    if (led_number < 8)
    2034:	8a 81       	ldd	r24, Y+2	; 0x02
    2036:	88 30       	cpi	r24, 0x08	; 8
    2038:	88 f5       	brcc	.+98     	; 0x209c <write_led_number+0x7a>
    {
        if (led_level==0)
    203a:	8b 81       	ldd	r24, Y+3	; 0x03
    203c:	88 23       	and	r24, r24
    203e:	b1 f4       	brne	.+44     	; 0x206c <write_led_number+0x4a>
        {
            range_error = TRUE;
    2040:	81 e0       	ldi	r24, 0x01	; 1
    2042:	89 83       	std	Y+1, r24	; 0x01
            LED_PORT_OUT &= ~(1<<led_number);
    2044:	a2 e2       	ldi	r26, 0x22	; 34
    2046:	b0 e0       	ldi	r27, 0x00	; 0
    2048:	e2 e2       	ldi	r30, 0x22	; 34
    204a:	f0 e0       	ldi	r31, 0x00	; 0
    204c:	80 81       	ld	r24, Z
    204e:	48 2f       	mov	r20, r24
    2050:	8a 81       	ldd	r24, Y+2	; 0x02
    2052:	28 2f       	mov	r18, r24
    2054:	30 e0       	ldi	r19, 0x00	; 0
    2056:	81 e0       	ldi	r24, 0x01	; 1
    2058:	90 e0       	ldi	r25, 0x00	; 0
    205a:	02 2e       	mov	r0, r18
    205c:	02 c0       	rjmp	.+4      	; 0x2062 <write_led_number+0x40>
    205e:	88 0f       	add	r24, r24
    2060:	99 1f       	adc	r25, r25
    2062:	0a 94       	dec	r0
    2064:	e2 f7       	brpl	.-8      	; 0x205e <write_led_number+0x3c>
    2066:	80 95       	com	r24
    2068:	84 23       	and	r24, r20
    206a:	8c 93       	st	X, r24
        }
        if (led_level==1)
    206c:	8b 81       	ldd	r24, Y+3	; 0x03
    206e:	81 30       	cpi	r24, 0x01	; 1
    2070:	a9 f4       	brne	.+42     	; 0x209c <write_led_number+0x7a>
        {
            range_error = TRUE;
    2072:	81 e0       	ldi	r24, 0x01	; 1
    2074:	89 83       	std	Y+1, r24	; 0x01
            LED_PORT_OUT |= (1<<led_number);
    2076:	a2 e2       	ldi	r26, 0x22	; 34
    2078:	b0 e0       	ldi	r27, 0x00	; 0
    207a:	e2 e2       	ldi	r30, 0x22	; 34
    207c:	f0 e0       	ldi	r31, 0x00	; 0
    207e:	80 81       	ld	r24, Z
    2080:	48 2f       	mov	r20, r24
    2082:	8a 81       	ldd	r24, Y+2	; 0x02
    2084:	28 2f       	mov	r18, r24
    2086:	30 e0       	ldi	r19, 0x00	; 0
    2088:	81 e0       	ldi	r24, 0x01	; 1
    208a:	90 e0       	ldi	r25, 0x00	; 0
    208c:	02 2e       	mov	r0, r18
    208e:	02 c0       	rjmp	.+4      	; 0x2094 <write_led_number+0x72>
    2090:	88 0f       	add	r24, r24
    2092:	99 1f       	adc	r25, r25
    2094:	0a 94       	dec	r0
    2096:	e2 f7       	brpl	.-8      	; 0x2090 <write_led_number+0x6e>
    2098:	84 2b       	or	r24, r20
    209a:	8c 93       	st	X, r24
        }
    }
    return range_error;
    209c:	89 81       	ldd	r24, Y+1	; 0x01
}
    209e:	0f 90       	pop	r0
    20a0:	0f 90       	pop	r0
    20a2:	0f 90       	pop	r0
    20a4:	cf 91       	pop	r28
    20a6:	df 91       	pop	r29
    20a8:	08 95       	ret

000020aa <wait_for>:
//!
//! @return  none 
//!
//------------------------------------------------------------------------------
void wait_for(U16 ms_count)
{
    20aa:	df 93       	push	r29
    20ac:	cf 93       	push	r28
    20ae:	cd b7       	in	r28, 0x3d	; 61
    20b0:	de b7       	in	r29, 0x3e	; 62
    20b2:	2a 97       	sbiw	r28, 0x0a	; 10
    20b4:	0f b6       	in	r0, 0x3f	; 63
    20b6:	f8 94       	cli
    20b8:	de bf       	out	0x3e, r29	; 62
    20ba:	0f be       	out	0x3f, r0	; 63
    20bc:	cd bf       	out	0x3d, r28	; 61
    20be:	9a 87       	std	Y+10, r25	; 0x0a
    20c0:	89 87       	std	Y+9, r24	; 0x09
U32 temp;
U16 i;
U8  j, k;

    if (rtc_running == ON)
    20c2:	80 91 5a 03 	lds	r24, 0x035A
    20c6:	81 30       	cpi	r24, 0x01	; 1
    20c8:	09 f0       	breq	.+2      	; 0x20cc <wait_for+0x22>
    20ca:	45 c0       	rjmp	.+138    	; 0x2156 <wait_for+0xac>
    {
        Disable_interrupt(); temp = rtc_tics; Enable_interrupt();    //-- Get atomic U32 value
    20cc:	f8 94       	cli
    20ce:	80 91 5f 03 	lds	r24, 0x035F
    20d2:	90 91 60 03 	lds	r25, 0x0360
    20d6:	a0 91 61 03 	lds	r26, 0x0361
    20da:	b0 91 62 03 	lds	r27, 0x0362
    20de:	8d 83       	std	Y+5, r24	; 0x05
    20e0:	9e 83       	std	Y+6, r25	; 0x06
    20e2:	af 83       	std	Y+7, r26	; 0x07
    20e4:	b8 87       	std	Y+8, r27	; 0x08
    20e6:	78 94       	sei
        temp += ((U32)(ms_count));
    20e8:	89 85       	ldd	r24, Y+9	; 0x09
    20ea:	9a 85       	ldd	r25, Y+10	; 0x0a
    20ec:	9c 01       	movw	r18, r24
    20ee:	40 e0       	ldi	r20, 0x00	; 0
    20f0:	50 e0       	ldi	r21, 0x00	; 0
    20f2:	8d 81       	ldd	r24, Y+5	; 0x05
    20f4:	9e 81       	ldd	r25, Y+6	; 0x06
    20f6:	af 81       	ldd	r26, Y+7	; 0x07
    20f8:	b8 85       	ldd	r27, Y+8	; 0x08
    20fa:	82 0f       	add	r24, r18
    20fc:	93 1f       	adc	r25, r19
    20fe:	a4 1f       	adc	r26, r20
    2100:	b5 1f       	adc	r27, r21
    2102:	8d 83       	std	Y+5, r24	; 0x05
    2104:	9e 83       	std	Y+6, r25	; 0x06
    2106:	af 83       	std	Y+7, r26	; 0x07
    2108:	b8 87       	std	Y+8, r27	; 0x08
        while (1)
        {
            Disable_interrupt();    //-- Get atomic U32 values
    210a:	f8 94       	cli
            if (rtc_tics == temp) break;                //-- Standart EXIT
    210c:	20 91 5f 03 	lds	r18, 0x035F
    2110:	30 91 60 03 	lds	r19, 0x0360
    2114:	40 91 61 03 	lds	r20, 0x0361
    2118:	50 91 62 03 	lds	r21, 0x0362
    211c:	8d 81       	ldd	r24, Y+5	; 0x05
    211e:	9e 81       	ldd	r25, Y+6	; 0x06
    2120:	af 81       	ldd	r26, Y+7	; 0x07
    2122:	b8 85       	ldd	r27, Y+8	; 0x08
    2124:	28 17       	cp	r18, r24
    2126:	39 07       	cpc	r19, r25
    2128:	4a 07       	cpc	r20, r26
    212a:	5b 07       	cpc	r21, r27
    212c:	99 f1       	breq	.+102    	; 0x2194 <wait_for+0xea>
            if (rtc_tics == ((U32)(ms_count)) ) break;  //-- EXIT if overflow (not right)
    212e:	89 85       	ldd	r24, Y+9	; 0x09
    2130:	9a 85       	ldd	r25, Y+10	; 0x0a
    2132:	9c 01       	movw	r18, r24
    2134:	40 e0       	ldi	r20, 0x00	; 0
    2136:	50 e0       	ldi	r21, 0x00	; 0
    2138:	80 91 5f 03 	lds	r24, 0x035F
    213c:	90 91 60 03 	lds	r25, 0x0360
    2140:	a0 91 61 03 	lds	r26, 0x0361
    2144:	b0 91 62 03 	lds	r27, 0x0362
    2148:	28 17       	cp	r18, r24
    214a:	39 07       	cpc	r19, r25
    214c:	4a 07       	cpc	r20, r26
    214e:	5b 07       	cpc	r21, r27
    2150:	09 f1       	breq	.+66     	; 0x2194 <wait_for+0xea>
            Enable_interrupt();
    2152:	78 94       	sei
    2154:	da cf       	rjmp	.-76     	; 0x210a <wait_for+0x60>
        }
    }
    else    //-- No RTC, enabling something almost equivalent but not right.
    {
        for (i=0;i<ms_count;i++)
    2156:	1c 82       	std	Y+4, r1	; 0x04
    2158:	1b 82       	std	Y+3, r1	; 0x03
    215a:	15 c0       	rjmp	.+42     	; 0x2186 <wait_for+0xdc>
        {
            for (j=0;j<(U8)(FOSC/1000);j++)
    215c:	1a 82       	std	Y+2, r1	; 0x02
    215e:	0b c0       	rjmp	.+22     	; 0x2176 <wait_for+0xcc>
            {
                for (k=0; k<90;k++);
    2160:	19 82       	std	Y+1, r1	; 0x01
    2162:	03 c0       	rjmp	.+6      	; 0x216a <wait_for+0xc0>
    2164:	89 81       	ldd	r24, Y+1	; 0x01
    2166:	8f 5f       	subi	r24, 0xFF	; 255
    2168:	89 83       	std	Y+1, r24	; 0x01
    216a:	89 81       	ldd	r24, Y+1	; 0x01
    216c:	8a 35       	cpi	r24, 0x5A	; 90
    216e:	d0 f3       	brcs	.-12     	; 0x2164 <wait_for+0xba>
    }
    else    //-- No RTC, enabling something almost equivalent but not right.
    {
        for (i=0;i<ms_count;i++)
        {
            for (j=0;j<(U8)(FOSC/1000);j++)
    2170:	8a 81       	ldd	r24, Y+2	; 0x02
    2172:	8f 5f       	subi	r24, 0xFF	; 255
    2174:	8a 83       	std	Y+2, r24	; 0x02
    2176:	8a 81       	ldd	r24, Y+2	; 0x02
    2178:	88 30       	cpi	r24, 0x08	; 8
    217a:	90 f3       	brcs	.-28     	; 0x2160 <wait_for+0xb6>
            Enable_interrupt();
        }
    }
    else    //-- No RTC, enabling something almost equivalent but not right.
    {
        for (i=0;i<ms_count;i++)
    217c:	8b 81       	ldd	r24, Y+3	; 0x03
    217e:	9c 81       	ldd	r25, Y+4	; 0x04
    2180:	01 96       	adiw	r24, 0x01	; 1
    2182:	9c 83       	std	Y+4, r25	; 0x04
    2184:	8b 83       	std	Y+3, r24	; 0x03
    2186:	2b 81       	ldd	r18, Y+3	; 0x03
    2188:	3c 81       	ldd	r19, Y+4	; 0x04
    218a:	89 85       	ldd	r24, Y+9	; 0x09
    218c:	9a 85       	ldd	r25, Y+10	; 0x0a
    218e:	28 17       	cp	r18, r24
    2190:	39 07       	cpc	r19, r25
    2192:	20 f3       	brcs	.-56     	; 0x215c <wait_for+0xb2>
            {
                for (k=0; k<90;k++);
            }
        }
    }
}
    2194:	2a 96       	adiw	r28, 0x0a	; 10
    2196:	0f b6       	in	r0, 0x3f	; 63
    2198:	f8 94       	cli
    219a:	de bf       	out	0x3e, r29	; 62
    219c:	0f be       	out	0x3f, r0	; 63
    219e:	cd bf       	out	0x3d, r28	; 61
    21a0:	cf 91       	pop	r28
    21a2:	df 91       	pop	r29
    21a4:	08 95       	ret

000021a6 <rtc_int_init>:
//!
//------------------------------------------------------------------------------
#if (RTC_TIMER == 2)

void rtc_int_init(void)
{
    21a6:	df 93       	push	r29
    21a8:	cf 93       	push	r28
    21aa:	00 d0       	rcall	.+0      	; 0x21ac <rtc_int_init+0x6>
    21ac:	cd b7       	in	r28, 0x3d	; 61
    21ae:	de b7       	in	r29, 0x3e	; 62
U16 i;
    
    Disable_interrupt();
    21b0:	f8 94       	cli

    Timer8_clear();                 //-- Timer 2 cleared & initialized "OFF"
    21b2:	e0 eb       	ldi	r30, 0xB0	; 176
    21b4:	f0 e0       	ldi	r31, 0x00	; 0
    21b6:	10 82       	st	Z, r1
    21b8:	e2 eb       	ldi	r30, 0xB2	; 178
    21ba:	f0 e0       	ldi	r31, 0x00	; 0
    21bc:	10 82       	st	Z, r1
    21be:	e3 eb       	ldi	r30, 0xB3	; 179
    21c0:	f0 e0       	ldi	r31, 0x00	; 0
    21c2:	10 82       	st	Z, r1
    for (i=0;i<0xFFFF;i++);         //-- Waiting to let the Xtal stabilize after a power-on
    21c4:	1a 82       	std	Y+2, r1	; 0x02
    21c6:	19 82       	std	Y+1, r1	; 0x01
    21c8:	05 c0       	rjmp	.+10     	; 0x21d4 <rtc_int_init+0x2e>
    21ca:	89 81       	ldd	r24, Y+1	; 0x01
    21cc:	9a 81       	ldd	r25, Y+2	; 0x02
    21ce:	01 96       	adiw	r24, 0x01	; 1
    21d0:	9a 83       	std	Y+2, r25	; 0x02
    21d2:	89 83       	std	Y+1, r24	; 0x01
    21d4:	89 81       	ldd	r24, Y+1	; 0x01
    21d6:	9a 81       	ldd	r25, Y+2	; 0x02
    21d8:	2f ef       	ldi	r18, 0xFF	; 255
    21da:	8f 3f       	cpi	r24, 0xFF	; 255
    21dc:	92 07       	cpc	r25, r18
    21de:	a9 f7       	brne	.-22     	; 0x21ca <rtc_int_init+0x24>
    Timer8_overflow_it_disable();   //-- Disable OCIE2A interrupt
    21e0:	a0 e7       	ldi	r26, 0x70	; 112
    21e2:	b0 e0       	ldi	r27, 0x00	; 0
    21e4:	e0 e7       	ldi	r30, 0x70	; 112
    21e6:	f0 e0       	ldi	r31, 0x00	; 0
    21e8:	80 81       	ld	r24, Z
    21ea:	8e 7f       	andi	r24, 0xFE	; 254
    21ec:	8c 93       	st	X, r24
    Timer8_compare_a_it_disable();  //-- Disable TOIE2 interrupt
    21ee:	a0 e7       	ldi	r26, 0x70	; 112
    21f0:	b0 e0       	ldi	r27, 0x00	; 0
    21f2:	e0 e7       	ldi	r30, 0x70	; 112
    21f4:	f0 e0       	ldi	r31, 0x00	; 0
    21f6:	80 81       	ld	r24, Z
    21f8:	8d 7f       	andi	r24, 0xFD	; 253
    21fa:	8c 93       	st	X, r24
    //-- Config: - CTC mode (mode 2, top=OCR2A)
    //--         - No output
    //--        (- Timer "OFF")
    Timer8_set_mode_output_a(TIMER8_COMP_MODE_NORMAL);
    21fc:	a0 eb       	ldi	r26, 0xB0	; 176
    21fe:	b0 e0       	ldi	r27, 0x00	; 0
    2200:	e0 eb       	ldi	r30, 0xB0	; 176
    2202:	f0 e0       	ldi	r31, 0x00	; 0
    2204:	80 81       	ld	r24, Z
    2206:	8f 7c       	andi	r24, 0xCF	; 207
    2208:	8c 93       	st	X, r24
    Timer8_set_waveform_mode(TIMER8_WGM_CTC_OCR);
    220a:	a0 eb       	ldi	r26, 0xB0	; 176
    220c:	b0 e0       	ldi	r27, 0x00	; 0
    220e:	e0 eb       	ldi	r30, 0xB0	; 176
    2210:	f0 e0       	ldi	r31, 0x00	; 0
    2212:	80 81       	ld	r24, Z
    2214:	87 7b       	andi	r24, 0xB7	; 183
    2216:	88 60       	ori	r24, 0x08	; 8
    2218:	8c 93       	st	X, r24

#   if (RTC_CLOCK == 32)
   
    //--- Asynchronous external clock 32,768 KHZ
        Timer8_2_external_osc();            //-- Init RTC clock
    221a:	a6 eb       	ldi	r26, 0xB6	; 182
    221c:	b0 e0       	ldi	r27, 0x00	; 0
    221e:	e6 eb       	ldi	r30, 0xB6	; 182
    2220:	f0 e0       	ldi	r31, 0x00	; 0
    2222:	80 81       	ld	r24, Z
    2224:	87 7e       	andi	r24, 0xE7	; 231
    2226:	88 60       	ori	r24, 0x08	; 8
    2228:	8c 93       	st	X, r24
        Timer8_set_compare_a(33-1);         //-- MAGIC_NUMBER !
    222a:	e3 eb       	ldi	r30, 0xB3	; 179
    222c:	f0 e0       	ldi	r31, 0x00	; 0
    222e:	80 e2       	ldi	r24, 0x20	; 32
    2230:	80 83       	st	Z, r24
        //-- No prescaler & timer "ON"
        //-- Tic interval: ((1/32768)*MAGIC_NUMBER) sec = 1.00708008 msec
        Timer8_set_clock(TIMER8_CLKIO_BY_1);
    2232:	a0 eb       	ldi	r26, 0xB0	; 176
    2234:	b0 e0       	ldi	r27, 0x00	; 0
    2236:	e0 eb       	ldi	r30, 0xB0	; 176
    2238:	f0 e0       	ldi	r31, 0x00	; 0
    223a:	80 81       	ld	r24, Z
    223c:	88 7f       	andi	r24, 0xF8	; 248
    223e:	81 60       	ori	r24, 0x01	; 1
    2240:	8c 93       	st	X, r24
#   else
#       error This RTC_CLOCK value is not available input for "rtc_drv.c" file

#   endif // (RTC_CLOCK ...
    
    while(Timer8_2_update_busy());    //-- Wait for TCN2UB, OCR2UB and TCR2UB to be cleared
    2242:	e6 eb       	ldi	r30, 0xB6	; 182
    2244:	f0 e0       	ldi	r31, 0x00	; 0
    2246:	80 81       	ld	r24, Z
    2248:	88 2f       	mov	r24, r24
    224a:	90 e0       	ldi	r25, 0x00	; 0
    224c:	87 70       	andi	r24, 0x07	; 7
    224e:	90 70       	andi	r25, 0x00	; 0
    2250:	00 97       	sbiw	r24, 0x00	; 0
    2252:	b9 f7       	brne	.-18     	; 0x2242 <rtc_int_init+0x9c>

    Timer8_clear_compare_a_it();      //-- Clear Output_Compare Interrupt-flags
    2254:	a7 e3       	ldi	r26, 0x37	; 55
    2256:	b0 e0       	ldi	r27, 0x00	; 0
    2258:	e7 e3       	ldi	r30, 0x37	; 55
    225a:	f0 e0       	ldi	r31, 0x00	; 0
    225c:	80 81       	ld	r24, Z
    225e:	82 60       	ori	r24, 0x02	; 2
    2260:	8c 93       	st	X, r24
    Timer8_compare_a_it_enable();     //-- Enable Timer2 Output_Compare Interrupt
    2262:	a0 e7       	ldi	r26, 0x70	; 112
    2264:	b0 e0       	ldi	r27, 0x00	; 0
    2266:	e0 e7       	ldi	r30, 0x70	; 112
    2268:	f0 e0       	ldi	r31, 0x00	; 0
    226a:	80 81       	ld	r24, Z
    226c:	82 60       	ori	r24, 0x02	; 2
    226e:	8c 93       	st	X, r24

    //-- Time setting
    rtc_tics         = 0;
    2270:	10 92 5f 03 	sts	0x035F, r1
    2274:	10 92 60 03 	sts	0x0360, r1
    2278:	10 92 61 03 	sts	0x0361, r1
    227c:	10 92 62 03 	sts	0x0362, r1
    rtc_milliseconds = 0;
    2280:	10 92 5e 03 	sts	0x035E, r1
    2284:	10 92 5d 03 	sts	0x035D, r1
    rtc_seconds      = 0;
    2288:	10 92 64 03 	sts	0x0364, r1
    rtc_minutes      = 0;
    228c:	10 92 5b 03 	sts	0x035B, r1
    rtc_hours        = 0;
    2290:	10 92 63 03 	sts	0x0363, r1
    rtc_days         = 0;
    2294:	10 92 5c 03 	sts	0x035C, r1

    rtc_running = ON;
    2298:	81 e0       	ldi	r24, 0x01	; 1
    229a:	80 93 5a 03 	sts	0x035A, r24
    Enable_interrupt();
    229e:	78 94       	sei
}
    22a0:	0f 90       	pop	r0
    22a2:	0f 90       	pop	r0
    22a4:	cf 91       	pop	r28
    22a6:	df 91       	pop	r29
    22a8:	08 95       	ret

000022aa <__vector_9>:
//!
//------------------------------------------------------------------------------
#if (RTC_TIMER == 2)

ISR(TIMER2_COMP_vect)
{
    22aa:	1f 92       	push	r1
    22ac:	0f 92       	push	r0
    22ae:	0f b6       	in	r0, 0x3f	; 63
    22b0:	0f 92       	push	r0
    22b2:	11 24       	eor	r1, r1
    22b4:	2f 93       	push	r18
    22b6:	8f 93       	push	r24
    22b8:	9f 93       	push	r25
    22ba:	af 93       	push	r26
    22bc:	bf 93       	push	r27
    22be:	df 93       	push	r29
    22c0:	cf 93       	push	r28
    22c2:	cd b7       	in	r28, 0x3d	; 61
    22c4:	de b7       	in	r29, 0x3e	; 62
    rtc_tics++;                     //-- Increments tics
    22c6:	80 91 5f 03 	lds	r24, 0x035F
    22ca:	90 91 60 03 	lds	r25, 0x0360
    22ce:	a0 91 61 03 	lds	r26, 0x0361
    22d2:	b0 91 62 03 	lds	r27, 0x0362
    22d6:	01 96       	adiw	r24, 0x01	; 1
    22d8:	a1 1d       	adc	r26, r1
    22da:	b1 1d       	adc	r27, r1
    22dc:	80 93 5f 03 	sts	0x035F, r24
    22e0:	90 93 60 03 	sts	0x0360, r25
    22e4:	a0 93 61 03 	sts	0x0361, r26
    22e8:	b0 93 62 03 	sts	0x0362, r27
    rtc_milliseconds++;             //-- Increments milli seconds
    22ec:	80 91 5d 03 	lds	r24, 0x035D
    22f0:	90 91 5e 03 	lds	r25, 0x035E
    22f4:	01 96       	adiw	r24, 0x01	; 1
    22f6:	90 93 5e 03 	sts	0x035E, r25
    22fa:	80 93 5d 03 	sts	0x035D, r24
    
    if (rtc_milliseconds == 1000)
    22fe:	80 91 5d 03 	lds	r24, 0x035D
    2302:	90 91 5e 03 	lds	r25, 0x035E
    2306:	23 e0       	ldi	r18, 0x03	; 3
    2308:	88 3e       	cpi	r24, 0xE8	; 232
    230a:	92 07       	cpc	r25, r18
    230c:	51 f5       	brne	.+84     	; 0x2362 <__vector_9+0xb8>
    {
        rtc_milliseconds = 0;
    230e:	10 92 5e 03 	sts	0x035E, r1
    2312:	10 92 5d 03 	sts	0x035D, r1
        rtc_seconds++;              //-- Increments seconds
    2316:	80 91 64 03 	lds	r24, 0x0364
    231a:	8f 5f       	subi	r24, 0xFF	; 255
    231c:	80 93 64 03 	sts	0x0364, r24

        if (rtc_seconds == 60)
    2320:	80 91 64 03 	lds	r24, 0x0364
    2324:	8c 33       	cpi	r24, 0x3C	; 60
    2326:	e9 f4       	brne	.+58     	; 0x2362 <__vector_9+0xb8>
        {
            rtc_seconds = 0;
    2328:	10 92 64 03 	sts	0x0364, r1
            rtc_minutes++;          //-- Increments minutes
    232c:	80 91 5b 03 	lds	r24, 0x035B
    2330:	8f 5f       	subi	r24, 0xFF	; 255
    2332:	80 93 5b 03 	sts	0x035B, r24
            
            if (rtc_minutes == 60)
    2336:	80 91 5b 03 	lds	r24, 0x035B
    233a:	8c 33       	cpi	r24, 0x3C	; 60
    233c:	91 f4       	brne	.+36     	; 0x2362 <__vector_9+0xb8>
            {
                rtc_minutes = 0;
    233e:	10 92 5b 03 	sts	0x035B, r1
                rtc_hours++;        //-- Increments hours
    2342:	80 91 63 03 	lds	r24, 0x0363
    2346:	8f 5f       	subi	r24, 0xFF	; 255
    2348:	80 93 63 03 	sts	0x0363, r24
                        
                if (rtc_hours == 24)
    234c:	80 91 63 03 	lds	r24, 0x0363
    2350:	88 31       	cpi	r24, 0x18	; 24
    2352:	39 f4       	brne	.+14     	; 0x2362 <__vector_9+0xb8>
                {
                    rtc_hours = 0;
    2354:	10 92 63 03 	sts	0x0363, r1
                    rtc_days++;     //-- Increments days
    2358:	80 91 5c 03 	lds	r24, 0x035C
    235c:	8f 5f       	subi	r24, 0xFF	; 255
    235e:	80 93 5c 03 	sts	0x035C, r24
                }
            }
        }
    }
}
    2362:	cf 91       	pop	r28
    2364:	df 91       	pop	r29
    2366:	bf 91       	pop	r27
    2368:	af 91       	pop	r26
    236a:	9f 91       	pop	r25
    236c:	8f 91       	pop	r24
    236e:	2f 91       	pop	r18
    2370:	0f 90       	pop	r0
    2372:	0f be       	out	0x3f, r0	; 63
    2374:	0f 90       	pop	r0
    2376:	1f 90       	pop	r1
    2378:	18 95       	reti

0000237a <uart_rx_get_3_data>:
//! @param  none
//!
//! @return UART pin value sampled 3 times
//------------------------------------------------------------------------------
Bool uart_rx_get_3_data (void)
{
    237a:	df 93       	push	r29
    237c:	cf 93       	push	r28
    237e:	0f 92       	push	r0
    2380:	cd b7       	in	r28, 0x3d	; 61
    2382:	de b7       	in	r29, 0x3e	; 62
U8 u8_temp = 0;
    2384:	19 82       	std	Y+1, r1	; 0x01

#if ((USE_UART == UART_0) || (USE_UART == UART_1))
    u8_temp = Uart_rx_get_3_data();
    2386:	ec e2       	ldi	r30, 0x2C	; 44
    2388:	f0 e0       	ldi	r31, 0x00	; 0
    238a:	90 81       	ld	r25, Z
    238c:	ec e2       	ldi	r30, 0x2C	; 44
    238e:	f0 e0       	ldi	r31, 0x00	; 0
    2390:	80 81       	ld	r24, Z
    2392:	98 23       	and	r25, r24
    2394:	ec e2       	ldi	r30, 0x2C	; 44
    2396:	f0 e0       	ldi	r31, 0x00	; 0
    2398:	80 81       	ld	r24, Z
    239a:	89 23       	and	r24, r25
    239c:	81 70       	andi	r24, 0x01	; 1
    239e:	89 83       	std	Y+1, r24	; 0x01
    }
#   else
#       error USE_UART definition is not referenced in "uart_drv.h" file
#endif

    return u8_temp;
    23a0:	89 81       	ldd	r24, Y+1	; 0x01
}
    23a2:	0f 90       	pop	r0
    23a4:	cf 91       	pop	r28
    23a6:	df 91       	pop	r29
    23a8:	08 95       	ret

000023aa <uart_rx_get_data>:
//! @param  none
//!
//! @return UART pin value
//------------------------------------------------------------------------------
Bool uart_rx_get_data (void)
{
    23aa:	df 93       	push	r29
    23ac:	cf 93       	push	r28
    23ae:	0f 92       	push	r0
    23b0:	cd b7       	in	r28, 0x3d	; 61
    23b2:	de b7       	in	r29, 0x3e	; 62
U8 u8_temp = 0;
    23b4:	19 82       	std	Y+1, r1	; 0x01

#if ((USE_UART == UART_0) || (USE_UART == UART_1))
    u8_temp = Uart_rx_get_data();
    23b6:	ec e2       	ldi	r30, 0x2C	; 44
    23b8:	f0 e0       	ldi	r31, 0x00	; 0
    23ba:	80 81       	ld	r24, Z
    23bc:	81 70       	andi	r24, 0x01	; 1
    23be:	89 83       	std	Y+1, r24	; 0x01
    }
#   else
#       error USE_UART definition is not referenced in "uart_drv.h" file
#endif

    return u8_temp;
    23c0:	89 81       	ldd	r24, Y+1	; 0x01
}
    23c2:	0f 90       	pop	r0
    23c4:	cf 91       	pop	r28
    23c6:	df 91       	pop	r29
    23c8:	08 95       	ret

000023ca <uart_init>:
//!         ==0: research of timing failed
//!         ==1: baudrate performed
//!
//------------------------------------------------------------------------------
U8 uart_init (U8 mode, U32 baudrate)
{
    23ca:	df 93       	push	r29
    23cc:	cf 93       	push	r28
    23ce:	00 d0       	rcall	.+0      	; 0x23d0 <uart_init+0x6>
    23d0:	00 d0       	rcall	.+0      	; 0x23d2 <uart_init+0x8>
    23d2:	00 d0       	rcall	.+0      	; 0x23d4 <uart_init+0xa>
    23d4:	cd b7       	in	r28, 0x3d	; 61
    23d6:	de b7       	in	r29, 0x3e	; 62
    23d8:	89 83       	std	Y+1, r24	; 0x01
    23da:	4a 83       	std	Y+2, r20	; 0x02
    23dc:	5b 83       	std	Y+3, r21	; 0x03
    23de:	6c 83       	std	Y+4, r22	; 0x04
    23e0:	7d 83       	std	Y+5, r23	; 0x05
    Uart_clear();       // Flush, Disable and Reset UART
    23e2:	e1 ec       	ldi	r30, 0xC1	; 193
    23e4:	f0 e0       	ldi	r31, 0x00	; 0
    23e6:	10 82       	st	Z, r1
    23e8:	a2 ec       	ldi	r26, 0xC2	; 194
    23ea:	b0 e0       	ldi	r27, 0x00	; 0
    23ec:	e6 ec       	ldi	r30, 0xC6	; 198
    23ee:	f0 e0       	ldi	r31, 0x00	; 0
    23f0:	80 81       	ld	r24, Z
    23f2:	8c 93       	st	X, r24
    23f4:	e0 ec       	ldi	r30, 0xC0	; 192
    23f6:	f0 e0       	ldi	r31, 0x00	; 0
    23f8:	80 e4       	ldi	r24, 0x40	; 64
    23fa:	80 83       	st	Z, r24
    23fc:	e2 ec       	ldi	r30, 0xC2	; 194
    23fe:	f0 e0       	ldi	r31, 0x00	; 0
    2400:	86 e0       	ldi	r24, 0x06	; 6
    2402:	80 83       	st	Z, r24
    2404:	e5 ec       	ldi	r30, 0xC5	; 197
    2406:	f0 e0       	ldi	r31, 0x00	; 0
    2408:	10 82       	st	Z, r1
    240a:	e4 ec       	ldi	r30, 0xC4	; 196
    240c:	f0 e0       	ldi	r31, 0x00	; 0
    240e:	10 82       	st	Z, r1
    if (Uart_set_baudrate(baudrate) == 0) return 0;  //!<  c.f. macro in "uart_drv.h"
    2410:	e5 ec       	ldi	r30, 0xC5	; 197
    2412:	f0 e0       	ldi	r31, 0x00	; 0
    2414:	10 82       	st	Z, r1
    2416:	e4 ec       	ldi	r30, 0xC4	; 196
    2418:	f0 e0       	ldi	r31, 0x00	; 0
    241a:	89 e1       	ldi	r24, 0x19	; 25
    241c:	80 83       	st	Z, r24
    241e:	a0 ec       	ldi	r26, 0xC0	; 192
    2420:	b0 e0       	ldi	r27, 0x00	; 0
    2422:	e0 ec       	ldi	r30, 0xC0	; 192
    2424:	f0 e0       	ldi	r31, 0x00	; 0
    2426:	80 81       	ld	r24, Z
    2428:	82 60       	ori	r24, 0x02	; 2
    242a:	8c 93       	st	X, r24
    242c:	8c 91       	ld	r24, X
    242e:	88 23       	and	r24, r24
    2430:	11 f4       	brne	.+4      	; 0x2436 <uart_init+0x6c>
    2432:	1e 82       	std	Y+6, r1	; 0x06
    2434:	35 c0       	rjmp	.+106    	; 0x24a0 <uart_init+0xd6>
    Uart_hw_init(mode);     //!<  c.f. macro in "uart_drv.h"
    2436:	a0 ec       	ldi	r26, 0xC0	; 192
    2438:	b0 e0       	ldi	r27, 0x00	; 0
    243a:	e0 ec       	ldi	r30, 0xC0	; 192
    243c:	f0 e0       	ldi	r31, 0x00	; 0
    243e:	80 81       	ld	r24, Z
    2440:	80 62       	ori	r24, 0x20	; 32
    2442:	8c 93       	st	X, r24
    2444:	a1 ec       	ldi	r26, 0xC1	; 193
    2446:	b0 e0       	ldi	r27, 0x00	; 0
    2448:	e1 ec       	ldi	r30, 0xC1	; 193
    244a:	f0 e0       	ldi	r31, 0x00	; 0
    244c:	80 81       	ld	r24, Z
    244e:	8b 7f       	andi	r24, 0xFB	; 251
    2450:	8c 93       	st	X, r24
    2452:	a1 ec       	ldi	r26, 0xC1	; 193
    2454:	b0 e0       	ldi	r27, 0x00	; 0
    2456:	e1 ec       	ldi	r30, 0xC1	; 193
    2458:	f0 e0       	ldi	r31, 0x00	; 0
    245a:	80 81       	ld	r24, Z
    245c:	98 2f       	mov	r25, r24
    245e:	89 81       	ldd	r24, Y+1	; 0x01
    2460:	84 70       	andi	r24, 0x04	; 4
    2462:	89 2b       	or	r24, r25
    2464:	8c 93       	st	X, r24
    2466:	e2 ec       	ldi	r30, 0xC2	; 194
    2468:	f0 e0       	ldi	r31, 0x00	; 0
    246a:	89 81       	ldd	r24, Y+1	; 0x01
    246c:	88 73       	andi	r24, 0x38	; 56
    246e:	80 83       	st	Z, r24
    2470:	a2 ec       	ldi	r26, 0xC2	; 194
    2472:	b0 e0       	ldi	r27, 0x00	; 0
    2474:	e2 ec       	ldi	r30, 0xC2	; 194
    2476:	f0 e0       	ldi	r31, 0x00	; 0
    2478:	80 81       	ld	r24, Z
    247a:	28 2f       	mov	r18, r24
    247c:	89 81       	ldd	r24, Y+1	; 0x01
    247e:	88 2f       	mov	r24, r24
    2480:	90 e0       	ldi	r25, 0x00	; 0
    2482:	83 70       	andi	r24, 0x03	; 3
    2484:	90 70       	andi	r25, 0x00	; 0
    2486:	88 0f       	add	r24, r24
    2488:	99 1f       	adc	r25, r25
    248a:	82 2b       	or	r24, r18
    248c:	8c 93       	st	X, r24
    Uart_enable();          //!<  c.f. macro in "uart_drv.h"
    248e:	a1 ec       	ldi	r26, 0xC1	; 193
    2490:	b0 e0       	ldi	r27, 0x00	; 0
    2492:	e1 ec       	ldi	r30, 0xC1	; 193
    2494:	f0 e0       	ldi	r31, 0x00	; 0
    2496:	80 81       	ld	r24, Z
    2498:	88 61       	ori	r24, 0x18	; 24
    249a:	8c 93       	st	X, r24
    return (1);
    249c:	81 e0       	ldi	r24, 0x01	; 1
    249e:	8e 83       	std	Y+6, r24	; 0x06
    24a0:	8e 81       	ldd	r24, Y+6	; 0x06
}
    24a2:	26 96       	adiw	r28, 0x06	; 6
    24a4:	0f b6       	in	r0, 0x3f	; 63
    24a6:	f8 94       	cli
    24a8:	de bf       	out	0x3e, r29	; 62
    24aa:	0f be       	out	0x3f, r0	; 63
    24ac:	cd bf       	out	0x3d, r28	; 61
    24ae:	cf 91       	pop	r28
    24b0:	df 91       	pop	r29
    24b2:	08 95       	ret

000024b4 <uart_test_hit>:
//!         ==0: Nothing has been received
//!         ==1: A character has been received
//!
//------------------------------------------------------------------------------
U8 uart_test_hit (void)
{
    24b4:	df 93       	push	r29
    24b6:	cf 93       	push	r28
    24b8:	cd b7       	in	r28, 0x3d	; 61
    24ba:	de b7       	in	r29, 0x3e	; 62
    return (Uart_rx_ready());
    24bc:	e0 ec       	ldi	r30, 0xC0	; 192
    24be:	f0 e0       	ldi	r31, 0x00	; 0
    24c0:	80 81       	ld	r24, Z
    24c2:	88 1f       	adc	r24, r24
    24c4:	88 27       	eor	r24, r24
    24c6:	88 1f       	adc	r24, r24
}
    24c8:	cf 91       	pop	r28
    24ca:	df 91       	pop	r29
    24cc:	08 95       	ret

000024ce <uart_putchar>:
//!
//! @return character sent
//!
//------------------------------------------------------------------------------
U8 uart_putchar (U8 ch)
{
    24ce:	df 93       	push	r29
    24d0:	cf 93       	push	r28
    24d2:	0f 92       	push	r0
    24d4:	cd b7       	in	r28, 0x3d	; 61
    24d6:	de b7       	in	r29, 0x3e	; 62
    24d8:	89 83       	std	Y+1, r24	; 0x01
    while(!Uart_tx_ready());
    24da:	e0 ec       	ldi	r30, 0xC0	; 192
    24dc:	f0 e0       	ldi	r31, 0x00	; 0
    24de:	80 81       	ld	r24, Z
    24e0:	88 2f       	mov	r24, r24
    24e2:	90 e0       	ldi	r25, 0x00	; 0
    24e4:	80 72       	andi	r24, 0x20	; 32
    24e6:	90 70       	andi	r25, 0x00	; 0
    24e8:	95 95       	asr	r25
    24ea:	87 95       	ror	r24
    24ec:	95 95       	asr	r25
    24ee:	87 95       	ror	r24
    24f0:	95 95       	asr	r25
    24f2:	87 95       	ror	r24
    24f4:	95 95       	asr	r25
    24f6:	87 95       	ror	r24
    24f8:	95 95       	asr	r25
    24fa:	87 95       	ror	r24
    24fc:	00 97       	sbiw	r24, 0x00	; 0
    24fe:	69 f3       	breq	.-38     	; 0x24da <uart_putchar+0xc>
    Uart_set_tx_busy();     // Set Busy flag before sending (always)
    Uart_send_byte(ch);
    2500:	e6 ec       	ldi	r30, 0xC6	; 198
    2502:	f0 e0       	ldi	r31, 0x00	; 0
    2504:	89 81       	ldd	r24, Y+1	; 0x01
    2506:	80 83       	st	Z, r24
    return (ch);
    2508:	89 81       	ldd	r24, Y+1	; 0x01
}
    250a:	0f 90       	pop	r0
    250c:	cf 91       	pop	r28
    250e:	df 91       	pop	r29
    2510:	08 95       	ret

00002512 <uart_getchar>:
//!
//! @return read (received) character on the UART
//!
//------------------------------------------------------------------------------
U8 uart_getchar (void)
{
    2512:	df 93       	push	r29
    2514:	cf 93       	push	r28
    2516:	0f 92       	push	r0
    2518:	cd b7       	in	r28, 0x3d	; 61
    251a:	de b7       	in	r29, 0x3e	; 62
    U8 ch;

    while(!Uart_rx_ready());
    251c:	e0 ec       	ldi	r30, 0xC0	; 192
    251e:	f0 e0       	ldi	r31, 0x00	; 0
    2520:	80 81       	ld	r24, Z
    2522:	88 1f       	adc	r24, r24
    2524:	88 27       	eor	r24, r24
    2526:	88 1f       	adc	r24, r24
    2528:	88 2f       	mov	r24, r24
    252a:	90 e0       	ldi	r25, 0x00	; 0
    252c:	90 70       	andi	r25, 0x00	; 0
    252e:	00 97       	sbiw	r24, 0x00	; 0
    2530:	a9 f3       	breq	.-22     	; 0x251c <uart_getchar+0xa>
    ch = Uart_get_byte();
    2532:	e6 ec       	ldi	r30, 0xC6	; 198
    2534:	f0 e0       	ldi	r31, 0x00	; 0
    2536:	80 81       	ld	r24, Z
    2538:	89 83       	std	Y+1, r24	; 0x01
    Uart_ack_rx_byte();
    return ch;
    253a:	89 81       	ldd	r24, Y+1	; 0x01
}
    253c:	0f 90       	pop	r0
    253e:	cf 91       	pop	r28
    2540:	df 91       	pop	r29
    2542:	08 95       	ret

00002544 <uart_put_string>:
//! @return (none)
//!
//------------------------------------------------------------------------------
#ifndef REDUCED_UART_LIB
void uart_put_string (U8 *data_string)
    {
    2544:	df 93       	push	r29
    2546:	cf 93       	push	r28
    2548:	00 d0       	rcall	.+0      	; 0x254a <uart_put_string+0x6>
    254a:	cd b7       	in	r28, 0x3d	; 61
    254c:	de b7       	in	r29, 0x3e	; 62
    254e:	9a 83       	std	Y+2, r25	; 0x02
    2550:	89 83       	std	Y+1, r24	; 0x01
    2552:	0b c0       	rjmp	.+22     	; 0x256a <uart_put_string+0x26>
    while(*data_string) uart_putchar (*data_string++);
    2554:	e9 81       	ldd	r30, Y+1	; 0x01
    2556:	fa 81       	ldd	r31, Y+2	; 0x02
    2558:	20 81       	ld	r18, Z
    255a:	89 81       	ldd	r24, Y+1	; 0x01
    255c:	9a 81       	ldd	r25, Y+2	; 0x02
    255e:	01 96       	adiw	r24, 0x01	; 1
    2560:	9a 83       	std	Y+2, r25	; 0x02
    2562:	89 83       	std	Y+1, r24	; 0x01
    2564:	82 2f       	mov	r24, r18
    2566:	0e 94 67 12 	call	0x24ce	; 0x24ce <uart_putchar>
    256a:	e9 81       	ldd	r30, Y+1	; 0x01
    256c:	fa 81       	ldd	r31, Y+2	; 0x02
    256e:	80 81       	ld	r24, Z
    2570:	88 23       	and	r24, r24
    2572:	81 f7       	brne	.-32     	; 0x2554 <uart_put_string+0x10>
    }
    2574:	0f 90       	pop	r0
    2576:	0f 90       	pop	r0
    2578:	cf 91       	pop	r28
    257a:	df 91       	pop	r29
    257c:	08 95       	ret

0000257e <uart_mini_printf>:
//! Return: 0 = O.K.
//!
//------------------------------------------------------------------------------
#ifndef REDUCED_UART_LIB
U8 uart_mini_printf(char *format, ...)
{
    257e:	0f 93       	push	r16
    2580:	1f 93       	push	r17
    2582:	df 93       	push	r29
    2584:	cf 93       	push	r28
    2586:	cd b7       	in	r28, 0x3d	; 61
    2588:	de b7       	in	r29, 0x3e	; 62
    258a:	af 97       	sbiw	r28, 0x2f	; 47
    258c:	0f b6       	in	r0, 0x3f	; 63
    258e:	f8 94       	cli
    2590:	de bf       	out	0x3e, r29	; 62
    2592:	0f be       	out	0x3f, r0	; 63
    2594:	cd bf       	out	0x3d, r28	; 61
    S16     s16_val;
    S32     s32_val;
    U16     u16_val;
    U32     u32_val;

    long_flag = FALSE;
    2596:	1f 86       	std	Y+15, r1	; 0x0f
    alt_p_c = FALSE;
    2598:	1e 86       	std	Y+14, r1	; 0x0e
    min_size = DATA_BUF_LEN-1;
    259a:	8b e0       	ldi	r24, 0x0B	; 11
    259c:	88 8b       	std	Y+16, r24	; 0x10

    va_start(arg_ptr, format);   // make arg_ptr point to the first unnamed arg
    259e:	ce 01       	movw	r24, r28
    25a0:	c8 96       	adiw	r24, 0x38	; 56
    25a2:	99 8f       	std	Y+25, r25	; 0x19
    25a4:	88 8f       	std	Y+24, r24	; 0x18
    for (p = (U8 *) format; *p; p++)
    25a6:	8e a9       	ldd	r24, Y+54	; 0x36
    25a8:	9f a9       	ldd	r25, Y+55	; 0x37
    25aa:	9f 8b       	std	Y+23, r25	; 0x17
    25ac:	8e 8b       	std	Y+22, r24	; 0x16
    25ae:	73 c3       	rjmp	.+1766   	; 0x2c96 <uart_mini_printf+0x718>
    {
        if ((*p == '%') || (alt_p_c == TRUE))
    25b0:	ee 89       	ldd	r30, Y+22	; 0x16
    25b2:	ff 89       	ldd	r31, Y+23	; 0x17
    25b4:	80 81       	ld	r24, Z
    25b6:	85 32       	cpi	r24, 0x25	; 37
    25b8:	21 f0       	breq	.+8      	; 0x25c2 <uart_mini_printf+0x44>
    25ba:	8e 85       	ldd	r24, Y+14	; 0x0e
    25bc:	81 30       	cpi	r24, 0x01	; 1
    25be:	09 f0       	breq	.+2      	; 0x25c2 <uart_mini_printf+0x44>
    25c0:	47 c0       	rjmp	.+142    	; 0x2650 <uart_mini_printf+0xd2>
        {
            p++;
    25c2:	8e 89       	ldd	r24, Y+22	; 0x16
    25c4:	9f 89       	ldd	r25, Y+23	; 0x17
    25c6:	01 96       	adiw	r24, 0x01	; 1
    25c8:	9f 8b       	std	Y+23, r25	; 0x17
    25ca:	8e 8b       	std	Y+22, r24	; 0x16
            uart_putchar(*p);
            alt_p_c = FALSE;
            long_flag = FALSE;
            continue;   // "switch (*p)" section skipped
        }
        switch (*p)
    25cc:	ee 89       	ldd	r30, Y+22	; 0x16
    25ce:	ff 89       	ldd	r31, Y+23	; 0x17
    25d0:	80 81       	ld	r24, Z
    25d2:	28 2f       	mov	r18, r24
    25d4:	30 e0       	ldi	r19, 0x00	; 0
    25d6:	3f a7       	std	Y+47, r19	; 0x2f
    25d8:	2e a7       	std	Y+46, r18	; 0x2e
    25da:	8e a5       	ldd	r24, Y+46	; 0x2e
    25dc:	9f a5       	ldd	r25, Y+47	; 0x2f
    25de:	84 36       	cpi	r24, 0x64	; 100
    25e0:	91 05       	cpc	r25, r1
    25e2:	09 f4       	brne	.+2      	; 0x25e6 <uart_mini_printf+0x68>
    25e4:	96 c0       	rjmp	.+300    	; 0x2712 <uart_mini_printf+0x194>
    25e6:	2e a5       	ldd	r18, Y+46	; 0x2e
    25e8:	3f a5       	ldd	r19, Y+47	; 0x2f
    25ea:	25 36       	cpi	r18, 0x65	; 101
    25ec:	31 05       	cpc	r19, r1
    25ee:	94 f4       	brge	.+36     	; 0x2614 <uart_mini_printf+0x96>
    25f0:	8e a5       	ldd	r24, Y+46	; 0x2e
    25f2:	9f a5       	ldd	r25, Y+47	; 0x2f
    25f4:	88 35       	cpi	r24, 0x58	; 88
    25f6:	91 05       	cpc	r25, r1
    25f8:	09 f4       	brne	.+2      	; 0x25fc <uart_mini_printf+0x7e>
    25fa:	fc c1       	rjmp	.+1016   	; 0x29f4 <uart_mini_printf+0x476>
    25fc:	2e a5       	ldd	r18, Y+46	; 0x2e
    25fe:	3f a5       	ldd	r19, Y+47	; 0x2f
    2600:	23 36       	cpi	r18, 0x63	; 99
    2602:	31 05       	cpc	r19, r1
    2604:	69 f1       	breq	.+90     	; 0x2660 <uart_mini_printf+0xe2>
    2606:	8e a5       	ldd	r24, Y+46	; 0x2e
    2608:	9f a5       	ldd	r25, Y+47	; 0x2f
    260a:	80 33       	cpi	r24, 0x30	; 48
    260c:	91 05       	cpc	r25, r1
    260e:	09 f4       	brne	.+2      	; 0x2612 <uart_mini_printf+0x94>
    2610:	bb c2       	rjmp	.+1398   	; 0x2b88 <uart_mini_printf+0x60a>
    2612:	2d c3       	rjmp	.+1626   	; 0x2c6e <uart_mini_printf+0x6f0>
    2614:	2e a5       	ldd	r18, Y+46	; 0x2e
    2616:	3f a5       	ldd	r19, Y+47	; 0x2f
    2618:	23 37       	cpi	r18, 0x73	; 115
    261a:	31 05       	cpc	r19, r1
    261c:	e9 f1       	breq	.+122    	; 0x2698 <uart_mini_printf+0x11a>
    261e:	8e a5       	ldd	r24, Y+46	; 0x2e
    2620:	9f a5       	ldd	r25, Y+47	; 0x2f
    2622:	84 37       	cpi	r24, 0x74	; 116
    2624:	91 05       	cpc	r25, r1
    2626:	3c f4       	brge	.+14     	; 0x2636 <uart_mini_printf+0xb8>
    2628:	2e a5       	ldd	r18, Y+46	; 0x2e
    262a:	3f a5       	ldd	r19, Y+47	; 0x2f
    262c:	2c 36       	cpi	r18, 0x6C	; 108
    262e:	31 05       	cpc	r19, r1
    2630:	09 f4       	brne	.+2      	; 0x2634 <uart_mini_printf+0xb6>
    2632:	5c c0       	rjmp	.+184    	; 0x26ec <uart_mini_printf+0x16e>
    2634:	1c c3       	rjmp	.+1592   	; 0x2c6e <uart_mini_printf+0x6f0>
    2636:	8e a5       	ldd	r24, Y+46	; 0x2e
    2638:	9f a5       	ldd	r25, Y+47	; 0x2f
    263a:	85 37       	cpi	r24, 0x75	; 117
    263c:	91 05       	cpc	r25, r1
    263e:	09 f4       	brne	.+2      	; 0x2642 <uart_mini_printf+0xc4>
    2640:	36 c1       	rjmp	.+620    	; 0x28ae <uart_mini_printf+0x330>
    2642:	2e a5       	ldd	r18, Y+46	; 0x2e
    2644:	3f a5       	ldd	r19, Y+47	; 0x2f
    2646:	28 37       	cpi	r18, 0x78	; 120
    2648:	31 05       	cpc	r19, r1
    264a:	09 f4       	brne	.+2      	; 0x264e <uart_mini_printf+0xd0>
    264c:	d3 c1       	rjmp	.+934    	; 0x29f4 <uart_mini_printf+0x476>
    264e:	0f c3       	rjmp	.+1566   	; 0x2c6e <uart_mini_printf+0x6f0>
        {
            p++;
        }
        else
        {
            uart_putchar(*p);
    2650:	ee 89       	ldd	r30, Y+22	; 0x16
    2652:	ff 89       	ldd	r31, Y+23	; 0x17
    2654:	80 81       	ld	r24, Z
    2656:	0e 94 67 12 	call	0x24ce	; 0x24ce <uart_putchar>
            alt_p_c = FALSE;
    265a:	1e 86       	std	Y+14, r1	; 0x0e
            long_flag = FALSE;
    265c:	1f 86       	std	Y+15, r1	; 0x0f
    265e:	16 c3       	rjmp	.+1580   	; 0x2c8c <uart_mini_printf+0x70e>
            continue;   // "switch (*p)" section skipped
        }
        switch (*p)
        {
            case 'c':
                if (long_flag == TRUE)      // ERROR: 'l' before any 'c'
    2660:	8f 85       	ldd	r24, Y+15	; 0x0f
    2662:	81 30       	cpi	r24, 0x01	; 1
    2664:	39 f4       	brne	.+14     	; 0x2674 <uart_mini_printf+0xf6>
                {
                    uart_putchar('l');
    2666:	8c e6       	ldi	r24, 0x6C	; 108
    2668:	0e 94 67 12 	call	0x24ce	; 0x24ce <uart_putchar>
                    uart_putchar('c');
    266c:	83 e6       	ldi	r24, 0x63	; 99
    266e:	0e 94 67 12 	call	0x24ce	; 0x24ce <uart_putchar>
    2672:	0d c0       	rjmp	.+26     	; 0x268e <uart_mini_printf+0x110>
                }
                else
                {
                    s8_val = (S8)(va_arg(arg_ptr, int));    // s8_val = (S8)(va_arg(arg_ptr, S16));
    2674:	28 8d       	ldd	r18, Y+24	; 0x18
    2676:	39 8d       	ldd	r19, Y+25	; 0x19
    2678:	c9 01       	movw	r24, r18
    267a:	02 96       	adiw	r24, 0x02	; 2
    267c:	99 8f       	std	Y+25, r25	; 0x19
    267e:	88 8f       	std	Y+24, r24	; 0x18
    2680:	f9 01       	movw	r30, r18
    2682:	80 81       	ld	r24, Z
    2684:	91 81       	ldd	r25, Z+1	; 0x01
    2686:	8d 87       	std	Y+13, r24	; 0x0d
                    uart_putchar((U8)(s8_val));
    2688:	8d 85       	ldd	r24, Y+13	; 0x0d
    268a:	0e 94 67 12 	call	0x24ce	; 0x24ce <uart_putchar>
                }
                // Clean up
                min_size = DATA_BUF_LEN-1;
    268e:	8b e0       	ldi	r24, 0x0B	; 11
    2690:	88 8b       	std	Y+16, r24	; 0x10
                alt_p_c = FALSE;
    2692:	1e 86       	std	Y+14, r1	; 0x0e
                long_flag = FALSE;
    2694:	1f 86       	std	Y+15, r1	; 0x0f
    2696:	fa c2       	rjmp	.+1524   	; 0x2c8c <uart_mini_printf+0x70e>
                break; // case 'c'
                
            case 's':
                if (long_flag == TRUE)      // ERROR: 'l' before any 's'
    2698:	8f 85       	ldd	r24, Y+15	; 0x0f
    269a:	81 30       	cpi	r24, 0x01	; 1
    269c:	39 f4       	brne	.+14     	; 0x26ac <uart_mini_printf+0x12e>
                {
                    uart_putchar('l');
    269e:	8c e6       	ldi	r24, 0x6C	; 108
    26a0:	0e 94 67 12 	call	0x24ce	; 0x24ce <uart_putchar>
                    uart_putchar('s');
    26a4:	83 e7       	ldi	r24, 0x73	; 115
    26a6:	0e 94 67 12 	call	0x24ce	; 0x24ce <uart_putchar>
    26aa:	1b c0       	rjmp	.+54     	; 0x26e2 <uart_mini_printf+0x164>
                }
                else
                {
                    for (sval = va_arg(arg_ptr, U8 *); *sval; sval++)
    26ac:	28 8d       	ldd	r18, Y+24	; 0x18
    26ae:	39 8d       	ldd	r19, Y+25	; 0x19
    26b0:	c9 01       	movw	r24, r18
    26b2:	02 96       	adiw	r24, 0x02	; 2
    26b4:	99 8f       	std	Y+25, r25	; 0x19
    26b6:	88 8f       	std	Y+24, r24	; 0x18
    26b8:	f9 01       	movw	r30, r18
    26ba:	80 81       	ld	r24, Z
    26bc:	91 81       	ldd	r25, Z+1	; 0x01
    26be:	9d 8b       	std	Y+21, r25	; 0x15
    26c0:	8c 8b       	std	Y+20, r24	; 0x14
    26c2:	0a c0       	rjmp	.+20     	; 0x26d8 <uart_mini_printf+0x15a>
                    {
                        uart_putchar(*sval);
    26c4:	ec 89       	ldd	r30, Y+20	; 0x14
    26c6:	fd 89       	ldd	r31, Y+21	; 0x15
    26c8:	80 81       	ld	r24, Z
    26ca:	0e 94 67 12 	call	0x24ce	; 0x24ce <uart_putchar>
                    uart_putchar('l');
                    uart_putchar('s');
                }
                else
                {
                    for (sval = va_arg(arg_ptr, U8 *); *sval; sval++)
    26ce:	8c 89       	ldd	r24, Y+20	; 0x14
    26d0:	9d 89       	ldd	r25, Y+21	; 0x15
    26d2:	01 96       	adiw	r24, 0x01	; 1
    26d4:	9d 8b       	std	Y+21, r25	; 0x15
    26d6:	8c 8b       	std	Y+20, r24	; 0x14
    26d8:	ec 89       	ldd	r30, Y+20	; 0x14
    26da:	fd 89       	ldd	r31, Y+21	; 0x15
    26dc:	80 81       	ld	r24, Z
    26de:	88 23       	and	r24, r24
    26e0:	89 f7       	brne	.-30     	; 0x26c4 <uart_mini_printf+0x146>
                    {
                        uart_putchar(*sval);
                    }
                }
                // Clean up
                min_size = DATA_BUF_LEN-1;
    26e2:	8b e0       	ldi	r24, 0x0B	; 11
    26e4:	88 8b       	std	Y+16, r24	; 0x10
                alt_p_c = FALSE;
    26e6:	1e 86       	std	Y+14, r1	; 0x0e
                long_flag = FALSE;
    26e8:	1f 86       	std	Y+15, r1	; 0x0f
    26ea:	d0 c2       	rjmp	.+1440   	; 0x2c8c <uart_mini_printf+0x70e>
                break;  // case 's'
                
            case 'l':  // It is not the number "ONE" but the lower case of "L" character
                if (long_flag == TRUE)      // ERROR: two consecutive 'l'
    26ec:	8f 85       	ldd	r24, Y+15	; 0x0f
    26ee:	81 30       	cpi	r24, 0x01	; 1
    26f0:	31 f4       	brne	.+12     	; 0x26fe <uart_mini_printf+0x180>
                {
                    uart_putchar('l');
    26f2:	8c e6       	ldi	r24, 0x6C	; 108
    26f4:	0e 94 67 12 	call	0x24ce	; 0x24ce <uart_putchar>
                    alt_p_c = FALSE;
    26f8:	1e 86       	std	Y+14, r1	; 0x0e
                    long_flag = FALSE;
    26fa:	1f 86       	std	Y+15, r1	; 0x0f
    26fc:	04 c0       	rjmp	.+8      	; 0x2706 <uart_mini_printf+0x188>
                }
                else
                {
                    alt_p_c = TRUE;
    26fe:	81 e0       	ldi	r24, 0x01	; 1
    2700:	8e 87       	std	Y+14, r24	; 0x0e
                    long_flag = TRUE;
    2702:	81 e0       	ldi	r24, 0x01	; 1
    2704:	8f 87       	std	Y+15, r24	; 0x0f
                }
                p--;
    2706:	8e 89       	ldd	r24, Y+22	; 0x16
    2708:	9f 89       	ldd	r25, Y+23	; 0x17
    270a:	01 97       	sbiw	r24, 0x01	; 1
    270c:	9f 8b       	std	Y+23, r25	; 0x17
    270e:	8e 8b       	std	Y+22, r24	; 0x16
    2710:	bd c2       	rjmp	.+1402   	; 0x2c8c <uart_mini_printf+0x70e>
                break;  // case 'l'
                
            case 'd':
                n_sign  = FALSE;               
    2712:	1a 8a       	std	Y+18, r1	; 0x12
                for(data_idx = 0; data_idx < (DATA_BUF_LEN-1); data_idx++)
    2714:	19 8a       	std	Y+17, r1	; 0x11
    2716:	0d c0       	rjmp	.+26     	; 0x2732 <uart_mini_printf+0x1b4>
                {
                    data_buf[data_idx] = '0';
    2718:	89 89       	ldd	r24, Y+17	; 0x11
    271a:	28 2f       	mov	r18, r24
    271c:	30 e0       	ldi	r19, 0x00	; 0
    271e:	ce 01       	movw	r24, r28
    2720:	4a 96       	adiw	r24, 0x1a	; 26
    2722:	fc 01       	movw	r30, r24
    2724:	e2 0f       	add	r30, r18
    2726:	f3 1f       	adc	r31, r19
    2728:	80 e3       	ldi	r24, 0x30	; 48
    272a:	80 83       	st	Z, r24
                p--;
                break;  // case 'l'
                
            case 'd':
                n_sign  = FALSE;               
                for(data_idx = 0; data_idx < (DATA_BUF_LEN-1); data_idx++)
    272c:	89 89       	ldd	r24, Y+17	; 0x11
    272e:	8f 5f       	subi	r24, 0xFF	; 255
    2730:	89 8b       	std	Y+17, r24	; 0x11
    2732:	89 89       	ldd	r24, Y+17	; 0x11
    2734:	8b 30       	cpi	r24, 0x0B	; 11
    2736:	80 f3       	brcs	.-32     	; 0x2718 <uart_mini_printf+0x19a>
                {
                    data_buf[data_idx] = '0';
                }
                data_buf[DATA_BUF_LEN-1] = 0;
    2738:	1d a2       	std	Y+37, r1	; 0x25
                data_idx = DATA_BUF_LEN - 2;
    273a:	8a e0       	ldi	r24, 0x0A	; 10
    273c:	89 8b       	std	Y+17, r24	; 0x11
                if (long_flag)  // 32-bit
    273e:	8f 85       	ldd	r24, Y+15	; 0x0f
    2740:	88 23       	and	r24, r24
    2742:	09 f4       	brne	.+2      	; 0x2746 <uart_mini_printf+0x1c8>
    2744:	5d c0       	rjmp	.+186    	; 0x2800 <uart_mini_printf+0x282>
                {
                    s32_val = va_arg(arg_ptr, S32);
    2746:	28 8d       	ldd	r18, Y+24	; 0x18
    2748:	39 8d       	ldd	r19, Y+25	; 0x19
    274a:	c9 01       	movw	r24, r18
    274c:	04 96       	adiw	r24, 0x04	; 4
    274e:	99 8f       	std	Y+25, r25	; 0x19
    2750:	88 8f       	std	Y+24, r24	; 0x18
    2752:	f9 01       	movw	r30, r18
    2754:	80 81       	ld	r24, Z
    2756:	91 81       	ldd	r25, Z+1	; 0x01
    2758:	a2 81       	ldd	r26, Z+2	; 0x02
    275a:	b3 81       	ldd	r27, Z+3	; 0x03
    275c:	8f 83       	std	Y+7, r24	; 0x07
    275e:	98 87       	std	Y+8, r25	; 0x08
    2760:	a9 87       	std	Y+9, r26	; 0x09
    2762:	ba 87       	std	Y+10, r27	; 0x0a
                    if (s32_val < 0)
    2764:	8f 81       	ldd	r24, Y+7	; 0x07
    2766:	98 85       	ldd	r25, Y+8	; 0x08
    2768:	a9 85       	ldd	r26, Y+9	; 0x09
    276a:	ba 85       	ldd	r27, Y+10	; 0x0a
    276c:	bb 23       	and	r27, r27
    276e:	8c f4       	brge	.+34     	; 0x2792 <uart_mini_printf+0x214>
                    {
                        n_sign = TRUE;
    2770:	81 e0       	ldi	r24, 0x01	; 1
    2772:	8a 8b       	std	Y+18, r24	; 0x12
                        s32_val  = -s32_val;
    2774:	8f 81       	ldd	r24, Y+7	; 0x07
    2776:	98 85       	ldd	r25, Y+8	; 0x08
    2778:	a9 85       	ldd	r26, Y+9	; 0x09
    277a:	ba 85       	ldd	r27, Y+10	; 0x0a
    277c:	b0 95       	com	r27
    277e:	a0 95       	com	r26
    2780:	90 95       	com	r25
    2782:	81 95       	neg	r24
    2784:	9f 4f       	sbci	r25, 0xFF	; 255
    2786:	af 4f       	sbci	r26, 0xFF	; 255
    2788:	bf 4f       	sbci	r27, 0xFF	; 255
    278a:	8f 83       	std	Y+7, r24	; 0x07
    278c:	98 87       	std	Y+8, r25	; 0x08
    278e:	a9 87       	std	Y+9, r26	; 0x09
    2790:	ba 87       	std	Y+10, r27	; 0x0a
                    }
                    while (1)
                    {
                        data_buf[data_idx] = s32_val % 10 + '0';
    2792:	89 89       	ldd	r24, Y+17	; 0x11
    2794:	08 2f       	mov	r16, r24
    2796:	10 e0       	ldi	r17, 0x00	; 0
    2798:	8f 81       	ldd	r24, Y+7	; 0x07
    279a:	98 85       	ldd	r25, Y+8	; 0x08
    279c:	a9 85       	ldd	r26, Y+9	; 0x09
    279e:	ba 85       	ldd	r27, Y+10	; 0x0a
    27a0:	2a e0       	ldi	r18, 0x0A	; 10
    27a2:	30 e0       	ldi	r19, 0x00	; 0
    27a4:	40 e0       	ldi	r20, 0x00	; 0
    27a6:	50 e0       	ldi	r21, 0x00	; 0
    27a8:	bc 01       	movw	r22, r24
    27aa:	cd 01       	movw	r24, r26
    27ac:	0e 94 a6 16 	call	0x2d4c	; 0x2d4c <__divmodsi4>
    27b0:	dc 01       	movw	r26, r24
    27b2:	cb 01       	movw	r24, r22
    27b4:	28 2f       	mov	r18, r24
    27b6:	20 5d       	subi	r18, 0xD0	; 208
    27b8:	ce 01       	movw	r24, r28
    27ba:	4a 96       	adiw	r24, 0x1a	; 26
    27bc:	fc 01       	movw	r30, r24
    27be:	e0 0f       	add	r30, r16
    27c0:	f1 1f       	adc	r31, r17
    27c2:	20 83       	st	Z, r18
                        s32_val /= 10;
    27c4:	8f 81       	ldd	r24, Y+7	; 0x07
    27c6:	98 85       	ldd	r25, Y+8	; 0x08
    27c8:	a9 85       	ldd	r26, Y+9	; 0x09
    27ca:	ba 85       	ldd	r27, Y+10	; 0x0a
    27cc:	2a e0       	ldi	r18, 0x0A	; 10
    27ce:	30 e0       	ldi	r19, 0x00	; 0
    27d0:	40 e0       	ldi	r20, 0x00	; 0
    27d2:	50 e0       	ldi	r21, 0x00	; 0
    27d4:	bc 01       	movw	r22, r24
    27d6:	cd 01       	movw	r24, r26
    27d8:	0e 94 a6 16 	call	0x2d4c	; 0x2d4c <__divmodsi4>
    27dc:	da 01       	movw	r26, r20
    27de:	c9 01       	movw	r24, r18
    27e0:	8f 83       	std	Y+7, r24	; 0x07
    27e2:	98 87       	std	Y+8, r25	; 0x08
    27e4:	a9 87       	std	Y+9, r26	; 0x09
    27e6:	ba 87       	std	Y+10, r27	; 0x0a
                        data_idx--;
    27e8:	89 89       	ldd	r24, Y+17	; 0x11
    27ea:	81 50       	subi	r24, 0x01	; 1
    27ec:	89 8b       	std	Y+17, r24	; 0x11
						if (s32_val==0) break;
    27ee:	8f 81       	ldd	r24, Y+7	; 0x07
    27f0:	98 85       	ldd	r25, Y+8	; 0x08
    27f2:	a9 85       	ldd	r26, Y+9	; 0x09
    27f4:	ba 85       	ldd	r27, Y+10	; 0x0a
    27f6:	00 97       	sbiw	r24, 0x00	; 0
    27f8:	a1 05       	cpc	r26, r1
    27fa:	b1 05       	cpc	r27, r1
    27fc:	d9 f1       	breq	.+118    	; 0x2874 <uart_mini_printf+0x2f6>
    27fe:	c9 cf       	rjmp	.-110    	; 0x2792 <uart_mini_printf+0x214>
                   }
                }
                else  // 16-bit
                {
                    s16_val = (S16)(va_arg(arg_ptr, int)); // s16_val = va_arg(arg_ptr, S16);
    2800:	28 8d       	ldd	r18, Y+24	; 0x18
    2802:	39 8d       	ldd	r19, Y+25	; 0x19
    2804:	c9 01       	movw	r24, r18
    2806:	02 96       	adiw	r24, 0x02	; 2
    2808:	99 8f       	std	Y+25, r25	; 0x19
    280a:	88 8f       	std	Y+24, r24	; 0x18
    280c:	f9 01       	movw	r30, r18
    280e:	80 81       	ld	r24, Z
    2810:	91 81       	ldd	r25, Z+1	; 0x01
    2812:	9c 87       	std	Y+12, r25	; 0x0c
    2814:	8b 87       	std	Y+11, r24	; 0x0b
                    if (s16_val < 0)
    2816:	8b 85       	ldd	r24, Y+11	; 0x0b
    2818:	9c 85       	ldd	r25, Y+12	; 0x0c
    281a:	99 23       	and	r25, r25
    281c:	4c f4       	brge	.+18     	; 0x2830 <uart_mini_printf+0x2b2>
                    {
                        n_sign = TRUE;
    281e:	81 e0       	ldi	r24, 0x01	; 1
    2820:	8a 8b       	std	Y+18, r24	; 0x12
                        s16_val  = -s16_val;
    2822:	8b 85       	ldd	r24, Y+11	; 0x0b
    2824:	9c 85       	ldd	r25, Y+12	; 0x0c
    2826:	90 95       	com	r25
    2828:	81 95       	neg	r24
    282a:	9f 4f       	sbci	r25, 0xFF	; 255
    282c:	9c 87       	std	Y+12, r25	; 0x0c
    282e:	8b 87       	std	Y+11, r24	; 0x0b
                    }
                    while (1)
                    {
                        data_buf[data_idx] = s16_val % 10 + '0';
    2830:	89 89       	ldd	r24, Y+17	; 0x11
    2832:	e8 2f       	mov	r30, r24
    2834:	f0 e0       	ldi	r31, 0x00	; 0
    2836:	8b 85       	ldd	r24, Y+11	; 0x0b
    2838:	9c 85       	ldd	r25, Y+12	; 0x0c
    283a:	2a e0       	ldi	r18, 0x0A	; 10
    283c:	30 e0       	ldi	r19, 0x00	; 0
    283e:	b9 01       	movw	r22, r18
    2840:	0e 94 71 16 	call	0x2ce2	; 0x2ce2 <__divmodhi4>
    2844:	28 2f       	mov	r18, r24
    2846:	20 5d       	subi	r18, 0xD0	; 208
    2848:	ce 01       	movw	r24, r28
    284a:	4a 96       	adiw	r24, 0x1a	; 26
    284c:	e8 0f       	add	r30, r24
    284e:	f9 1f       	adc	r31, r25
    2850:	20 83       	st	Z, r18
                        s16_val /= 10;
    2852:	8b 85       	ldd	r24, Y+11	; 0x0b
    2854:	9c 85       	ldd	r25, Y+12	; 0x0c
    2856:	2a e0       	ldi	r18, 0x0A	; 10
    2858:	30 e0       	ldi	r19, 0x00	; 0
    285a:	b9 01       	movw	r22, r18
    285c:	0e 94 71 16 	call	0x2ce2	; 0x2ce2 <__divmodhi4>
    2860:	cb 01       	movw	r24, r22
    2862:	9c 87       	std	Y+12, r25	; 0x0c
    2864:	8b 87       	std	Y+11, r24	; 0x0b
                        data_idx--;
    2866:	89 89       	ldd	r24, Y+17	; 0x11
    2868:	81 50       	subi	r24, 0x01	; 1
    286a:	89 8b       	std	Y+17, r24	; 0x11
						if (s16_val==0) break;
    286c:	8b 85       	ldd	r24, Y+11	; 0x0b
    286e:	9c 85       	ldd	r25, Y+12	; 0x0c
    2870:	00 97       	sbiw	r24, 0x00	; 0
    2872:	f1 f6       	brne	.-68     	; 0x2830 <uart_mini_printf+0x2b2>
                    }
                }
                if (n_sign) { uart_putchar('-'); }
    2874:	8a 89       	ldd	r24, Y+18	; 0x12
    2876:	88 23       	and	r24, r24
    2878:	19 f0       	breq	.+6      	; 0x2880 <uart_mini_printf+0x302>
    287a:	8d e2       	ldi	r24, 0x2D	; 45
    287c:	0e 94 67 12 	call	0x24ce	; 0x24ce <uart_putchar>
                data_idx++;
    2880:	89 89       	ldd	r24, Y+17	; 0x11
    2882:	8f 5f       	subi	r24, 0xFF	; 255
    2884:	89 8b       	std	Y+17, r24	; 0x11
                if (min_size < data_idx)
    2886:	98 89       	ldd	r25, Y+16	; 0x10
    2888:	89 89       	ldd	r24, Y+17	; 0x11
    288a:	98 17       	cp	r25, r24
    288c:	10 f4       	brcc	.+4      	; 0x2892 <uart_mini_printf+0x314>
                {
                    data_idx = min_size;
    288e:	88 89       	ldd	r24, Y+16	; 0x10
    2890:	89 8b       	std	Y+17, r24	; 0x11
                }
                uart_put_string (data_buf + data_idx);
    2892:	89 89       	ldd	r24, Y+17	; 0x11
    2894:	28 2f       	mov	r18, r24
    2896:	30 e0       	ldi	r19, 0x00	; 0
    2898:	ce 01       	movw	r24, r28
    289a:	4a 96       	adiw	r24, 0x1a	; 26
    289c:	82 0f       	add	r24, r18
    289e:	93 1f       	adc	r25, r19
    28a0:	0e 94 a2 12 	call	0x2544	; 0x2544 <uart_put_string>
                // Clean up
                min_size = DATA_BUF_LEN-1;
    28a4:	8b e0       	ldi	r24, 0x0B	; 11
    28a6:	88 8b       	std	Y+16, r24	; 0x10
                alt_p_c = FALSE;
    28a8:	1e 86       	std	Y+14, r1	; 0x0e
                long_flag = FALSE;
    28aa:	1f 86       	std	Y+15, r1	; 0x0f
    28ac:	ef c1       	rjmp	.+990    	; 0x2c8c <uart_mini_printf+0x70e>
                break;  // case 'd'
                
            case 'u':
                for(data_idx = 0; data_idx < (DATA_BUF_LEN-1); data_idx++)
    28ae:	19 8a       	std	Y+17, r1	; 0x11
    28b0:	0d c0       	rjmp	.+26     	; 0x28cc <uart_mini_printf+0x34e>
                {
                    data_buf[data_idx] = '0';
    28b2:	89 89       	ldd	r24, Y+17	; 0x11
    28b4:	28 2f       	mov	r18, r24
    28b6:	30 e0       	ldi	r19, 0x00	; 0
    28b8:	ce 01       	movw	r24, r28
    28ba:	4a 96       	adiw	r24, 0x1a	; 26
    28bc:	fc 01       	movw	r30, r24
    28be:	e2 0f       	add	r30, r18
    28c0:	f3 1f       	adc	r31, r19
    28c2:	80 e3       	ldi	r24, 0x30	; 48
    28c4:	80 83       	st	Z, r24
                alt_p_c = FALSE;
                long_flag = FALSE;
                break;  // case 'd'
                
            case 'u':
                for(data_idx = 0; data_idx < (DATA_BUF_LEN-1); data_idx++)
    28c6:	89 89       	ldd	r24, Y+17	; 0x11
    28c8:	8f 5f       	subi	r24, 0xFF	; 255
    28ca:	89 8b       	std	Y+17, r24	; 0x11
    28cc:	89 89       	ldd	r24, Y+17	; 0x11
    28ce:	8b 30       	cpi	r24, 0x0B	; 11
    28d0:	80 f3       	brcs	.-32     	; 0x28b2 <uart_mini_printf+0x334>
                {
                    data_buf[data_idx] = '0';
                }
                data_buf[DATA_BUF_LEN-1] = 0;
    28d2:	1d a2       	std	Y+37, r1	; 0x25
                data_idx = DATA_BUF_LEN - 2;
    28d4:	8a e0       	ldi	r24, 0x0A	; 10
    28d6:	89 8b       	std	Y+17, r24	; 0x11
                if (long_flag)  // 32-bit
    28d8:	8f 85       	ldd	r24, Y+15	; 0x0f
    28da:	88 23       	and	r24, r24
    28dc:	09 f4       	brne	.+2      	; 0x28e0 <uart_mini_printf+0x362>
    28de:	46 c0       	rjmp	.+140    	; 0x296c <uart_mini_printf+0x3ee>
                {
                    u32_val = va_arg(arg_ptr, U32);
    28e0:	28 8d       	ldd	r18, Y+24	; 0x18
    28e2:	39 8d       	ldd	r19, Y+25	; 0x19
    28e4:	c9 01       	movw	r24, r18
    28e6:	04 96       	adiw	r24, 0x04	; 4
    28e8:	99 8f       	std	Y+25, r25	; 0x19
    28ea:	88 8f       	std	Y+24, r24	; 0x18
    28ec:	f9 01       	movw	r30, r18
    28ee:	80 81       	ld	r24, Z
    28f0:	91 81       	ldd	r25, Z+1	; 0x01
    28f2:	a2 81       	ldd	r26, Z+2	; 0x02
    28f4:	b3 81       	ldd	r27, Z+3	; 0x03
    28f6:	89 83       	std	Y+1, r24	; 0x01
    28f8:	9a 83       	std	Y+2, r25	; 0x02
    28fa:	ab 83       	std	Y+3, r26	; 0x03
    28fc:	bc 83       	std	Y+4, r27	; 0x04
                    while (1)
                    {
                        data_buf[data_idx] = u32_val % 10 + '0';
    28fe:	89 89       	ldd	r24, Y+17	; 0x11
    2900:	08 2f       	mov	r16, r24
    2902:	10 e0       	ldi	r17, 0x00	; 0
    2904:	89 81       	ldd	r24, Y+1	; 0x01
    2906:	9a 81       	ldd	r25, Y+2	; 0x02
    2908:	ab 81       	ldd	r26, Y+3	; 0x03
    290a:	bc 81       	ldd	r27, Y+4	; 0x04
    290c:	2a e0       	ldi	r18, 0x0A	; 10
    290e:	30 e0       	ldi	r19, 0x00	; 0
    2910:	40 e0       	ldi	r20, 0x00	; 0
    2912:	50 e0       	ldi	r21, 0x00	; 0
    2914:	bc 01       	movw	r22, r24
    2916:	cd 01       	movw	r24, r26
    2918:	0e 94 84 16 	call	0x2d08	; 0x2d08 <__udivmodsi4>
    291c:	dc 01       	movw	r26, r24
    291e:	cb 01       	movw	r24, r22
    2920:	28 2f       	mov	r18, r24
    2922:	20 5d       	subi	r18, 0xD0	; 208
    2924:	ce 01       	movw	r24, r28
    2926:	4a 96       	adiw	r24, 0x1a	; 26
    2928:	fc 01       	movw	r30, r24
    292a:	e0 0f       	add	r30, r16
    292c:	f1 1f       	adc	r31, r17
    292e:	20 83       	st	Z, r18
                        u32_val /= 10;
    2930:	89 81       	ldd	r24, Y+1	; 0x01
    2932:	9a 81       	ldd	r25, Y+2	; 0x02
    2934:	ab 81       	ldd	r26, Y+3	; 0x03
    2936:	bc 81       	ldd	r27, Y+4	; 0x04
    2938:	2a e0       	ldi	r18, 0x0A	; 10
    293a:	30 e0       	ldi	r19, 0x00	; 0
    293c:	40 e0       	ldi	r20, 0x00	; 0
    293e:	50 e0       	ldi	r21, 0x00	; 0
    2940:	bc 01       	movw	r22, r24
    2942:	cd 01       	movw	r24, r26
    2944:	0e 94 84 16 	call	0x2d08	; 0x2d08 <__udivmodsi4>
    2948:	da 01       	movw	r26, r20
    294a:	c9 01       	movw	r24, r18
    294c:	89 83       	std	Y+1, r24	; 0x01
    294e:	9a 83       	std	Y+2, r25	; 0x02
    2950:	ab 83       	std	Y+3, r26	; 0x03
    2952:	bc 83       	std	Y+4, r27	; 0x04
                        data_idx--;
    2954:	89 89       	ldd	r24, Y+17	; 0x11
    2956:	81 50       	subi	r24, 0x01	; 1
    2958:	89 8b       	std	Y+17, r24	; 0x11
						if (u32_val==0) break;
    295a:	89 81       	ldd	r24, Y+1	; 0x01
    295c:	9a 81       	ldd	r25, Y+2	; 0x02
    295e:	ab 81       	ldd	r26, Y+3	; 0x03
    2960:	bc 81       	ldd	r27, Y+4	; 0x04
    2962:	00 97       	sbiw	r24, 0x00	; 0
    2964:	a1 05       	cpc	r26, r1
    2966:	b1 05       	cpc	r27, r1
    2968:	71 f1       	breq	.+92     	; 0x29c6 <uart_mini_printf+0x448>
    296a:	c9 cf       	rjmp	.-110    	; 0x28fe <uart_mini_printf+0x380>
                    }
                }
                else  // 16-bit
                {
                    u16_val = (U16)(va_arg(arg_ptr, int)); // u16_val = va_arg(arg_ptr, U16);
    296c:	28 8d       	ldd	r18, Y+24	; 0x18
    296e:	39 8d       	ldd	r19, Y+25	; 0x19
    2970:	c9 01       	movw	r24, r18
    2972:	02 96       	adiw	r24, 0x02	; 2
    2974:	99 8f       	std	Y+25, r25	; 0x19
    2976:	88 8f       	std	Y+24, r24	; 0x18
    2978:	f9 01       	movw	r30, r18
    297a:	80 81       	ld	r24, Z
    297c:	91 81       	ldd	r25, Z+1	; 0x01
    297e:	9e 83       	std	Y+6, r25	; 0x06
    2980:	8d 83       	std	Y+5, r24	; 0x05
                    while (1)
                    {
                        data_buf[data_idx] = u16_val % 10 + '0';
    2982:	89 89       	ldd	r24, Y+17	; 0x11
    2984:	e8 2f       	mov	r30, r24
    2986:	f0 e0       	ldi	r31, 0x00	; 0
    2988:	8d 81       	ldd	r24, Y+5	; 0x05
    298a:	9e 81       	ldd	r25, Y+6	; 0x06
    298c:	2a e0       	ldi	r18, 0x0A	; 10
    298e:	30 e0       	ldi	r19, 0x00	; 0
    2990:	b9 01       	movw	r22, r18
    2992:	0e 94 5d 16 	call	0x2cba	; 0x2cba <__udivmodhi4>
    2996:	28 2f       	mov	r18, r24
    2998:	20 5d       	subi	r18, 0xD0	; 208
    299a:	ce 01       	movw	r24, r28
    299c:	4a 96       	adiw	r24, 0x1a	; 26
    299e:	e8 0f       	add	r30, r24
    29a0:	f9 1f       	adc	r31, r25
    29a2:	20 83       	st	Z, r18
                        data_idx--;
    29a4:	89 89       	ldd	r24, Y+17	; 0x11
    29a6:	81 50       	subi	r24, 0x01	; 1
    29a8:	89 8b       	std	Y+17, r24	; 0x11
                        u16_val /= 10;
    29aa:	8d 81       	ldd	r24, Y+5	; 0x05
    29ac:	9e 81       	ldd	r25, Y+6	; 0x06
    29ae:	2a e0       	ldi	r18, 0x0A	; 10
    29b0:	30 e0       	ldi	r19, 0x00	; 0
    29b2:	b9 01       	movw	r22, r18
    29b4:	0e 94 5d 16 	call	0x2cba	; 0x2cba <__udivmodhi4>
    29b8:	cb 01       	movw	r24, r22
    29ba:	9e 83       	std	Y+6, r25	; 0x06
    29bc:	8d 83       	std	Y+5, r24	; 0x05
						if (u16_val==0) break;
    29be:	8d 81       	ldd	r24, Y+5	; 0x05
    29c0:	9e 81       	ldd	r25, Y+6	; 0x06
    29c2:	00 97       	sbiw	r24, 0x00	; 0
    29c4:	f1 f6       	brne	.-68     	; 0x2982 <uart_mini_printf+0x404>
                    }
                }
                data_idx++;
    29c6:	89 89       	ldd	r24, Y+17	; 0x11
    29c8:	8f 5f       	subi	r24, 0xFF	; 255
    29ca:	89 8b       	std	Y+17, r24	; 0x11
                if (min_size < data_idx)
    29cc:	98 89       	ldd	r25, Y+16	; 0x10
    29ce:	89 89       	ldd	r24, Y+17	; 0x11
    29d0:	98 17       	cp	r25, r24
    29d2:	10 f4       	brcc	.+4      	; 0x29d8 <uart_mini_printf+0x45a>
                {
                    data_idx = min_size;
    29d4:	88 89       	ldd	r24, Y+16	; 0x10
    29d6:	89 8b       	std	Y+17, r24	; 0x11
                }
                uart_put_string (data_buf + data_idx);
    29d8:	89 89       	ldd	r24, Y+17	; 0x11
    29da:	28 2f       	mov	r18, r24
    29dc:	30 e0       	ldi	r19, 0x00	; 0
    29de:	ce 01       	movw	r24, r28
    29e0:	4a 96       	adiw	r24, 0x1a	; 26
    29e2:	82 0f       	add	r24, r18
    29e4:	93 1f       	adc	r25, r19
    29e6:	0e 94 a2 12 	call	0x2544	; 0x2544 <uart_put_string>
                // Clean up
                min_size = DATA_BUF_LEN-1;
    29ea:	8b e0       	ldi	r24, 0x0B	; 11
    29ec:	88 8b       	std	Y+16, r24	; 0x10
                alt_p_c = FALSE;
    29ee:	1e 86       	std	Y+14, r1	; 0x0e
                long_flag = FALSE;
    29f0:	1f 86       	std	Y+15, r1	; 0x0f
    29f2:	4c c1       	rjmp	.+664    	; 0x2c8c <uart_mini_printf+0x70e>
                break;  // case 'u':
                
            case 'x':
            case 'X':
                for(data_idx = 0; data_idx < (DATA_BUF_LEN-1); data_idx++)
    29f4:	19 8a       	std	Y+17, r1	; 0x11
    29f6:	0d c0       	rjmp	.+26     	; 0x2a12 <uart_mini_printf+0x494>
                {
                    data_buf[data_idx] = '0';
    29f8:	89 89       	ldd	r24, Y+17	; 0x11
    29fa:	28 2f       	mov	r18, r24
    29fc:	30 e0       	ldi	r19, 0x00	; 0
    29fe:	ce 01       	movw	r24, r28
    2a00:	4a 96       	adiw	r24, 0x1a	; 26
    2a02:	fc 01       	movw	r30, r24
    2a04:	e2 0f       	add	r30, r18
    2a06:	f3 1f       	adc	r31, r19
    2a08:	80 e3       	ldi	r24, 0x30	; 48
    2a0a:	80 83       	st	Z, r24
                long_flag = FALSE;
                break;  // case 'u':
                
            case 'x':
            case 'X':
                for(data_idx = 0; data_idx < (DATA_BUF_LEN-1); data_idx++)
    2a0c:	89 89       	ldd	r24, Y+17	; 0x11
    2a0e:	8f 5f       	subi	r24, 0xFF	; 255
    2a10:	89 8b       	std	Y+17, r24	; 0x11
    2a12:	89 89       	ldd	r24, Y+17	; 0x11
    2a14:	8b 30       	cpi	r24, 0x0B	; 11
    2a16:	80 f3       	brcs	.-32     	; 0x29f8 <uart_mini_printf+0x47a>
                {
                    data_buf[data_idx] = '0';
                }
                data_buf[DATA_BUF_LEN-1] = 0;
    2a18:	1d a2       	std	Y+37, r1	; 0x25
                data_idx = DATA_BUF_LEN - 2;
    2a1a:	8a e0       	ldi	r24, 0x0A	; 10
    2a1c:	89 8b       	std	Y+17, r24	; 0x11
                if (long_flag)  // 32-bit
    2a1e:	8f 85       	ldd	r24, Y+15	; 0x0f
    2a20:	88 23       	and	r24, r24
    2a22:	09 f4       	brne	.+2      	; 0x2a26 <uart_mini_printf+0x4a8>
    2a24:	55 c0       	rjmp	.+170    	; 0x2ad0 <uart_mini_printf+0x552>
                { 
                    u32_val = va_arg(arg_ptr, U32);
    2a26:	28 8d       	ldd	r18, Y+24	; 0x18
    2a28:	39 8d       	ldd	r19, Y+25	; 0x19
    2a2a:	c9 01       	movw	r24, r18
    2a2c:	04 96       	adiw	r24, 0x04	; 4
    2a2e:	99 8f       	std	Y+25, r25	; 0x19
    2a30:	88 8f       	std	Y+24, r24	; 0x18
    2a32:	f9 01       	movw	r30, r18
    2a34:	80 81       	ld	r24, Z
    2a36:	91 81       	ldd	r25, Z+1	; 0x01
    2a38:	a2 81       	ldd	r26, Z+2	; 0x02
    2a3a:	b3 81       	ldd	r27, Z+3	; 0x03
    2a3c:	89 83       	std	Y+1, r24	; 0x01
    2a3e:	9a 83       	std	Y+2, r25	; 0x02
    2a40:	ab 83       	std	Y+3, r26	; 0x03
    2a42:	bc 83       	std	Y+4, r27	; 0x04
    2a44:	3b c0       	rjmp	.+118    	; 0x2abc <uart_mini_printf+0x53e>
                    while (u32_val)
                    {
                        u8_temp = (U8)(u32_val & 0x0F);
    2a46:	89 81       	ldd	r24, Y+1	; 0x01
    2a48:	8f 70       	andi	r24, 0x0F	; 15
    2a4a:	8b 8b       	std	Y+19, r24	; 0x13
                        data_buf[data_idx] = (u8_temp < 10)? u8_temp+'0':u8_temp-10+(*p=='x'?'a':'A');
    2a4c:	89 89       	ldd	r24, Y+17	; 0x11
    2a4e:	28 2f       	mov	r18, r24
    2a50:	30 e0       	ldi	r19, 0x00	; 0
    2a52:	3d a7       	std	Y+45, r19	; 0x2d
    2a54:	2c a7       	std	Y+44, r18	; 0x2c
    2a56:	8b 89       	ldd	r24, Y+19	; 0x13
    2a58:	8a 30       	cpi	r24, 0x0A	; 10
    2a5a:	28 f4       	brcc	.+10     	; 0x2a66 <uart_mini_printf+0x4e8>
    2a5c:	8b 89       	ldd	r24, Y+19	; 0x13
    2a5e:	38 2f       	mov	r19, r24
    2a60:	30 5d       	subi	r19, 0xD0	; 208
    2a62:	3b a7       	std	Y+43, r19	; 0x2b
    2a64:	10 c0       	rjmp	.+32     	; 0x2a86 <uart_mini_printf+0x508>
    2a66:	ee 89       	ldd	r30, Y+22	; 0x16
    2a68:	ff 89       	ldd	r31, Y+23	; 0x17
    2a6a:	80 81       	ld	r24, Z
    2a6c:	88 37       	cpi	r24, 0x78	; 120
    2a6e:	19 f4       	brne	.+6      	; 0x2a76 <uart_mini_printf+0x4f8>
    2a70:	81 e6       	ldi	r24, 0x61	; 97
    2a72:	8a a7       	std	Y+42, r24	; 0x2a
    2a74:	02 c0       	rjmp	.+4      	; 0x2a7a <uart_mini_printf+0x4fc>
    2a76:	91 e4       	ldi	r25, 0x41	; 65
    2a78:	9a a7       	std	Y+42, r25	; 0x2a
    2a7a:	8b 89       	ldd	r24, Y+19	; 0x13
    2a7c:	2a a5       	ldd	r18, Y+42	; 0x2a
    2a7e:	82 0f       	add	r24, r18
    2a80:	38 2f       	mov	r19, r24
    2a82:	3a 50       	subi	r19, 0x0A	; 10
    2a84:	3b a7       	std	Y+43, r19	; 0x2b
    2a86:	ce 01       	movw	r24, r28
    2a88:	4a 96       	adiw	r24, 0x1a	; 26
    2a8a:	ec a5       	ldd	r30, Y+44	; 0x2c
    2a8c:	fd a5       	ldd	r31, Y+45	; 0x2d
    2a8e:	e8 0f       	add	r30, r24
    2a90:	f9 1f       	adc	r31, r25
    2a92:	8b a5       	ldd	r24, Y+43	; 0x2b
    2a94:	80 83       	st	Z, r24
                        u32_val >>= 4;
    2a96:	89 81       	ldd	r24, Y+1	; 0x01
    2a98:	9a 81       	ldd	r25, Y+2	; 0x02
    2a9a:	ab 81       	ldd	r26, Y+3	; 0x03
    2a9c:	bc 81       	ldd	r27, Y+4	; 0x04
    2a9e:	68 94       	set
    2aa0:	13 f8       	bld	r1, 3
    2aa2:	b6 95       	lsr	r27
    2aa4:	a7 95       	ror	r26
    2aa6:	97 95       	ror	r25
    2aa8:	87 95       	ror	r24
    2aaa:	16 94       	lsr	r1
    2aac:	d1 f7       	brne	.-12     	; 0x2aa2 <uart_mini_printf+0x524>
    2aae:	89 83       	std	Y+1, r24	; 0x01
    2ab0:	9a 83       	std	Y+2, r25	; 0x02
    2ab2:	ab 83       	std	Y+3, r26	; 0x03
    2ab4:	bc 83       	std	Y+4, r27	; 0x04
                        data_idx--;
    2ab6:	89 89       	ldd	r24, Y+17	; 0x11
    2ab8:	81 50       	subi	r24, 0x01	; 1
    2aba:	89 8b       	std	Y+17, r24	; 0x11
                data_buf[DATA_BUF_LEN-1] = 0;
                data_idx = DATA_BUF_LEN - 2;
                if (long_flag)  // 32-bit
                { 
                    u32_val = va_arg(arg_ptr, U32);
                    while (u32_val)
    2abc:	89 81       	ldd	r24, Y+1	; 0x01
    2abe:	9a 81       	ldd	r25, Y+2	; 0x02
    2ac0:	ab 81       	ldd	r26, Y+3	; 0x03
    2ac2:	bc 81       	ldd	r27, Y+4	; 0x04
    2ac4:	00 97       	sbiw	r24, 0x00	; 0
    2ac6:	a1 05       	cpc	r26, r1
    2ac8:	b1 05       	cpc	r27, r1
    2aca:	09 f0       	breq	.+2      	; 0x2ace <uart_mini_printf+0x550>
    2acc:	bc cf       	rjmp	.-136    	; 0x2a46 <uart_mini_printf+0x4c8>
    2ace:	45 c0       	rjmp	.+138    	; 0x2b5a <uart_mini_printf+0x5dc>
                        data_idx--;
                    }
                }
                else  // 16-bit
                {
                    u16_val = (U16)(va_arg(arg_ptr, int)); // u16_val = va_arg(arg_ptr, U16);
    2ad0:	28 8d       	ldd	r18, Y+24	; 0x18
    2ad2:	39 8d       	ldd	r19, Y+25	; 0x19
    2ad4:	c9 01       	movw	r24, r18
    2ad6:	02 96       	adiw	r24, 0x02	; 2
    2ad8:	99 8f       	std	Y+25, r25	; 0x19
    2ada:	88 8f       	std	Y+24, r24	; 0x18
    2adc:	f9 01       	movw	r30, r18
    2ade:	80 81       	ld	r24, Z
    2ae0:	91 81       	ldd	r25, Z+1	; 0x01
    2ae2:	9e 83       	std	Y+6, r25	; 0x06
    2ae4:	8d 83       	std	Y+5, r24	; 0x05
    2ae6:	35 c0       	rjmp	.+106    	; 0x2b52 <uart_mini_printf+0x5d4>
                    while (u16_val)
                    {
                        u8_temp = (U8)(u16_val & 0x0F);
    2ae8:	8d 81       	ldd	r24, Y+5	; 0x05
    2aea:	8f 70       	andi	r24, 0x0F	; 15
    2aec:	8b 8b       	std	Y+19, r24	; 0x13
                        data_buf[data_idx] = (u8_temp < 10)? u8_temp+'0':u8_temp-10+(*p=='x'?'a':'A');
    2aee:	89 89       	ldd	r24, Y+17	; 0x11
    2af0:	28 2f       	mov	r18, r24
    2af2:	30 e0       	ldi	r19, 0x00	; 0
    2af4:	39 a7       	std	Y+41, r19	; 0x29
    2af6:	28 a7       	std	Y+40, r18	; 0x28
    2af8:	8b 89       	ldd	r24, Y+19	; 0x13
    2afa:	8a 30       	cpi	r24, 0x0A	; 10
    2afc:	28 f4       	brcc	.+10     	; 0x2b08 <uart_mini_printf+0x58a>
    2afe:	8b 89       	ldd	r24, Y+19	; 0x13
    2b00:	38 2f       	mov	r19, r24
    2b02:	30 5d       	subi	r19, 0xD0	; 208
    2b04:	3f a3       	std	Y+39, r19	; 0x27
    2b06:	10 c0       	rjmp	.+32     	; 0x2b28 <uart_mini_printf+0x5aa>
    2b08:	ee 89       	ldd	r30, Y+22	; 0x16
    2b0a:	ff 89       	ldd	r31, Y+23	; 0x17
    2b0c:	80 81       	ld	r24, Z
    2b0e:	88 37       	cpi	r24, 0x78	; 120
    2b10:	19 f4       	brne	.+6      	; 0x2b18 <uart_mini_printf+0x59a>
    2b12:	81 e6       	ldi	r24, 0x61	; 97
    2b14:	8e a3       	std	Y+38, r24	; 0x26
    2b16:	02 c0       	rjmp	.+4      	; 0x2b1c <uart_mini_printf+0x59e>
    2b18:	91 e4       	ldi	r25, 0x41	; 65
    2b1a:	9e a3       	std	Y+38, r25	; 0x26
    2b1c:	8b 89       	ldd	r24, Y+19	; 0x13
    2b1e:	2e a1       	ldd	r18, Y+38	; 0x26
    2b20:	82 0f       	add	r24, r18
    2b22:	38 2f       	mov	r19, r24
    2b24:	3a 50       	subi	r19, 0x0A	; 10
    2b26:	3f a3       	std	Y+39, r19	; 0x27
    2b28:	ce 01       	movw	r24, r28
    2b2a:	4a 96       	adiw	r24, 0x1a	; 26
    2b2c:	e8 a5       	ldd	r30, Y+40	; 0x28
    2b2e:	f9 a5       	ldd	r31, Y+41	; 0x29
    2b30:	e8 0f       	add	r30, r24
    2b32:	f9 1f       	adc	r31, r25
    2b34:	8f a1       	ldd	r24, Y+39	; 0x27
    2b36:	80 83       	st	Z, r24
                        u16_val >>= 4;
    2b38:	8d 81       	ldd	r24, Y+5	; 0x05
    2b3a:	9e 81       	ldd	r25, Y+6	; 0x06
    2b3c:	92 95       	swap	r25
    2b3e:	82 95       	swap	r24
    2b40:	8f 70       	andi	r24, 0x0F	; 15
    2b42:	89 27       	eor	r24, r25
    2b44:	9f 70       	andi	r25, 0x0F	; 15
    2b46:	89 27       	eor	r24, r25
    2b48:	9e 83       	std	Y+6, r25	; 0x06
    2b4a:	8d 83       	std	Y+5, r24	; 0x05
                        data_idx--;
    2b4c:	89 89       	ldd	r24, Y+17	; 0x11
    2b4e:	81 50       	subi	r24, 0x01	; 1
    2b50:	89 8b       	std	Y+17, r24	; 0x11
                    }
                }
                else  // 16-bit
                {
                    u16_val = (U16)(va_arg(arg_ptr, int)); // u16_val = va_arg(arg_ptr, U16);
                    while (u16_val)
    2b52:	8d 81       	ldd	r24, Y+5	; 0x05
    2b54:	9e 81       	ldd	r25, Y+6	; 0x06
    2b56:	00 97       	sbiw	r24, 0x00	; 0
    2b58:	39 f6       	brne	.-114    	; 0x2ae8 <uart_mini_printf+0x56a>
                        data_buf[data_idx] = (u8_temp < 10)? u8_temp+'0':u8_temp-10+(*p=='x'?'a':'A');
                        u16_val >>= 4;
                        data_idx--;
                    }
                }
                data_idx++;
    2b5a:	89 89       	ldd	r24, Y+17	; 0x11
    2b5c:	8f 5f       	subi	r24, 0xFF	; 255
    2b5e:	89 8b       	std	Y+17, r24	; 0x11
                if (min_size < data_idx)
    2b60:	98 89       	ldd	r25, Y+16	; 0x10
    2b62:	89 89       	ldd	r24, Y+17	; 0x11
    2b64:	98 17       	cp	r25, r24
    2b66:	10 f4       	brcc	.+4      	; 0x2b6c <uart_mini_printf+0x5ee>
                {
                    data_idx = min_size;
    2b68:	88 89       	ldd	r24, Y+16	; 0x10
    2b6a:	89 8b       	std	Y+17, r24	; 0x11
                }
                uart_put_string (data_buf + data_idx);
    2b6c:	89 89       	ldd	r24, Y+17	; 0x11
    2b6e:	28 2f       	mov	r18, r24
    2b70:	30 e0       	ldi	r19, 0x00	; 0
    2b72:	ce 01       	movw	r24, r28
    2b74:	4a 96       	adiw	r24, 0x1a	; 26
    2b76:	82 0f       	add	r24, r18
    2b78:	93 1f       	adc	r25, r19
    2b7a:	0e 94 a2 12 	call	0x2544	; 0x2544 <uart_put_string>
                // Clean up
                min_size = DATA_BUF_LEN-1;
    2b7e:	8b e0       	ldi	r24, 0x0B	; 11
    2b80:	88 8b       	std	Y+16, r24	; 0x10
                alt_p_c = FALSE;
    2b82:	1e 86       	std	Y+14, r1	; 0x0e
                long_flag = FALSE;
    2b84:	1f 86       	std	Y+15, r1	; 0x0f
    2b86:	82 c0       	rjmp	.+260    	; 0x2c8c <uart_mini_printf+0x70e>
                break;  // case 'x' & 'X'
                
            case '0':   // Max allowed "min_size" 2 decimal digit, truncated to DATA_BUF_LEN-1.
                min_size = DATA_BUF_LEN-1;
    2b88:	8b e0       	ldi	r24, 0x0B	; 11
    2b8a:	88 8b       	std	Y+16, r24	; 0x10
                if (long_flag == TRUE)      // ERROR: 'l' before '0'
    2b8c:	8f 85       	ldd	r24, Y+15	; 0x0f
    2b8e:	81 30       	cpi	r24, 0x01	; 1
    2b90:	49 f4       	brne	.+18     	; 0x2ba4 <uart_mini_printf+0x626>
                {
                    uart_putchar('l');
    2b92:	8c e6       	ldi	r24, 0x6C	; 108
    2b94:	0e 94 67 12 	call	0x24ce	; 0x24ce <uart_putchar>
                    uart_putchar('0');
    2b98:	80 e3       	ldi	r24, 0x30	; 48
    2b9a:	0e 94 67 12 	call	0x24ce	; 0x24ce <uart_putchar>
                    // Clean up
                    alt_p_c = FALSE;
    2b9e:	1e 86       	std	Y+14, r1	; 0x0e
                    long_flag = FALSE;
    2ba0:	1f 86       	std	Y+15, r1	; 0x0f
    2ba2:	74 c0       	rjmp	.+232    	; 0x2c8c <uart_mini_printf+0x70e>
                    break;
                }
                u8_temp = *++p;
    2ba4:	8e 89       	ldd	r24, Y+22	; 0x16
    2ba6:	9f 89       	ldd	r25, Y+23	; 0x17
    2ba8:	01 96       	adiw	r24, 0x01	; 1
    2baa:	9f 8b       	std	Y+23, r25	; 0x17
    2bac:	8e 8b       	std	Y+22, r24	; 0x16
    2bae:	ee 89       	ldd	r30, Y+22	; 0x16
    2bb0:	ff 89       	ldd	r31, Y+23	; 0x17
    2bb2:	80 81       	ld	r24, Z
    2bb4:	8b 8b       	std	Y+19, r24	; 0x13
                if ((u8_temp >='0') && (u8_temp <='9'))
    2bb6:	8b 89       	ldd	r24, Y+19	; 0x13
    2bb8:	80 33       	cpi	r24, 0x30	; 48
    2bba:	08 f4       	brcc	.+2      	; 0x2bbe <uart_mini_printf+0x640>
    2bbc:	4d c0       	rjmp	.+154    	; 0x2c58 <uart_mini_printf+0x6da>
    2bbe:	8b 89       	ldd	r24, Y+19	; 0x13
    2bc0:	8a 33       	cpi	r24, 0x3A	; 58
    2bc2:	08 f0       	brcs	.+2      	; 0x2bc6 <uart_mini_printf+0x648>
    2bc4:	49 c0       	rjmp	.+146    	; 0x2c58 <uart_mini_printf+0x6da>
                {
                    min_size = u8_temp & 0x0F;
    2bc6:	8b 89       	ldd	r24, Y+19	; 0x13
    2bc8:	8f 70       	andi	r24, 0x0F	; 15
    2bca:	88 8b       	std	Y+16, r24	; 0x10
                    u8_temp = *++p;
    2bcc:	8e 89       	ldd	r24, Y+22	; 0x16
    2bce:	9f 89       	ldd	r25, Y+23	; 0x17
    2bd0:	01 96       	adiw	r24, 0x01	; 1
    2bd2:	9f 8b       	std	Y+23, r25	; 0x17
    2bd4:	8e 8b       	std	Y+22, r24	; 0x16
    2bd6:	ee 89       	ldd	r30, Y+22	; 0x16
    2bd8:	ff 89       	ldd	r31, Y+23	; 0x17
    2bda:	80 81       	ld	r24, Z
    2bdc:	8b 8b       	std	Y+19, r24	; 0x13
                    if ((u8_temp >='0') && (u8_temp <='9'))
    2bde:	8b 89       	ldd	r24, Y+19	; 0x13
    2be0:	80 33       	cpi	r24, 0x30	; 48
    2be2:	90 f0       	brcs	.+36     	; 0x2c08 <uart_mini_printf+0x68a>
    2be4:	8b 89       	ldd	r24, Y+19	; 0x13
    2be6:	8a 33       	cpi	r24, 0x3A	; 58
    2be8:	78 f4       	brcc	.+30     	; 0x2c08 <uart_mini_printf+0x68a>
                    {
                        min_size <<= 4;
    2bea:	88 89       	ldd	r24, Y+16	; 0x10
    2bec:	82 95       	swap	r24
    2bee:	80 7f       	andi	r24, 0xF0	; 240
    2bf0:	88 8b       	std	Y+16, r24	; 0x10
                        min_size |= (u8_temp & 0x0F);
    2bf2:	8b 89       	ldd	r24, Y+19	; 0x13
    2bf4:	98 2f       	mov	r25, r24
    2bf6:	9f 70       	andi	r25, 0x0F	; 15
    2bf8:	88 89       	ldd	r24, Y+16	; 0x10
    2bfa:	89 2b       	or	r24, r25
    2bfc:	88 8b       	std	Y+16, r24	; 0x10
                        p++;
    2bfe:	8e 89       	ldd	r24, Y+22	; 0x16
    2c00:	9f 89       	ldd	r25, Y+23	; 0x17
    2c02:	01 96       	adiw	r24, 0x01	; 1
    2c04:	9f 8b       	std	Y+23, r25	; 0x17
    2c06:	8e 8b       	std	Y+22, r24	; 0x16
                    }
                    min_size = ((min_size & 0x0F) + ((min_size >> 4) *10));  // Decimal to hexa
    2c08:	88 89       	ldd	r24, Y+16	; 0x10
    2c0a:	48 2f       	mov	r20, r24
    2c0c:	4f 70       	andi	r20, 0x0F	; 15
    2c0e:	88 89       	ldd	r24, Y+16	; 0x10
    2c10:	82 95       	swap	r24
    2c12:	8f 70       	andi	r24, 0x0F	; 15
    2c14:	88 2f       	mov	r24, r24
    2c16:	90 e0       	ldi	r25, 0x00	; 0
    2c18:	9c 01       	movw	r18, r24
    2c1a:	22 0f       	add	r18, r18
    2c1c:	33 1f       	adc	r19, r19
    2c1e:	c9 01       	movw	r24, r18
    2c20:	88 0f       	add	r24, r24
    2c22:	99 1f       	adc	r25, r25
    2c24:	88 0f       	add	r24, r24
    2c26:	99 1f       	adc	r25, r25
    2c28:	82 0f       	add	r24, r18
    2c2a:	93 1f       	adc	r25, r19
    2c2c:	84 0f       	add	r24, r20
    2c2e:	88 8b       	std	Y+16, r24	; 0x10
                    if (min_size > (DATA_BUF_LEN-1))
    2c30:	88 89       	ldd	r24, Y+16	; 0x10
    2c32:	8c 30       	cpi	r24, 0x0C	; 12
    2c34:	10 f0       	brcs	.+4      	; 0x2c3a <uart_mini_printf+0x6bc>
                    {
                        min_size = (DATA_BUF_LEN-1);
    2c36:	8b e0       	ldi	r24, 0x0B	; 11
    2c38:	88 8b       	std	Y+16, r24	; 0x10
                    }  // Truncation
                    min_size = DATA_BUF_LEN-1 - min_size;  // "min_size" formatted as "data_ix"
    2c3a:	9b e0       	ldi	r25, 0x0B	; 11
    2c3c:	88 89       	ldd	r24, Y+16	; 0x10
    2c3e:	29 2f       	mov	r18, r25
    2c40:	28 1b       	sub	r18, r24
    2c42:	82 2f       	mov	r24, r18
    2c44:	88 8b       	std	Y+16, r24	; 0x10
                    // Clean up
                    alt_p_c = FALSE;
                    long_flag = FALSE;
                    break;
                }
                p-=2;
    2c46:	8e 89       	ldd	r24, Y+22	; 0x16
    2c48:	9f 89       	ldd	r25, Y+23	; 0x17
    2c4a:	02 97       	sbiw	r24, 0x02	; 2
    2c4c:	9f 8b       	std	Y+23, r25	; 0x17
    2c4e:	8e 8b       	std	Y+22, r24	; 0x16
                alt_p_c = TRUE;
    2c50:	81 e0       	ldi	r24, 0x01	; 1
    2c52:	8e 87       	std	Y+14, r24	; 0x0e
                // Clean up
                long_flag = FALSE;
    2c54:	1f 86       	std	Y+15, r1	; 0x0f
    2c56:	1a c0       	rjmp	.+52     	; 0x2c8c <uart_mini_printf+0x70e>
                    }  // Truncation
                    min_size = DATA_BUF_LEN-1 - min_size;  // "min_size" formatted as "data_ix"
                }
                else      // ERROR: any "char" after '0'
                {
                    uart_putchar('0');
    2c58:	80 e3       	ldi	r24, 0x30	; 48
    2c5a:	0e 94 67 12 	call	0x24ce	; 0x24ce <uart_putchar>
                    uart_putchar(*p);
    2c5e:	ee 89       	ldd	r30, Y+22	; 0x16
    2c60:	ff 89       	ldd	r31, Y+23	; 0x17
    2c62:	80 81       	ld	r24, Z
    2c64:	0e 94 67 12 	call	0x24ce	; 0x24ce <uart_putchar>
                    // Clean up
                    alt_p_c = FALSE;
    2c68:	1e 86       	std	Y+14, r1	; 0x0e
                    long_flag = FALSE;
    2c6a:	1f 86       	std	Y+15, r1	; 0x0f
    2c6c:	0f c0       	rjmp	.+30     	; 0x2c8c <uart_mini_printf+0x70e>
                // Clean up
                long_flag = FALSE;
                break;  // case '0'
                
            default:
                if (long_flag == TRUE)
    2c6e:	8f 85       	ldd	r24, Y+15	; 0x0f
    2c70:	81 30       	cpi	r24, 0x01	; 1
    2c72:	19 f4       	brne	.+6      	; 0x2c7a <uart_mini_printf+0x6fc>
                {
                    uart_putchar('l');
    2c74:	8c e6       	ldi	r24, 0x6C	; 108
    2c76:	0e 94 67 12 	call	0x24ce	; 0x24ce <uart_putchar>
                }
                uart_putchar(*p);
    2c7a:	ee 89       	ldd	r30, Y+22	; 0x16
    2c7c:	ff 89       	ldd	r31, Y+23	; 0x17
    2c7e:	80 81       	ld	r24, Z
    2c80:	0e 94 67 12 	call	0x24ce	; 0x24ce <uart_putchar>
                // Clean up
                min_size = DATA_BUF_LEN-1;
    2c84:	8b e0       	ldi	r24, 0x0B	; 11
    2c86:	88 8b       	std	Y+16, r24	; 0x10
                alt_p_c = FALSE;
    2c88:	1e 86       	std	Y+14, r1	; 0x0e
                long_flag = FALSE;
    2c8a:	1f 86       	std	Y+15, r1	; 0x0f
    long_flag = FALSE;
    alt_p_c = FALSE;
    min_size = DATA_BUF_LEN-1;

    va_start(arg_ptr, format);   // make arg_ptr point to the first unnamed arg
    for (p = (U8 *) format; *p; p++)
    2c8c:	8e 89       	ldd	r24, Y+22	; 0x16
    2c8e:	9f 89       	ldd	r25, Y+23	; 0x17
    2c90:	01 96       	adiw	r24, 0x01	; 1
    2c92:	9f 8b       	std	Y+23, r25	; 0x17
    2c94:	8e 8b       	std	Y+22, r24	; 0x16
    2c96:	ee 89       	ldd	r30, Y+22	; 0x16
    2c98:	ff 89       	ldd	r31, Y+23	; 0x17
    2c9a:	80 81       	ld	r24, Z
    2c9c:	88 23       	and	r24, r24
    2c9e:	09 f0       	breq	.+2      	; 0x2ca2 <uart_mini_printf+0x724>
    2ca0:	87 cc       	rjmp	.-1778   	; 0x25b0 <uart_mini_printf+0x32>
        }   // switch (*p ...
        
    }   // for (p = ...
    
    va_end(arg_ptr);
    return 0;
    2ca2:	80 e0       	ldi	r24, 0x00	; 0
}
    2ca4:	af 96       	adiw	r28, 0x2f	; 47
    2ca6:	0f b6       	in	r0, 0x3f	; 63
    2ca8:	f8 94       	cli
    2caa:	de bf       	out	0x3e, r29	; 62
    2cac:	0f be       	out	0x3f, r0	; 63
    2cae:	cd bf       	out	0x3d, r28	; 61
    2cb0:	cf 91       	pop	r28
    2cb2:	df 91       	pop	r29
    2cb4:	1f 91       	pop	r17
    2cb6:	0f 91       	pop	r16
    2cb8:	08 95       	ret

00002cba <__udivmodhi4>:
    2cba:	aa 1b       	sub	r26, r26
    2cbc:	bb 1b       	sub	r27, r27
    2cbe:	51 e1       	ldi	r21, 0x11	; 17
    2cc0:	07 c0       	rjmp	.+14     	; 0x2cd0 <__udivmodhi4_ep>

00002cc2 <__udivmodhi4_loop>:
    2cc2:	aa 1f       	adc	r26, r26
    2cc4:	bb 1f       	adc	r27, r27
    2cc6:	a6 17       	cp	r26, r22
    2cc8:	b7 07       	cpc	r27, r23
    2cca:	10 f0       	brcs	.+4      	; 0x2cd0 <__udivmodhi4_ep>
    2ccc:	a6 1b       	sub	r26, r22
    2cce:	b7 0b       	sbc	r27, r23

00002cd0 <__udivmodhi4_ep>:
    2cd0:	88 1f       	adc	r24, r24
    2cd2:	99 1f       	adc	r25, r25
    2cd4:	5a 95       	dec	r21
    2cd6:	a9 f7       	brne	.-22     	; 0x2cc2 <__udivmodhi4_loop>
    2cd8:	80 95       	com	r24
    2cda:	90 95       	com	r25
    2cdc:	bc 01       	movw	r22, r24
    2cde:	cd 01       	movw	r24, r26
    2ce0:	08 95       	ret

00002ce2 <__divmodhi4>:
    2ce2:	97 fb       	bst	r25, 7
    2ce4:	09 2e       	mov	r0, r25
    2ce6:	07 26       	eor	r0, r23
    2ce8:	0a d0       	rcall	.+20     	; 0x2cfe <__divmodhi4_neg1>
    2cea:	77 fd       	sbrc	r23, 7
    2cec:	04 d0       	rcall	.+8      	; 0x2cf6 <__divmodhi4_neg2>
    2cee:	e5 df       	rcall	.-54     	; 0x2cba <__udivmodhi4>
    2cf0:	06 d0       	rcall	.+12     	; 0x2cfe <__divmodhi4_neg1>
    2cf2:	00 20       	and	r0, r0
    2cf4:	1a f4       	brpl	.+6      	; 0x2cfc <__divmodhi4_exit>

00002cf6 <__divmodhi4_neg2>:
    2cf6:	70 95       	com	r23
    2cf8:	61 95       	neg	r22
    2cfa:	7f 4f       	sbci	r23, 0xFF	; 255

00002cfc <__divmodhi4_exit>:
    2cfc:	08 95       	ret

00002cfe <__divmodhi4_neg1>:
    2cfe:	f6 f7       	brtc	.-4      	; 0x2cfc <__divmodhi4_exit>
    2d00:	90 95       	com	r25
    2d02:	81 95       	neg	r24
    2d04:	9f 4f       	sbci	r25, 0xFF	; 255
    2d06:	08 95       	ret

00002d08 <__udivmodsi4>:
    2d08:	a1 e2       	ldi	r26, 0x21	; 33
    2d0a:	1a 2e       	mov	r1, r26
    2d0c:	aa 1b       	sub	r26, r26
    2d0e:	bb 1b       	sub	r27, r27
    2d10:	fd 01       	movw	r30, r26
    2d12:	0d c0       	rjmp	.+26     	; 0x2d2e <__udivmodsi4_ep>

00002d14 <__udivmodsi4_loop>:
    2d14:	aa 1f       	adc	r26, r26
    2d16:	bb 1f       	adc	r27, r27
    2d18:	ee 1f       	adc	r30, r30
    2d1a:	ff 1f       	adc	r31, r31
    2d1c:	a2 17       	cp	r26, r18
    2d1e:	b3 07       	cpc	r27, r19
    2d20:	e4 07       	cpc	r30, r20
    2d22:	f5 07       	cpc	r31, r21
    2d24:	20 f0       	brcs	.+8      	; 0x2d2e <__udivmodsi4_ep>
    2d26:	a2 1b       	sub	r26, r18
    2d28:	b3 0b       	sbc	r27, r19
    2d2a:	e4 0b       	sbc	r30, r20
    2d2c:	f5 0b       	sbc	r31, r21

00002d2e <__udivmodsi4_ep>:
    2d2e:	66 1f       	adc	r22, r22
    2d30:	77 1f       	adc	r23, r23
    2d32:	88 1f       	adc	r24, r24
    2d34:	99 1f       	adc	r25, r25
    2d36:	1a 94       	dec	r1
    2d38:	69 f7       	brne	.-38     	; 0x2d14 <__udivmodsi4_loop>
    2d3a:	60 95       	com	r22
    2d3c:	70 95       	com	r23
    2d3e:	80 95       	com	r24
    2d40:	90 95       	com	r25
    2d42:	9b 01       	movw	r18, r22
    2d44:	ac 01       	movw	r20, r24
    2d46:	bd 01       	movw	r22, r26
    2d48:	cf 01       	movw	r24, r30
    2d4a:	08 95       	ret

00002d4c <__divmodsi4>:
    2d4c:	97 fb       	bst	r25, 7
    2d4e:	09 2e       	mov	r0, r25
    2d50:	05 26       	eor	r0, r21
    2d52:	0e d0       	rcall	.+28     	; 0x2d70 <__divmodsi4_neg1>
    2d54:	57 fd       	sbrc	r21, 7
    2d56:	04 d0       	rcall	.+8      	; 0x2d60 <__divmodsi4_neg2>
    2d58:	d7 df       	rcall	.-82     	; 0x2d08 <__udivmodsi4>
    2d5a:	0a d0       	rcall	.+20     	; 0x2d70 <__divmodsi4_neg1>
    2d5c:	00 1c       	adc	r0, r0
    2d5e:	38 f4       	brcc	.+14     	; 0x2d6e <__divmodsi4_exit>

00002d60 <__divmodsi4_neg2>:
    2d60:	50 95       	com	r21
    2d62:	40 95       	com	r20
    2d64:	30 95       	com	r19
    2d66:	21 95       	neg	r18
    2d68:	3f 4f       	sbci	r19, 0xFF	; 255
    2d6a:	4f 4f       	sbci	r20, 0xFF	; 255
    2d6c:	5f 4f       	sbci	r21, 0xFF	; 255

00002d6e <__divmodsi4_exit>:
    2d6e:	08 95       	ret

00002d70 <__divmodsi4_neg1>:
    2d70:	f6 f7       	brtc	.-4      	; 0x2d6e <__divmodsi4_exit>
    2d72:	90 95       	com	r25
    2d74:	80 95       	com	r24
    2d76:	70 95       	com	r23
    2d78:	61 95       	neg	r22
    2d7a:	7f 4f       	sbci	r23, 0xFF	; 255
    2d7c:	8f 4f       	sbci	r24, 0xFF	; 255
    2d7e:	9f 4f       	sbci	r25, 0xFF	; 255
    2d80:	08 95       	ret

00002d82 <_exit>:
    2d82:	f8 94       	cli

00002d84 <__stop_program>:
    2d84:	ff cf       	rjmp	.-2      	; 0x2d84 <__stop_program>
